
test_operations.riscv:     file format elf64-littleriscv


Disassembly of section .text:

00000000000100e8 <exit>:
   100e8:	1141                	addi	sp,sp,-16
   100ea:	4581                	li	a1,0
   100ec:	e022                	sd	s0,0(sp)
   100ee:	e406                	sd	ra,8(sp)
   100f0:	842a                	mv	s0,a0
   100f2:	018090ef          	jal	ra,1910a <__call_exitprocs>
   100f6:	7481b503          	ld	a0,1864(gp) # 278b8 <_global_impure_ptr>
   100fa:	6d3c                	ld	a5,88(a0)
   100fc:	c391                	beqz	a5,10100 <exit+0x18>
   100fe:	9782                	jalr	a5
   10100:	8522                	mv	a0,s0
   10102:	637110ef          	jal	ra,21f38 <_exit>

0000000000010106 <main>:
   10106:	1141                	addi	sp,sp,-16
   10108:	e406                	sd	ra,8(sp)
   1010a:	3fd060ef          	jal	ra,16d06 <_Z35test_crypto_kem_enc_custom_oneroundv>
   1010e:	60a2                	ld	ra,8(sp)
   10110:	4501                	li	a0,0
   10112:	0141                	addi	sp,sp,16
   10114:	8082                	ret

0000000000010116 <register_fini>:
   10116:	00000793          	li	a5,0
   1011a:	c791                	beqz	a5,10126 <register_fini+0x10>
   1011c:	6565                	lui	a0,0x19
   1011e:	65250513          	addi	a0,a0,1618 # 19652 <__libc_fini_array>
   10122:	7841006f          	j	208a6 <atexit>
   10126:	8082                	ret

0000000000010128 <_start>:
   10128:	00017197          	auipc	gp,0x17
   1012c:	04818193          	addi	gp,gp,72 # 27170 <__global_pointer$>
   10130:	77018513          	addi	a0,gp,1904 # 278e0 <_PathLocale>
   10134:	00018617          	auipc	a2,0x18
   10138:	83c60613          	addi	a2,a2,-1988 # 27970 <__BSS_END__>
   1013c:	8e09                	sub	a2,a2,a0
   1013e:	4581                	li	a1,0
   10140:	04e070ef          	jal	ra,1718e <memset>
   10144:	00010517          	auipc	a0,0x10
   10148:	76250513          	addi	a0,a0,1890 # 208a6 <atexit>
   1014c:	c519                	beqz	a0,1015a <_start+0x32>
   1014e:	00009517          	auipc	a0,0x9
   10152:	50450513          	addi	a0,a0,1284 # 19652 <__libc_fini_array>
   10156:	750100ef          	jal	ra,208a6 <atexit>
   1015a:	5a5060ef          	jal	ra,16efe <__libc_init_array>
   1015e:	4502                	lw	a0,0(sp)
   10160:	002c                	addi	a1,sp,8
   10162:	4601                	li	a2,0
   10164:	fa3ff0ef          	jal	ra,10106 <main>
   10168:	b741                	j	100e8 <exit>

000000000001016a <__do_global_dtors_aux>:
   1016a:	1141                	addi	sp,sp,-16
   1016c:	e022                	sd	s0,0(sp)
   1016e:	7a01c783          	lbu	a5,1952(gp) # 27910 <completed.1>
   10172:	e406                	sd	ra,8(sp)
   10174:	ef99                	bnez	a5,10192 <__do_global_dtors_aux+0x28>
   10176:	00000793          	li	a5,0
   1017a:	cb89                	beqz	a5,1018c <__do_global_dtors_aux+0x22>
   1017c:	00026537          	lui	a0,0x26
   10180:	8e050513          	addi	a0,a0,-1824 # 258e0 <__EH_FRAME_BEGIN__>
   10184:	00000097          	auipc	ra,0x0
   10188:	000000e7          	jalr	zero # 0 <exit-0x100e8>
   1018c:	4785                	li	a5,1
   1018e:	7af18023          	sb	a5,1952(gp) # 27910 <completed.1>
   10192:	60a2                	ld	ra,8(sp)
   10194:	6402                	ld	s0,0(sp)
   10196:	0141                	addi	sp,sp,16
   10198:	8082                	ret

000000000001019a <frame_dummy>:
   1019a:	00000793          	li	a5,0
   1019e:	cb99                	beqz	a5,101b4 <frame_dummy+0x1a>
   101a0:	00026537          	lui	a0,0x26
   101a4:	7a818593          	addi	a1,gp,1960 # 27918 <object.0>
   101a8:	8e050513          	addi	a0,a0,-1824 # 258e0 <__EH_FRAME_BEGIN__>
   101ac:	00000317          	auipc	t1,0x0
   101b0:	00000067          	jr	zero # 0 <exit-0x100e8>
   101b4:	8082                	ret

00000000000101b6 <_Z11apply_benesPhPKhi>:
   101b6:	b7010113          	addi	sp,sp,-1168
   101ba:	43913c23          	sd	s9,1080(sp)
   101be:	02010c93          	addi	s9,sp,32
   101c2:	48813023          	sd	s0,1152(sp)
   101c6:	46913c23          	sd	s1,1144(sp)
   101ca:	47213823          	sd	s2,1136(sp)
   101ce:	47313423          	sd	s3,1128(sp)
   101d2:	47413023          	sd	s4,1120(sp)
   101d6:	43a13823          	sd	s10,1072(sp)
   101da:	48113423          	sd	ra,1160(sp)
   101de:	45513c23          	sd	s5,1112(sp)
   101e2:	45613823          	sd	s6,1104(sp)
   101e6:	45713423          	sd	s7,1096(sp)
   101ea:	45813023          	sd	s8,1088(sp)
   101ee:	43b13423          	sd	s11,1064(sp)
   101f2:	8d2a                	mv	s10,a0
   101f4:	8a2e                	mv	s4,a1
   101f6:	89b2                	mv	s3,a2
   101f8:	22010913          	addi	s2,sp,544
   101fc:	8466                	mv	s0,s9
   101fe:	84aa                	mv	s1,a0
   10200:	8526                	mv	a0,s1
   10202:	78e060ef          	jal	ra,16990 <_Z5load8PKh>
   10206:	e008                	sd	a0,0(s0)
   10208:	0421                	addi	s0,s0,8
   1020a:	04a1                	addi	s1,s1,8
   1020c:	fe891ae3          	bne	s2,s0,10200 <_Z11apply_benesPhPKhi+0x4a>
   10210:	10000a93          	li	s5,256
   10214:	00098863          	beqz	s3,10224 <_Z11apply_benesPhPKhi+0x6e>
   10218:	6785                	lui	a5,0x1
   1021a:	60078793          	addi	a5,a5,1536 # 1600 <exit-0xeae8>
   1021e:	9a3e                	add	s4,s4,a5
   10220:	f0000a93          	li	s5,-256
   10224:	100c                	addi	a1,sp,32
   10226:	852e                	mv	a0,a1
   10228:	4e6060ef          	jal	ra,1670e <_Z15transpose_64x64PmS_>
   1022c:	8b52                	mv	s6,s4
   1022e:	4981                	li	s3,0
   10230:	42010413          	addi	s0,sp,1056
   10234:	4d85                	li	s11,1
   10236:	4c09                	li	s8,2
   10238:	03f00493          	li	s1,63
   1023c:	4b99                	li	s7,6
   1023e:	e466                	sd	s9,8(sp)
   10240:	e852                	sd	s4,16(sp)
   10242:	8cda                	mv	s9,s6
   10244:	8a4a                	mv	s4,s2
   10246:	8566                	mv	a0,s9
   10248:	6e4060ef          	jal	ra,1692c <_Z5load4PKh>
   1024c:	1502                	slli	a0,a0,0x20
   1024e:	9101                	srli	a0,a0,0x20
   10250:	00aa3023          	sd	a0,0(s4)
   10254:	0a21                	addi	s4,s4,8
   10256:	0c91                	addi	s9,s9,4
   10258:	fe8a17e3          	bne	s4,s0,10246 <_Z11apply_benesPhPKhi+0x90>
   1025c:	85ca                	mv	a1,s2
   1025e:	854a                	mv	a0,s2
   10260:	4ae060ef          	jal	ra,1670e <_Z15transpose_64x64PmS_>
   10264:	013c1ebb          	sllw	t4,s8,s3
   10268:	013d98bb          	sllw	a7,s11,s3
   1026c:	003e9f93          	slli	t6,t4,0x3
   10270:	00389293          	slli	t0,a7,0x3
   10274:	02010313          	addi	t1,sp,32
   10278:	8e4a                	mv	t3,s2
   1027a:	4801                	li	a6,0
   1027c:	05185c63          	bge	a6,a7,102d4 <_Z11apply_benesPhPKhi+0x11e>
   10280:	4108853b          	subw	a0,a7,a6
   10284:	02051793          	slli	a5,a0,0x20
   10288:	01d7d513          	srli	a0,a5,0x1d
   1028c:	00530733          	add	a4,t1,t0
   10290:	00080f1b          	sext.w	t5,a6
   10294:	9572                	add	a0,a0,t3
   10296:	859a                	mv	a1,t1
   10298:	8672                	mv	a2,t3
   1029a:	6194                	ld	a3,0(a1)
   1029c:	631c                	ld	a5,0(a4)
   1029e:	00063383          	ld	t2,0(a2)
   102a2:	0721                	addi	a4,a4,8
   102a4:	8fb5                	xor	a5,a5,a3
   102a6:	0077f7b3          	and	a5,a5,t2
   102aa:	8ebd                	xor	a3,a3,a5
   102ac:	e194                	sd	a3,0(a1)
   102ae:	ff873683          	ld	a3,-8(a4)
   102b2:	0621                	addi	a2,a2,8
   102b4:	05a1                	addi	a1,a1,8
   102b6:	8fb5                	xor	a5,a5,a3
   102b8:	fef73c23          	sd	a5,-8(a4)
   102bc:	fca61fe3          	bne	a2,a0,1029a <_Z11apply_benesPhPKhi+0xe4>
   102c0:	fff8879b          	addiw	a5,a7,-1
   102c4:	41e787bb          	subw	a5,a5,t5
   102c8:	02079713          	slli	a4,a5,0x20
   102cc:	01d75793          	srli	a5,a4,0x1d
   102d0:	07a1                	addi	a5,a5,8
   102d2:	9e3e                	add	t3,t3,a5
   102d4:	010e883b          	addw	a6,t4,a6
   102d8:	01d888bb          	addw	a7,a7,t4
   102dc:	937e                	add	t1,t1,t6
   102de:	f904dfe3          	bge	s1,a6,1027c <_Z11apply_benesPhPKhi+0xc6>
   102e2:	2985                	addiw	s3,s3,1
   102e4:	9b56                	add	s6,s6,s5
   102e6:	f5799ee3          	bne	s3,s7,10242 <_Z11apply_benesPhPKhi+0x8c>
   102ea:	6a42                	ld	s4,16(sp)
   102ec:	001a9793          	slli	a5,s5,0x1
   102f0:	6ca2                	ld	s9,8(sp)
   102f2:	97d6                	add	a5,a5,s5
   102f4:	0786                	slli	a5,a5,0x1
   102f6:	100c                	addi	a1,sp,32
   102f8:	9a3e                	add	s4,s4,a5
   102fa:	852e                	mv	a0,a1
   102fc:	e43e                	sd	a5,8(sp)
   102fe:	8b52                	mv	s6,s4
   10300:	40e060ef          	jal	ra,1670e <_Z15transpose_64x64PmS_>
   10304:	4d81                	li	s11,0
   10306:	10090493          	addi	s1,s2,256
   1030a:	4c05                	li	s8,1
   1030c:	4b89                	li	s7,2
   1030e:	03f00993          	li	s3,63
   10312:	e866                	sd	s9,16(sp)
   10314:	ec52                	sd	s4,24(sp)
   10316:	8cda                	mv	s9,s6
   10318:	8a4a                	mv	s4,s2
   1031a:	8566                	mv	a0,s9
   1031c:	674060ef          	jal	ra,16990 <_Z5load8PKh>
   10320:	00aa3023          	sd	a0,0(s4)
   10324:	0a21                	addi	s4,s4,8
   10326:	0ca1                	addi	s9,s9,8
   10328:	ff4499e3          	bne	s1,s4,1031a <_Z11apply_benesPhPKhi+0x164>
   1032c:	01bb9ebb          	sllw	t4,s7,s11
   10330:	01bc18bb          	sllw	a7,s8,s11
   10334:	003e9f93          	slli	t6,t4,0x3
   10338:	00389293          	slli	t0,a7,0x3
   1033c:	02010313          	addi	t1,sp,32
   10340:	8e4a                	mv	t3,s2
   10342:	4801                	li	a6,0
   10344:	07185063          	bge	a6,a7,103a4 <_Z11apply_benesPhPKhi+0x1ee>
   10348:	4108853b          	subw	a0,a7,a6
   1034c:	02051793          	slli	a5,a0,0x20
   10350:	01d7d513          	srli	a0,a5,0x1d
   10354:	00628733          	add	a4,t0,t1
   10358:	0008069b          	sext.w	a3,a6
   1035c:	9572                	add	a0,a0,t3
   1035e:	859a                	mv	a1,t1
   10360:	8672                	mv	a2,t3
   10362:	0005bf03          	ld	t5,0(a1)
   10366:	631c                	ld	a5,0(a4)
   10368:	00063383          	ld	t2,0(a2)
   1036c:	0721                	addi	a4,a4,8
   1036e:	00ff47b3          	xor	a5,t5,a5
   10372:	0077f7b3          	and	a5,a5,t2
   10376:	00ff4f33          	xor	t5,t5,a5
   1037a:	01e5b023          	sd	t5,0(a1)
   1037e:	ff873f03          	ld	t5,-8(a4)
   10382:	0621                	addi	a2,a2,8
   10384:	05a1                	addi	a1,a1,8
   10386:	00ff47b3          	xor	a5,t5,a5
   1038a:	fef73c23          	sd	a5,-8(a4)
   1038e:	fcc51ae3          	bne	a0,a2,10362 <_Z11apply_benesPhPKhi+0x1ac>
   10392:	fff8879b          	addiw	a5,a7,-1
   10396:	9f95                	subw	a5,a5,a3
   10398:	02079713          	slli	a4,a5,0x20
   1039c:	01d75793          	srli	a5,a4,0x1d
   103a0:	07a1                	addi	a5,a5,8
   103a2:	9e3e                	add	t3,t3,a5
   103a4:	010e883b          	addw	a6,t4,a6
   103a8:	011e88bb          	addw	a7,t4,a7
   103ac:	937e                	add	t1,t1,t6
   103ae:	f909dbe3          	bge	s3,a6,10344 <_Z11apply_benesPhPKhi+0x18e>
   103b2:	2d85                	addiw	s11,s11,1
   103b4:	4799                	li	a5,6
   103b6:	9b56                	add	s6,s6,s5
   103b8:	f4fd9fe3          	bne	s11,a5,10316 <_Z11apply_benesPhPKhi+0x160>
   103bc:	6a62                	ld	s4,24(sp)
   103be:	67a2                	ld	a5,8(sp)
   103c0:	4b11                	li	s6,4
   103c2:	4d89                	li	s11,2
   103c4:	00fa0733          	add	a4,s4,a5
   103c8:	8bba                	mv	s7,a4
   103ca:	4a05                	li	s4,1
   103cc:	03f00993          	li	s3,63
   103d0:	5c7d                	li	s8,-1
   103d2:	e46a                	sd	s10,8(sp)
   103d4:	ec3a                	sd	a4,24(sp)
   103d6:	8d5e                	mv	s10,s7
   103d8:	8cca                	mv	s9,s2
   103da:	856a                	mv	a0,s10
   103dc:	5b4060ef          	jal	ra,16990 <_Z5load8PKh>
   103e0:	00acb023          	sd	a0,0(s9)
   103e4:	0ca1                	addi	s9,s9,8
   103e6:	0d21                	addi	s10,s10,8
   103e8:	ff9499e3          	bne	s1,s9,103da <_Z11apply_benesPhPKhi+0x224>
   103ec:	016d9ebb          	sllw	t4,s11,s6
   103f0:	016a18bb          	sllw	a7,s4,s6
   103f4:	003e9f93          	slli	t6,t4,0x3
   103f8:	00389293          	slli	t0,a7,0x3
   103fc:	02010313          	addi	t1,sp,32
   10400:	8e4a                	mv	t3,s2
   10402:	4801                	li	a6,0
   10404:	05185c63          	bge	a6,a7,1045c <_Z11apply_benesPhPKhi+0x2a6>
   10408:	4108853b          	subw	a0,a7,a6
   1040c:	02051793          	slli	a5,a0,0x20
   10410:	01d7d513          	srli	a0,a5,0x1d
   10414:	00628733          	add	a4,t0,t1
   10418:	00080f1b          	sext.w	t5,a6
   1041c:	9572                	add	a0,a0,t3
   1041e:	859a                	mv	a1,t1
   10420:	8672                	mv	a2,t3
   10422:	6194                	ld	a3,0(a1)
   10424:	631c                	ld	a5,0(a4)
   10426:	00063383          	ld	t2,0(a2)
   1042a:	0721                	addi	a4,a4,8
   1042c:	8fb5                	xor	a5,a5,a3
   1042e:	0077f7b3          	and	a5,a5,t2
   10432:	8ebd                	xor	a3,a3,a5
   10434:	e194                	sd	a3,0(a1)
   10436:	ff873683          	ld	a3,-8(a4)
   1043a:	0621                	addi	a2,a2,8
   1043c:	05a1                	addi	a1,a1,8
   1043e:	8fb5                	xor	a5,a5,a3
   10440:	fef73c23          	sd	a5,-8(a4)
   10444:	fca61fe3          	bne	a2,a0,10422 <_Z11apply_benesPhPKhi+0x26c>
   10448:	fff8879b          	addiw	a5,a7,-1
   1044c:	41e787bb          	subw	a5,a5,t5
   10450:	02079713          	slli	a4,a5,0x20
   10454:	01d75793          	srli	a5,a4,0x1d
   10458:	07a1                	addi	a5,a5,8
   1045a:	9e3e                	add	t3,t3,a5
   1045c:	010e883b          	addw	a6,t4,a6
   10460:	011e88bb          	addw	a7,t4,a7
   10464:	937e                	add	t1,t1,t6
   10466:	f909dfe3          	bge	s3,a6,10404 <_Z11apply_benesPhPKhi+0x24e>
   1046a:	3b7d                	addiw	s6,s6,-1
   1046c:	9bd6                	add	s7,s7,s5
   1046e:	f78b14e3          	bne	s6,s8,103d6 <_Z11apply_benesPhPKhi+0x220>
   10472:	6cc2                	ld	s9,16(sp)
   10474:	6762                	ld	a4,24(sp)
   10476:	100c                	addi	a1,sp,32
   10478:	002a9793          	slli	a5,s5,0x2
   1047c:	97d6                	add	a5,a5,s5
   1047e:	852e                	mv	a0,a1
   10480:	6d22                	ld	s10,8(sp)
   10482:	00f70a33          	add	s4,a4,a5
   10486:	4995                	li	s3,5
   10488:	286060ef          	jal	ra,1670e <_Z15transpose_64x64PmS_>
   1048c:	4c05                	li	s8,1
   1048e:	4b89                	li	s7,2
   10490:	03f00493          	li	s1,63
   10494:	5b7d                	li	s6,-1
   10496:	e466                	sd	s9,8(sp)
   10498:	8cd2                	mv	s9,s4
   1049a:	8dca                	mv	s11,s2
   1049c:	8566                	mv	a0,s9
   1049e:	48e060ef          	jal	ra,1692c <_Z5load4PKh>
   104a2:	1502                	slli	a0,a0,0x20
   104a4:	9101                	srli	a0,a0,0x20
   104a6:	00adb023          	sd	a0,0(s11)
   104aa:	0da1                	addi	s11,s11,8
   104ac:	0c91                	addi	s9,s9,4
   104ae:	fe8d97e3          	bne	s11,s0,1049c <_Z11apply_benesPhPKhi+0x2e6>
   104b2:	85ca                	mv	a1,s2
   104b4:	854a                	mv	a0,s2
   104b6:	258060ef          	jal	ra,1670e <_Z15transpose_64x64PmS_>
   104ba:	013b9ebb          	sllw	t4,s7,s3
   104be:	013c18bb          	sllw	a7,s8,s3
   104c2:	003e9f93          	slli	t6,t4,0x3
   104c6:	00389293          	slli	t0,a7,0x3
   104ca:	02010313          	addi	t1,sp,32
   104ce:	8e4a                	mv	t3,s2
   104d0:	4801                	li	a6,0
   104d2:	05185c63          	bge	a6,a7,1052a <_Z11apply_benesPhPKhi+0x374>
   104d6:	4108853b          	subw	a0,a7,a6
   104da:	02051793          	slli	a5,a0,0x20
   104de:	01d7d513          	srli	a0,a5,0x1d
   104e2:	00628733          	add	a4,t0,t1
   104e6:	00080f1b          	sext.w	t5,a6
   104ea:	9572                	add	a0,a0,t3
   104ec:	859a                	mv	a1,t1
   104ee:	8672                	mv	a2,t3
   104f0:	6194                	ld	a3,0(a1)
   104f2:	631c                	ld	a5,0(a4)
   104f4:	00063383          	ld	t2,0(a2)
   104f8:	0721                	addi	a4,a4,8
   104fa:	8fb5                	xor	a5,a5,a3
   104fc:	0077f7b3          	and	a5,a5,t2
   10500:	8ebd                	xor	a3,a3,a5
   10502:	e194                	sd	a3,0(a1)
   10504:	ff873683          	ld	a3,-8(a4)
   10508:	0621                	addi	a2,a2,8
   1050a:	05a1                	addi	a1,a1,8
   1050c:	8fb5                	xor	a5,a5,a3
   1050e:	fef73c23          	sd	a5,-8(a4)
   10512:	fca61fe3          	bne	a2,a0,104f0 <_Z11apply_benesPhPKhi+0x33a>
   10516:	fff8879b          	addiw	a5,a7,-1
   1051a:	41e787bb          	subw	a5,a5,t5
   1051e:	02079713          	slli	a4,a5,0x20
   10522:	01d75793          	srli	a5,a4,0x1d
   10526:	07a1                	addi	a5,a5,8
   10528:	9e3e                	add	t3,t3,a5
   1052a:	010e883b          	addw	a6,t4,a6
   1052e:	011e88bb          	addw	a7,t4,a7
   10532:	937e                	add	t1,t1,t6
   10534:	f904dfe3          	bge	s1,a6,104d2 <_Z11apply_benesPhPKhi+0x31c>
   10538:	39fd                	addiw	s3,s3,-1
   1053a:	9a56                	add	s4,s4,s5
   1053c:	f5699ee3          	bne	s3,s6,10498 <_Z11apply_benesPhPKhi+0x2e2>
   10540:	100c                	addi	a1,sp,32
   10542:	852e                	mv	a0,a1
   10544:	6ca2                	ld	s9,8(sp)
   10546:	1c8060ef          	jal	ra,1670e <_Z15transpose_64x64PmS_>
   1054a:	000cb583          	ld	a1,0(s9)
   1054e:	856a                	mv	a0,s10
   10550:	0ca1                	addi	s9,s9,8
   10552:	400060ef          	jal	ra,16952 <_Z6store8Phm>
   10556:	0d21                	addi	s10,s10,8
   10558:	ff9919e3          	bne	s2,s9,1054a <_Z11apply_benesPhPKhi+0x394>
   1055c:	48813083          	ld	ra,1160(sp)
   10560:	48013403          	ld	s0,1152(sp)
   10564:	47813483          	ld	s1,1144(sp)
   10568:	47013903          	ld	s2,1136(sp)
   1056c:	46813983          	ld	s3,1128(sp)
   10570:	46013a03          	ld	s4,1120(sp)
   10574:	45813a83          	ld	s5,1112(sp)
   10578:	45013b03          	ld	s6,1104(sp)
   1057c:	44813b83          	ld	s7,1096(sp)
   10580:	44013c03          	ld	s8,1088(sp)
   10584:	43813c83          	ld	s9,1080(sp)
   10588:	43013d03          	ld	s10,1072(sp)
   1058c:	42813d83          	ld	s11,1064(sp)
   10590:	49010113          	addi	sp,sp,1168
   10594:	8082                	ret

0000000000010596 <_Z11support_genPtPKh>:
   10596:	7119                	addi	sp,sp,-128
   10598:	72f9                	lui	t0,0xffffe
   1059a:	e0da                	sd	s6,64(sp)
   1059c:	7f028293          	addi	t0,t0,2032 # ffffffffffffe7f0 <__BSS_END__+0xfffffffffffd6e80>
   105a0:	8b2a                	mv	s6,a0
   105a2:	6609                	lui	a2,0x2
   105a4:	757d                	lui	a0,0xfffff
   105a6:	f8a2                	sd	s0,112(sp)
   105a8:	fc5e                	sd	s7,56(sp)
   105aa:	f862                	sd	s8,48(sp)
   105ac:	fc86                	sd	ra,120(sp)
   105ae:	f4a6                	sd	s1,104(sp)
   105b0:	f0ca                	sd	s2,96(sp)
   105b2:	ecce                	sd	s3,88(sp)
   105b4:	e8d2                	sd	s4,80(sp)
   105b6:	e4d6                	sd	s5,72(sp)
   105b8:	f466                	sd	s9,40(sp)
   105ba:	f06a                	sd	s10,32(sp)
   105bc:	ec6e                	sd	s11,24(sp)
   105be:	80060613          	addi	a2,a2,-2048 # 1800 <exit-0xe8e8>
   105c2:	9116                	add	sp,sp,t0
   105c4:	80050513          	addi	a0,a0,-2048 # ffffffffffffe800 <__BSS_END__+0xfffffffffffd6e90>
   105c8:	00a607b3          	add	a5,a2,a0
   105cc:	1018                	addi	a4,sp,32
   105ce:	8bae                	mv	s7,a1
   105d0:	00e78533          	add	a0,a5,a4
   105d4:	4581                	li	a1,0
   105d6:	3b9060ef          	jal	ra,1718e <memset>
   105da:	4401                	li	s0,0
   105dc:	6c05                	lui	s8,0x1
   105de:	e85a                	sd	s6,16(sp)
   105e0:	ec5e                	sd	s7,24(sp)
   105e2:	03041513          	slli	a0,s0,0x30
   105e6:	9141                	srli	a0,a0,0x30
   105e8:	3e6060ef          	jal	ra,169ce <_Z6bitrevt>
   105ec:	6705                	lui	a4,0x1
   105ee:	1014                	addi	a3,sp,32
   105f0:	80070713          	addi	a4,a4,-2048 # 800 <exit-0xf8e8>
   105f4:	9736                	add	a4,a4,a3
   105f6:	40345793          	srai	a5,s0,0x3
   105fa:	97ba                	add	a5,a5,a4
   105fc:	00fc06b3          	add	a3,s8,a5
   10600:	e006c703          	lbu	a4,-512(a3)
   10604:	4015531b          	sraiw	t1,a0,0x1
   10608:	4025589b          	sraiw	a7,a0,0x2
   1060c:	4035581b          	sraiw	a6,a0,0x3
   10610:	4045559b          	sraiw	a1,a0,0x4
   10614:	4055561b          	sraiw	a2,a0,0x5
   10618:	4065539b          	sraiw	t2,a0,0x6
   1061c:	4075529b          	sraiw	t0,a0,0x7
   10620:	40855f9b          	sraiw	t6,a0,0x8
   10624:	40955f1b          	sraiw	t5,a0,0x9
   10628:	40a55e9b          	sraiw	t4,a0,0xa
   1062c:	40b55e1b          	sraiw	t3,a0,0xb
   10630:	e43a                	sd	a4,8(sp)
   10632:	8905                	andi	a0,a0,1
   10634:	00747713          	andi	a4,s0,7
   10638:	00137313          	andi	t1,t1,1
   1063c:	0018f893          	andi	a7,a7,1
   10640:	00187813          	andi	a6,a6,1
   10644:	8985                	andi	a1,a1,1
   10646:	8a05                	andi	a2,a2,1
   10648:	0013f393          	andi	t2,t2,1
   1064c:	0012f293          	andi	t0,t0,1
   10650:	001fff93          	andi	t6,t6,1
   10654:	001f7f13          	andi	t5,t5,1
   10658:	001efe93          	andi	t4,t4,1
   1065c:	001e7e13          	andi	t3,t3,1
   10660:	8007ca83          	lbu	s5,-2048(a5)
   10664:	a007cd83          	lbu	s11,-1536(a5)
   10668:	c007cd03          	lbu	s10,-1024(a5)
   1066c:	e007cc83          	lbu	s9,-512(a5)
   10670:	0007cb83          	lbu	s7,0(a5)
   10674:	2007cb03          	lbu	s6,512(a5)
   10678:	4007ca03          	lbu	s4,1024(a5)
   1067c:	6007c983          	lbu	s3,1536(a5)
   10680:	8006c903          	lbu	s2,-2048(a3)
   10684:	a006c483          	lbu	s1,-1536(a3)
   10688:	c006c083          	lbu	ra,-1024(a3)
   1068c:	00e5153b          	sllw	a0,a0,a4
   10690:	00e3133b          	sllw	t1,t1,a4
   10694:	00e898bb          	sllw	a7,a7,a4
   10698:	00e8183b          	sllw	a6,a6,a4
   1069c:	00e595bb          	sllw	a1,a1,a4
   106a0:	00e6163b          	sllw	a2,a2,a4
   106a4:	00e393bb          	sllw	t2,t2,a4
   106a8:	00e292bb          	sllw	t0,t0,a4
   106ac:	00ef9fbb          	sllw	t6,t6,a4
   106b0:	00ef1f3b          	sllw	t5,t5,a4
   106b4:	00ee9ebb          	sllw	t4,t4,a4
   106b8:	00ee1e3b          	sllw	t3,t3,a4
   106bc:	6722                	ld	a4,8(sp)
   106be:	00aaeab3          	or	s5,s5,a0
   106c2:	006de333          	or	t1,s11,t1
   106c6:	011d68b3          	or	a7,s10,a7
   106ca:	010ce833          	or	a6,s9,a6
   106ce:	00bbe5b3          	or	a1,s7,a1
   106d2:	00cb6633          	or	a2,s6,a2
   106d6:	007a6a33          	or	s4,s4,t2
   106da:	0059e9b3          	or	s3,s3,t0
   106de:	01f96933          	or	s2,s2,t6
   106e2:	01e4e4b3          	or	s1,s1,t5
   106e6:	01d0e0b3          	or	ra,ra,t4
   106ea:	01c76733          	or	a4,a4,t3
   106ee:	81578023          	sb	s5,-2048(a5)
   106f2:	a0678023          	sb	t1,-1536(a5)
   106f6:	c1178023          	sb	a7,-1024(a5)
   106fa:	e1078023          	sb	a6,-512(a5)
   106fe:	00b78023          	sb	a1,0(a5)
   10702:	20c78023          	sb	a2,512(a5)
   10706:	41478023          	sb	s4,1024(a5)
   1070a:	61378023          	sb	s3,1536(a5)
   1070e:	81268023          	sb	s2,-2048(a3)
   10712:	a0968023          	sb	s1,-1536(a3)
   10716:	c0168023          	sb	ra,-1024(a3)
   1071a:	e0e68023          	sb	a4,-512(a3)
   1071e:	2405                	addiw	s0,s0,1
   10720:	ed8411e3          	bne	s0,s8,105e2 <_Z11support_genPtPKh+0x4c>
   10724:	77fd                	lui	a5,0xfffff
   10726:	6709                	lui	a4,0x2
   10728:	80078413          	addi	s0,a5,-2048 # ffffffffffffe800 <__BSS_END__+0xfffffffffffd6e90>
   1072c:	6b42                	ld	s6,16(sp)
   1072e:	80070793          	addi	a5,a4,-2048 # 1800 <exit-0xe8e8>
   10732:	6be2                	ld	s7,24(sp)
   10734:	1014                	addi	a3,sp,32
   10736:	97a2                	add	a5,a5,s0
   10738:	80070493          	addi	s1,a4,-2048
   1073c:	00d78433          	add	s0,a5,a3
   10740:	94b6                	add	s1,s1,a3
   10742:	8522                	mv	a0,s0
   10744:	4601                	li	a2,0
   10746:	20040413          	addi	s0,s0,512
   1074a:	85de                	mv	a1,s7
   1074c:	a6bff0ef          	jal	ra,101b6 <_Z11apply_benesPhPKhi>
   10750:	fe9419e3          	bne	s0,s1,10742 <_Z11support_genPtPKh+0x1ac>
   10754:	6709                	lui	a4,0x2
   10756:	77fd                	lui	a5,0xfffff
   10758:	80070713          	addi	a4,a4,-2048 # 1800 <exit-0xe8e8>
   1075c:	973e                	add	a4,a4,a5
   1075e:	101c                	addi	a5,sp,32
   10760:	6885                	lui	a7,0x1
   10762:	97ba                	add	a5,a5,a4
   10764:	885a                	mv	a6,s6
   10766:	4501                	li	a0,0
   10768:	e43e                	sd	a5,8(sp)
   1076a:	da088313          	addi	t1,a7,-608 # da0 <exit-0xf348>
   1076e:	67a2                	ld	a5,8(sp)
   10770:	40355713          	srai	a4,a0,0x3
   10774:	0809                	addi	a6,a6,2
   10776:	973e                	add	a4,a4,a5
   10778:	00e88e33          	add	t3,a7,a4
   1077c:	e00e4683          	lbu	a3,-512(t3)
   10780:	c00e4583          	lbu	a1,-1024(t3)
   10784:	00757793          	andi	a5,a0,7
   10788:	a00e4603          	lbu	a2,-1536(t3)
   1078c:	40f6d6bb          	sraw	a3,a3,a5
   10790:	40f5d5bb          	sraw	a1,a1,a5
   10794:	0016969b          	slliw	a3,a3,0x1
   10798:	8985                	andi	a1,a1,1
   1079a:	800e4e03          	lbu	t3,-2048(t3)
   1079e:	8a89                	andi	a3,a3,2
   107a0:	8ecd                	or	a3,a3,a1
   107a2:	40f6563b          	sraw	a2,a2,a5
   107a6:	60074583          	lbu	a1,1536(a4)
   107aa:	8a05                	andi	a2,a2,1
   107ac:	0016969b          	slliw	a3,a3,0x1
   107b0:	8ed1                	or	a3,a3,a2
   107b2:	40fe5e3b          	sraw	t3,t3,a5
   107b6:	40074603          	lbu	a2,1024(a4)
   107ba:	0016969b          	slliw	a3,a3,0x1
   107be:	001e7e13          	andi	t3,t3,1
   107c2:	00de6e33          	or	t3,t3,a3
   107c6:	40f5d5bb          	sraw	a1,a1,a5
   107ca:	20074683          	lbu	a3,512(a4)
   107ce:	001e1e1b          	slliw	t3,t3,0x1
   107d2:	8985                	andi	a1,a1,1
   107d4:	01c5e5b3          	or	a1,a1,t3
   107d8:	40f6563b          	sraw	a2,a2,a5
   107dc:	00074e03          	lbu	t3,0(a4)
   107e0:	0015959b          	slliw	a1,a1,0x1
   107e4:	8a05                	andi	a2,a2,1
   107e6:	8e4d                	or	a2,a2,a1
   107e8:	40f6d6bb          	sraw	a3,a3,a5
   107ec:	e0074583          	lbu	a1,-512(a4)
   107f0:	0016161b          	slliw	a2,a2,0x1
   107f4:	8a85                	andi	a3,a3,1
   107f6:	8ed1                	or	a3,a3,a2
   107f8:	40fe5e3b          	sraw	t3,t3,a5
   107fc:	c0074603          	lbu	a2,-1024(a4)
   10800:	0016969b          	slliw	a3,a3,0x1
   10804:	001e7e13          	andi	t3,t3,1
   10808:	00de6e33          	or	t3,t3,a3
   1080c:	40f5d5bb          	sraw	a1,a1,a5
   10810:	a0074683          	lbu	a3,-1536(a4)
   10814:	001e1e1b          	slliw	t3,t3,0x1
   10818:	8985                	andi	a1,a1,1
   1081a:	01c5e5b3          	or	a1,a1,t3
   1081e:	40f6563b          	sraw	a2,a2,a5
   10822:	80074e03          	lbu	t3,-2048(a4)
   10826:	8a05                	andi	a2,a2,1
   10828:	0015971b          	slliw	a4,a1,0x1
   1082c:	8e59                	or	a2,a2,a4
   1082e:	40f6d73b          	sraw	a4,a3,a5
   10832:	8b05                	andi	a4,a4,1
   10834:	0016169b          	slliw	a3,a2,0x1
   10838:	8f55                	or	a4,a4,a3
   1083a:	40fe56bb          	sraw	a3,t3,a5
   1083e:	0017179b          	slliw	a5,a4,0x1
   10842:	0016f713          	andi	a4,a3,1
   10846:	8fd9                	or	a5,a5,a4
   10848:	fef81f23          	sh	a5,-2(a6)
   1084c:	2505                	addiw	a0,a0,1
   1084e:	f26510e3          	bne	a0,t1,1076e <_Z11support_genPtPKh+0x1d8>
   10852:	6289                	lui	t0,0x2
   10854:	81028293          	addi	t0,t0,-2032 # 1810 <exit-0xe8d8>
   10858:	9116                	add	sp,sp,t0
   1085a:	70e6                	ld	ra,120(sp)
   1085c:	7446                	ld	s0,112(sp)
   1085e:	74a6                	ld	s1,104(sp)
   10860:	7906                	ld	s2,96(sp)
   10862:	69e6                	ld	s3,88(sp)
   10864:	6a46                	ld	s4,80(sp)
   10866:	6aa6                	ld	s5,72(sp)
   10868:	6b06                	ld	s6,64(sp)
   1086a:	7be2                	ld	s7,56(sp)
   1086c:	7c42                	ld	s8,48(sp)
   1086e:	7ca2                	ld	s9,40(sp)
   10870:	7d02                	ld	s10,32(sp)
   10872:	6de2                	ld	s11,24(sp)
   10874:	6109                	addi	sp,sp,128
   10876:	8082                	ret

0000000000010878 <_Z18apply_benes_customPhPKhi>:
   10878:	b8010113          	addi	sp,sp,-1152
   1087c:	47213023          	sd	s2,1120(sp)
   10880:	01010913          	addi	s2,sp,16
   10884:	46813823          	sd	s0,1136(sp)
   10888:	46913423          	sd	s1,1128(sp)
   1088c:	45313c23          	sd	s3,1112(sp)
   10890:	45413823          	sd	s4,1104(sp)
   10894:	45513423          	sd	s5,1096(sp)
   10898:	46113c23          	sd	ra,1144(sp)
   1089c:	45613023          	sd	s6,1088(sp)
   108a0:	43713c23          	sd	s7,1080(sp)
   108a4:	43813823          	sd	s8,1072(sp)
   108a8:	43913423          	sd	s9,1064(sp)
   108ac:	43a13023          	sd	s10,1056(sp)
   108b0:	41b13c23          	sd	s11,1048(sp)
   108b4:	8a2a                	mv	s4,a0
   108b6:	e02e                	sd	a1,0(sp)
   108b8:	8ab2                	mv	s5,a2
   108ba:	21010993          	addi	s3,sp,528
   108be:	844a                	mv	s0,s2
   108c0:	84aa                	mv	s1,a0
   108c2:	8526                	mv	a0,s1
   108c4:	0cc060ef          	jal	ra,16990 <_Z5load8PKh>
   108c8:	e008                	sd	a0,0(s0)
   108ca:	0421                	addi	s0,s0,8
   108cc:	04a1                	addi	s1,s1,8
   108ce:	fe899ae3          	bne	s3,s0,108c2 <_Z18apply_benes_customPhPKhi+0x4a>
   108d2:	10000b13          	li	s6,256
   108d6:	000a8a63          	beqz	s5,108ea <_Z18apply_benes_customPhPKhi+0x72>
   108da:	6702                	ld	a4,0(sp)
   108dc:	6785                	lui	a5,0x1
   108de:	60078793          	addi	a5,a5,1536 # 1600 <exit-0xeae8>
   108e2:	97ba                	add	a5,a5,a4
   108e4:	e03e                	sd	a5,0(sp)
   108e6:	f0000b13          	li	s6,-256
   108ea:	080c                	addi	a1,sp,16
   108ec:	852e                	mv	a0,a1
   108ee:	727050ef          	jal	ra,16814 <_Z22transpose_64x64_customPmS_>
   108f2:	6b82                	ld	s7,0(sp)
   108f4:	4a81                	li	s5,0
   108f6:	41010413          	addi	s0,sp,1040
   108fa:	4d05                	li	s10,1
   108fc:	03f00493          	li	s1,63
   10900:	4c19                	li	s8,6
   10902:	8cde                	mv	s9,s7
   10904:	8dce                	mv	s11,s3
   10906:	8566                	mv	a0,s9
   10908:	024060ef          	jal	ra,1692c <_Z5load4PKh>
   1090c:	1502                	slli	a0,a0,0x20
   1090e:	9101                	srli	a0,a0,0x20
   10910:	00adb023          	sd	a0,0(s11)
   10914:	0da1                	addi	s11,s11,8
   10916:	0c91                	addi	s9,s9,4
   10918:	ffb417e3          	bne	s0,s11,10906 <_Z18apply_benes_customPhPKhi+0x8e>
   1091c:	854e                	mv	a0,s3
   1091e:	85ce                	mv	a1,s3
   10920:	6f5050ef          	jal	ra,16814 <_Z22transpose_64x64_customPmS_>
   10924:	015d1e3b          	sllw	t3,s10,s5
   10928:	001e131b          	slliw	t1,t3,0x1
   1092c:	00331f13          	slli	t5,t1,0x3
   10930:	003e1e93          	slli	t4,t3,0x3
   10934:	01010813          	addi	a6,sp,16
   10938:	854e                	mv	a0,s3
   1093a:	4881                	li	a7,0
   1093c:	8642                	mv	a2,a6
   1093e:	010e86b3          	add	a3,t4,a6
   10942:	8772                	mv	a4,t3
   10944:	05a777d7          	vsetvli	a5,a4,e64,m4,ta,mu
   10948:	02067e07          	vle64.v	v28,(a2)
   1094c:	0206fc07          	vle64.v	v24,(a3)
   10950:	02057407          	vle64.v	v8,(a0)
   10954:	00379593          	slli	a1,a5,0x3
   10958:	2fcc0657          	vxor.vv	v12,v28,v24
   1095c:	8f1d                	sub	a4,a4,a5
   1095e:	26860457          	vand.vv	v8,v8,v12
   10962:	2fc40e57          	vxor.vv	v28,v28,v8
   10966:	2f840c57          	vxor.vv	v24,v24,v8
   1096a:	02067e27          	vse64.v	v28,(a2)
   1096e:	0206fc27          	vse64.v	v24,(a3)
   10972:	962e                	add	a2,a2,a1
   10974:	96ae                	add	a3,a3,a1
   10976:	952e                	add	a0,a0,a1
   10978:	f771                	bnez	a4,10944 <_Z18apply_benes_customPhPKhi+0xcc>
   1097a:	011308bb          	addw	a7,t1,a7
   1097e:	987a                	add	a6,a6,t5
   10980:	fb14dee3          	bge	s1,a7,1093c <_Z18apply_benes_customPhPKhi+0xc4>
   10984:	2a85                	addiw	s5,s5,1
   10986:	9bda                	add	s7,s7,s6
   10988:	f78a9de3          	bne	s5,s8,10902 <_Z18apply_benes_customPhPKhi+0x8a>
   1098c:	6702                	ld	a4,0(sp)
   1098e:	001b1793          	slli	a5,s6,0x1
   10992:	97da                	add	a5,a5,s6
   10994:	0786                	slli	a5,a5,0x1
   10996:	080c                	addi	a1,sp,16
   10998:	e43e                	sd	a5,8(sp)
   1099a:	852e                	mv	a0,a1
   1099c:	97ba                	add	a5,a5,a4
   1099e:	8c3e                	mv	s8,a5
   109a0:	e03e                	sd	a5,0(sp)
   109a2:	4b81                	li	s7,0
   109a4:	671050ef          	jal	ra,16814 <_Z22transpose_64x64_customPmS_>
   109a8:	10098493          	addi	s1,s3,256
   109ac:	4d85                	li	s11,1
   109ae:	03f00a93          	li	s5,63
   109b2:	8d62                	mv	s10,s8
   109b4:	8cce                	mv	s9,s3
   109b6:	856a                	mv	a0,s10
   109b8:	7d9050ef          	jal	ra,16990 <_Z5load8PKh>
   109bc:	00acb023          	sd	a0,0(s9)
   109c0:	0ca1                	addi	s9,s9,8
   109c2:	0d21                	addi	s10,s10,8
   109c4:	ff9499e3          	bne	s1,s9,109b6 <_Z18apply_benes_customPhPKhi+0x13e>
   109c8:	017d9e3b          	sllw	t3,s11,s7
   109cc:	001e131b          	slliw	t1,t3,0x1
   109d0:	00331f13          	slli	t5,t1,0x3
   109d4:	003e1e93          	slli	t4,t3,0x3
   109d8:	01010813          	addi	a6,sp,16
   109dc:	854e                	mv	a0,s3
   109de:	4881                	li	a7,0
   109e0:	8642                	mv	a2,a6
   109e2:	010e86b3          	add	a3,t4,a6
   109e6:	8772                	mv	a4,t3
   109e8:	05a777d7          	vsetvli	a5,a4,e64,m4,ta,mu
   109ec:	02067e07          	vle64.v	v28,(a2)
   109f0:	0206fc07          	vle64.v	v24,(a3)
   109f4:	02057407          	vle64.v	v8,(a0)
   109f8:	00379593          	slli	a1,a5,0x3
   109fc:	2fcc0657          	vxor.vv	v12,v28,v24
   10a00:	8f1d                	sub	a4,a4,a5
   10a02:	26860457          	vand.vv	v8,v8,v12
   10a06:	2fc40e57          	vxor.vv	v28,v28,v8
   10a0a:	2f840c57          	vxor.vv	v24,v24,v8
   10a0e:	02067e27          	vse64.v	v28,(a2)
   10a12:	0206fc27          	vse64.v	v24,(a3)
   10a16:	962e                	add	a2,a2,a1
   10a18:	96ae                	add	a3,a3,a1
   10a1a:	952e                	add	a0,a0,a1
   10a1c:	f771                	bnez	a4,109e8 <_Z18apply_benes_customPhPKhi+0x170>
   10a1e:	011308bb          	addw	a7,t1,a7
   10a22:	987a                	add	a6,a6,t5
   10a24:	fb1adee3          	bge	s5,a7,109e0 <_Z18apply_benes_customPhPKhi+0x168>
   10a28:	2b85                	addiw	s7,s7,1
   10a2a:	4799                	li	a5,6
   10a2c:	9c5a                	add	s8,s8,s6
   10a2e:	f8fb92e3          	bne	s7,a5,109b2 <_Z18apply_benes_customPhPKhi+0x13a>
   10a32:	6782                	ld	a5,0(sp)
   10a34:	6722                	ld	a4,8(sp)
   10a36:	4b91                	li	s7,4
   10a38:	4d85                	li	s11,1
   10a3a:	97ba                	add	a5,a5,a4
   10a3c:	e03e                	sd	a5,0(sp)
   10a3e:	8c3e                	mv	s8,a5
   10a40:	03f00a93          	li	s5,63
   10a44:	8d62                	mv	s10,s8
   10a46:	8cce                	mv	s9,s3
   10a48:	856a                	mv	a0,s10
   10a4a:	747050ef          	jal	ra,16990 <_Z5load8PKh>
   10a4e:	00acb023          	sd	a0,0(s9)
   10a52:	0ca1                	addi	s9,s9,8
   10a54:	0d21                	addi	s10,s10,8
   10a56:	ff9499e3          	bne	s1,s9,10a48 <_Z18apply_benes_customPhPKhi+0x1d0>
   10a5a:	017d9e3b          	sllw	t3,s11,s7
   10a5e:	001e131b          	slliw	t1,t3,0x1
   10a62:	00331f13          	slli	t5,t1,0x3
   10a66:	003e1e93          	slli	t4,t3,0x3
   10a6a:	01010813          	addi	a6,sp,16
   10a6e:	854e                	mv	a0,s3
   10a70:	4881                	li	a7,0
   10a72:	8642                	mv	a2,a6
   10a74:	010e86b3          	add	a3,t4,a6
   10a78:	8772                	mv	a4,t3
   10a7a:	05a777d7          	vsetvli	a5,a4,e64,m4,ta,mu
   10a7e:	02067e07          	vle64.v	v28,(a2)
   10a82:	0206fc07          	vle64.v	v24,(a3)
   10a86:	02057407          	vle64.v	v8,(a0)
   10a8a:	00379593          	slli	a1,a5,0x3
   10a8e:	2fcc0657          	vxor.vv	v12,v28,v24
   10a92:	8f1d                	sub	a4,a4,a5
   10a94:	26860457          	vand.vv	v8,v8,v12
   10a98:	2fc40e57          	vxor.vv	v28,v28,v8
   10a9c:	2f840c57          	vxor.vv	v24,v24,v8
   10aa0:	02067e27          	vse64.v	v28,(a2)
   10aa4:	0206fc27          	vse64.v	v24,(a3)
   10aa8:	962e                	add	a2,a2,a1
   10aaa:	96ae                	add	a3,a3,a1
   10aac:	952e                	add	a0,a0,a1
   10aae:	f771                	bnez	a4,10a7a <_Z18apply_benes_customPhPKhi+0x202>
   10ab0:	011308bb          	addw	a7,t1,a7
   10ab4:	987a                	add	a6,a6,t5
   10ab6:	fb1adee3          	bge	s5,a7,10a72 <_Z18apply_benes_customPhPKhi+0x1fa>
   10aba:	3bfd                	addiw	s7,s7,-1
   10abc:	57fd                	li	a5,-1
   10abe:	9c5a                	add	s8,s8,s6
   10ac0:	f8fb92e3          	bne	s7,a5,10a44 <_Z18apply_benes_customPhPKhi+0x1cc>
   10ac4:	6782                	ld	a5,0(sp)
   10ac6:	080c                	addi	a1,sp,16
   10ac8:	002b1b93          	slli	s7,s6,0x2
   10acc:	9bda                	add	s7,s7,s6
   10ace:	852e                	mv	a0,a1
   10ad0:	9bbe                	add	s7,s7,a5
   10ad2:	4a95                	li	s5,5
   10ad4:	541050ef          	jal	ra,16814 <_Z22transpose_64x64_customPmS_>
   10ad8:	4c85                	li	s9,1
   10ada:	03f00493          	li	s1,63
   10ade:	5c7d                	li	s8,-1
   10ae0:	8dde                	mv	s11,s7
   10ae2:	8d4e                	mv	s10,s3
   10ae4:	856e                	mv	a0,s11
   10ae6:	647050ef          	jal	ra,1692c <_Z5load4PKh>
   10aea:	1502                	slli	a0,a0,0x20
   10aec:	9101                	srli	a0,a0,0x20
   10aee:	00ad3023          	sd	a0,0(s10)
   10af2:	0d21                	addi	s10,s10,8
   10af4:	0d91                	addi	s11,s11,4
   10af6:	ffa417e3          	bne	s0,s10,10ae4 <_Z18apply_benes_customPhPKhi+0x26c>
   10afa:	854e                	mv	a0,s3
   10afc:	85ce                	mv	a1,s3
   10afe:	517050ef          	jal	ra,16814 <_Z22transpose_64x64_customPmS_>
   10b02:	015c9e3b          	sllw	t3,s9,s5
   10b06:	001e131b          	slliw	t1,t3,0x1
   10b0a:	00331f13          	slli	t5,t1,0x3
   10b0e:	003e1e93          	slli	t4,t3,0x3
   10b12:	01010813          	addi	a6,sp,16
   10b16:	854e                	mv	a0,s3
   10b18:	4881                	li	a7,0
   10b1a:	8642                	mv	a2,a6
   10b1c:	010e86b3          	add	a3,t4,a6
   10b20:	8772                	mv	a4,t3
   10b22:	05a777d7          	vsetvli	a5,a4,e64,m4,ta,mu
   10b26:	02067e07          	vle64.v	v28,(a2)
   10b2a:	0206fc07          	vle64.v	v24,(a3)
   10b2e:	02057407          	vle64.v	v8,(a0)
   10b32:	00379593          	slli	a1,a5,0x3
   10b36:	2fcc0657          	vxor.vv	v12,v28,v24
   10b3a:	8f1d                	sub	a4,a4,a5
   10b3c:	26860457          	vand.vv	v8,v8,v12
   10b40:	2fc40e57          	vxor.vv	v28,v28,v8
   10b44:	2f840c57          	vxor.vv	v24,v24,v8
   10b48:	02067e27          	vse64.v	v28,(a2)
   10b4c:	0206fc27          	vse64.v	v24,(a3)
   10b50:	962e                	add	a2,a2,a1
   10b52:	96ae                	add	a3,a3,a1
   10b54:	952e                	add	a0,a0,a1
   10b56:	f771                	bnez	a4,10b22 <_Z18apply_benes_customPhPKhi+0x2aa>
   10b58:	011308bb          	addw	a7,t1,a7
   10b5c:	987a                	add	a6,a6,t5
   10b5e:	fb14dee3          	bge	s1,a7,10b1a <_Z18apply_benes_customPhPKhi+0x2a2>
   10b62:	3afd                	addiw	s5,s5,-1
   10b64:	9bda                	add	s7,s7,s6
   10b66:	f78a9de3          	bne	s5,s8,10ae0 <_Z18apply_benes_customPhPKhi+0x268>
   10b6a:	080c                	addi	a1,sp,16
   10b6c:	852e                	mv	a0,a1
   10b6e:	4a7050ef          	jal	ra,16814 <_Z22transpose_64x64_customPmS_>
   10b72:	00093583          	ld	a1,0(s2)
   10b76:	8552                	mv	a0,s4
   10b78:	0921                	addi	s2,s2,8
   10b7a:	5d9050ef          	jal	ra,16952 <_Z6store8Phm>
   10b7e:	0a21                	addi	s4,s4,8
   10b80:	ff2999e3          	bne	s3,s2,10b72 <_Z18apply_benes_customPhPKhi+0x2fa>
   10b84:	47813083          	ld	ra,1144(sp)
   10b88:	47013403          	ld	s0,1136(sp)
   10b8c:	46813483          	ld	s1,1128(sp)
   10b90:	46013903          	ld	s2,1120(sp)
   10b94:	45813983          	ld	s3,1112(sp)
   10b98:	45013a03          	ld	s4,1104(sp)
   10b9c:	44813a83          	ld	s5,1096(sp)
   10ba0:	44013b03          	ld	s6,1088(sp)
   10ba4:	43813b83          	ld	s7,1080(sp)
   10ba8:	43013c03          	ld	s8,1072(sp)
   10bac:	42813c83          	ld	s9,1064(sp)
   10bb0:	42013d03          	ld	s10,1056(sp)
   10bb4:	41813d83          	ld	s11,1048(sp)
   10bb8:	48010113          	addi	sp,sp,1152
   10bbc:	8082                	ret

0000000000010bbe <_Z18support_gen_customPtPKh>:
   10bbe:	72f9                	lui	t0,0xffffe
   10bc0:	7119                	addi	sp,sp,-128
   10bc2:	7f028293          	addi	t0,t0,2032 # ffffffffffffe7f0 <__BSS_END__+0xfffffffffffd6e80>
   10bc6:	6709                	lui	a4,0x2
   10bc8:	f8a2                	sd	s0,112(sp)
   10bca:	fc5e                	sd	s7,56(sp)
   10bcc:	f862                	sd	s8,48(sp)
   10bce:	f466                	sd	s9,40(sp)
   10bd0:	fc86                	sd	ra,120(sp)
   10bd2:	f4a6                	sd	s1,104(sp)
   10bd4:	f0ca                	sd	s2,96(sp)
   10bd6:	ecce                	sd	s3,88(sp)
   10bd8:	e8d2                	sd	s4,80(sp)
   10bda:	e4d6                	sd	s5,72(sp)
   10bdc:	e0da                	sd	s6,64(sp)
   10bde:	f06a                	sd	s10,32(sp)
   10be0:	ec6e                	sd	s11,24(sp)
   10be2:	77fd                	lui	a5,0xfffff
   10be4:	9116                	add	sp,sp,t0
   10be6:	80070713          	addi	a4,a4,-2048 # 1800 <exit-0xe8e8>
   10bea:	973e                	add	a4,a4,a5
   10bec:	101c                	addi	a5,sp,32
   10bee:	97ba                	add	a5,a5,a4
   10bf0:	6609                	lui	a2,0x2
   10bf2:	8c2a                	mv	s8,a0
   10bf4:	8bae                	mv	s7,a1
   10bf6:	80060613          	addi	a2,a2,-2048 # 1800 <exit-0xe8e8>
   10bfa:	4581                	li	a1,0
   10bfc:	80078513          	addi	a0,a5,-2048 # ffffffffffffe800 <__BSS_END__+0xfffffffffffd6e90>
   10c00:	e43e                	sd	a5,8(sp)
   10c02:	4401                	li	s0,0
   10c04:	58a060ef          	jal	ra,1718e <memset>
   10c08:	6c85                	lui	s9,0x1
   10c0a:	e862                	sd	s8,16(sp)
   10c0c:	ec5e                	sd	s7,24(sp)
   10c0e:	03041513          	slli	a0,s0,0x30
   10c12:	9141                	srli	a0,a0,0x30
   10c14:	5bb050ef          	jal	ra,169ce <_Z6bitrevt>
   10c18:	6722                	ld	a4,8(sp)
   10c1a:	40345793          	srai	a5,s0,0x3
   10c1e:	4015531b          	sraiw	t1,a0,0x1
   10c22:	97ba                	add	a5,a5,a4
   10c24:	00fc86b3          	add	a3,s9,a5
   10c28:	e006c703          	lbu	a4,-512(a3)
   10c2c:	4025589b          	sraiw	a7,a0,0x2
   10c30:	4035581b          	sraiw	a6,a0,0x3
   10c34:	4045559b          	sraiw	a1,a0,0x4
   10c38:	4055561b          	sraiw	a2,a0,0x5
   10c3c:	4065539b          	sraiw	t2,a0,0x6
   10c40:	4075529b          	sraiw	t0,a0,0x7
   10c44:	40855f9b          	sraiw	t6,a0,0x8
   10c48:	40955f1b          	sraiw	t5,a0,0x9
   10c4c:	40a55e9b          	sraiw	t4,a0,0xa
   10c50:	40b55e1b          	sraiw	t3,a0,0xb
   10c54:	e03a                	sd	a4,0(sp)
   10c56:	8905                	andi	a0,a0,1
   10c58:	00747713          	andi	a4,s0,7
   10c5c:	00137313          	andi	t1,t1,1
   10c60:	0018f893          	andi	a7,a7,1
   10c64:	00187813          	andi	a6,a6,1
   10c68:	8985                	andi	a1,a1,1
   10c6a:	8a05                	andi	a2,a2,1
   10c6c:	0013f393          	andi	t2,t2,1
   10c70:	0012f293          	andi	t0,t0,1
   10c74:	001fff93          	andi	t6,t6,1
   10c78:	001f7f13          	andi	t5,t5,1
   10c7c:	001efe93          	andi	t4,t4,1
   10c80:	001e7e13          	andi	t3,t3,1
   10c84:	8007ca83          	lbu	s5,-2048(a5)
   10c88:	a007cd83          	lbu	s11,-1536(a5)
   10c8c:	c007cd03          	lbu	s10,-1024(a5)
   10c90:	e007cc03          	lbu	s8,-512(a5)
   10c94:	0007cb83          	lbu	s7,0(a5)
   10c98:	2007cb03          	lbu	s6,512(a5)
   10c9c:	4007ca03          	lbu	s4,1024(a5)
   10ca0:	6007c983          	lbu	s3,1536(a5)
   10ca4:	8006c903          	lbu	s2,-2048(a3)
   10ca8:	a006c483          	lbu	s1,-1536(a3)
   10cac:	c006c083          	lbu	ra,-1024(a3)
   10cb0:	00e5153b          	sllw	a0,a0,a4
   10cb4:	00e3133b          	sllw	t1,t1,a4
   10cb8:	00e898bb          	sllw	a7,a7,a4
   10cbc:	00e8183b          	sllw	a6,a6,a4
   10cc0:	00e595bb          	sllw	a1,a1,a4
   10cc4:	00e6163b          	sllw	a2,a2,a4
   10cc8:	00e393bb          	sllw	t2,t2,a4
   10ccc:	00e292bb          	sllw	t0,t0,a4
   10cd0:	00ef9fbb          	sllw	t6,t6,a4
   10cd4:	00ef1f3b          	sllw	t5,t5,a4
   10cd8:	00ee9ebb          	sllw	t4,t4,a4
   10cdc:	00ee1e3b          	sllw	t3,t3,a4
   10ce0:	6702                	ld	a4,0(sp)
   10ce2:	00aaeab3          	or	s5,s5,a0
   10ce6:	006de333          	or	t1,s11,t1
   10cea:	011d68b3          	or	a7,s10,a7
   10cee:	010c6833          	or	a6,s8,a6
   10cf2:	00bbe5b3          	or	a1,s7,a1
   10cf6:	00cb6633          	or	a2,s6,a2
   10cfa:	007a6a33          	or	s4,s4,t2
   10cfe:	0059e9b3          	or	s3,s3,t0
   10d02:	01f96933          	or	s2,s2,t6
   10d06:	01e4e4b3          	or	s1,s1,t5
   10d0a:	01d0e0b3          	or	ra,ra,t4
   10d0e:	01c76733          	or	a4,a4,t3
   10d12:	81578023          	sb	s5,-2048(a5)
   10d16:	a0678023          	sb	t1,-1536(a5)
   10d1a:	c1178023          	sb	a7,-1024(a5)
   10d1e:	e1078023          	sb	a6,-512(a5)
   10d22:	00b78023          	sb	a1,0(a5)
   10d26:	20c78023          	sb	a2,512(a5)
   10d2a:	41478023          	sb	s4,1024(a5)
   10d2e:	61378023          	sb	s3,1536(a5)
   10d32:	81268023          	sb	s2,-2048(a3)
   10d36:	a0968023          	sb	s1,-1536(a3)
   10d3a:	c0168023          	sb	ra,-1024(a3)
   10d3e:	e0e68023          	sb	a4,-512(a3)
   10d42:	2405                	addiw	s0,s0,1
   10d44:	ed9415e3          	bne	s0,s9,10c0e <_Z18support_gen_customPtPKh+0x50>
   10d48:	6709                	lui	a4,0x2
   10d4a:	747d                	lui	s0,0xfffff
   10d4c:	80040413          	addi	s0,s0,-2048 # ffffffffffffe800 <__BSS_END__+0xfffffffffffd6e90>
   10d50:	80070793          	addi	a5,a4,-2048 # 1800 <exit-0xe8e8>
   10d54:	6c42                	ld	s8,16(sp)
   10d56:	6be2                	ld	s7,24(sp)
   10d58:	1014                	addi	a3,sp,32
   10d5a:	97a2                	add	a5,a5,s0
   10d5c:	80070493          	addi	s1,a4,-2048
   10d60:	00d78433          	add	s0,a5,a3
   10d64:	94b6                	add	s1,s1,a3
   10d66:	8522                	mv	a0,s0
   10d68:	4601                	li	a2,0
   10d6a:	20040413          	addi	s0,s0,512
   10d6e:	85de                	mv	a1,s7
   10d70:	b09ff0ef          	jal	ra,10878 <_Z18apply_benes_customPhPKhi>
   10d74:	fe8499e3          	bne	s1,s0,10d66 <_Z18support_gen_customPtPKh+0x1a8>
   10d78:	6709                	lui	a4,0x2
   10d7a:	77fd                	lui	a5,0xfffff
   10d7c:	80070713          	addi	a4,a4,-2048 # 1800 <exit-0xe8e8>
   10d80:	973e                	add	a4,a4,a5
   10d82:	101c                	addi	a5,sp,32
   10d84:	6885                	lui	a7,0x1
   10d86:	97ba                	add	a5,a5,a4
   10d88:	8862                	mv	a6,s8
   10d8a:	4501                	li	a0,0
   10d8c:	e03e                	sd	a5,0(sp)
   10d8e:	da088313          	addi	t1,a7,-608 # da0 <exit-0xf348>
   10d92:	6782                	ld	a5,0(sp)
   10d94:	40355713          	srai	a4,a0,0x3
   10d98:	0809                	addi	a6,a6,2
   10d9a:	973e                	add	a4,a4,a5
   10d9c:	00e88e33          	add	t3,a7,a4
   10da0:	e00e4683          	lbu	a3,-512(t3)
   10da4:	c00e4583          	lbu	a1,-1024(t3)
   10da8:	00757793          	andi	a5,a0,7
   10dac:	a00e4603          	lbu	a2,-1536(t3)
   10db0:	40f6d6bb          	sraw	a3,a3,a5
   10db4:	40f5d5bb          	sraw	a1,a1,a5
   10db8:	0016969b          	slliw	a3,a3,0x1
   10dbc:	8985                	andi	a1,a1,1
   10dbe:	800e4e03          	lbu	t3,-2048(t3)
   10dc2:	8a89                	andi	a3,a3,2
   10dc4:	8ecd                	or	a3,a3,a1
   10dc6:	40f6563b          	sraw	a2,a2,a5
   10dca:	60074583          	lbu	a1,1536(a4)
   10dce:	8a05                	andi	a2,a2,1
   10dd0:	0016969b          	slliw	a3,a3,0x1
   10dd4:	8ed1                	or	a3,a3,a2
   10dd6:	40fe5e3b          	sraw	t3,t3,a5
   10dda:	40074603          	lbu	a2,1024(a4)
   10dde:	0016969b          	slliw	a3,a3,0x1
   10de2:	001e7e13          	andi	t3,t3,1
   10de6:	00de6e33          	or	t3,t3,a3
   10dea:	40f5d5bb          	sraw	a1,a1,a5
   10dee:	20074683          	lbu	a3,512(a4)
   10df2:	001e1e1b          	slliw	t3,t3,0x1
   10df6:	8985                	andi	a1,a1,1
   10df8:	01c5e5b3          	or	a1,a1,t3
   10dfc:	40f6563b          	sraw	a2,a2,a5
   10e00:	00074e03          	lbu	t3,0(a4)
   10e04:	0015959b          	slliw	a1,a1,0x1
   10e08:	8a05                	andi	a2,a2,1
   10e0a:	8e4d                	or	a2,a2,a1
   10e0c:	40f6d6bb          	sraw	a3,a3,a5
   10e10:	e0074583          	lbu	a1,-512(a4)
   10e14:	0016161b          	slliw	a2,a2,0x1
   10e18:	8a85                	andi	a3,a3,1
   10e1a:	8ed1                	or	a3,a3,a2
   10e1c:	40fe5e3b          	sraw	t3,t3,a5
   10e20:	c0074603          	lbu	a2,-1024(a4)
   10e24:	0016969b          	slliw	a3,a3,0x1
   10e28:	001e7e13          	andi	t3,t3,1
   10e2c:	00de6e33          	or	t3,t3,a3
   10e30:	40f5d5bb          	sraw	a1,a1,a5
   10e34:	a0074683          	lbu	a3,-1536(a4)
   10e38:	001e1e1b          	slliw	t3,t3,0x1
   10e3c:	8985                	andi	a1,a1,1
   10e3e:	01c5e5b3          	or	a1,a1,t3
   10e42:	40f6563b          	sraw	a2,a2,a5
   10e46:	80074e03          	lbu	t3,-2048(a4)
   10e4a:	8a05                	andi	a2,a2,1
   10e4c:	0015971b          	slliw	a4,a1,0x1
   10e50:	8e59                	or	a2,a2,a4
   10e52:	40f6d73b          	sraw	a4,a3,a5
   10e56:	8b05                	andi	a4,a4,1
   10e58:	0016169b          	slliw	a3,a2,0x1
   10e5c:	8f55                	or	a4,a4,a3
   10e5e:	40fe56bb          	sraw	a3,t3,a5
   10e62:	0017179b          	slliw	a5,a4,0x1
   10e66:	0016f713          	andi	a4,a3,1
   10e6a:	8fd9                	or	a5,a5,a4
   10e6c:	fef81f23          	sh	a5,-2(a6)
   10e70:	2505                	addiw	a0,a0,1
   10e72:	f26510e3          	bne	a0,t1,10d92 <_Z18support_gen_customPtPKh+0x1d4>
   10e76:	6289                	lui	t0,0x2
   10e78:	81028293          	addi	t0,t0,-2032 # 1810 <exit-0xe8d8>
   10e7c:	9116                	add	sp,sp,t0
   10e7e:	70e6                	ld	ra,120(sp)
   10e80:	7446                	ld	s0,112(sp)
   10e82:	74a6                	ld	s1,104(sp)
   10e84:	7906                	ld	s2,96(sp)
   10e86:	69e6                	ld	s3,88(sp)
   10e88:	6a46                	ld	s4,80(sp)
   10e8a:	6aa6                	ld	s5,72(sp)
   10e8c:	6b06                	ld	s6,64(sp)
   10e8e:	7be2                	ld	s7,56(sp)
   10e90:	7c42                	ld	s8,48(sp)
   10e92:	7ca2                	ld	s9,40(sp)
   10e94:	7d02                	ld	s10,32(sp)
   10e96:	6de2                	ld	s11,24(sp)
   10e98:	6109                	addi	sp,sp,128
   10e9a:	8082                	ret

0000000000010e9c <_Z2bmPtS_>:
   10e9c:	dc010113          	addi	sp,sp,-576
   10ea0:	87aa                	mv	a5,a0
   10ea2:	f3ea                	sd	s10,480(sp)
   10ea4:	08200613          	li	a2,130
   10ea8:	8d2e                	mv	s10,a1
   10eaa:	02a8                	addi	a0,sp,328
   10eac:	4581                	li	a1,0
   10eae:	f43e                	sd	a5,40(sp)
   10eb0:	22113c23          	sd	ra,568(sp)
   10eb4:	22913423          	sd	s1,552(sp)
   10eb8:	21313c23          	sd	s3,536(sp)
   10ebc:	21413823          	sd	s4,528(sp)
   10ec0:	21513423          	sd	s5,520(sp)
   10ec4:	22813823          	sd	s0,560(sp)
   10ec8:	23213023          	sd	s2,544(sp)
   10ecc:	21613023          	sd	s6,512(sp)
   10ed0:	ffde                	sd	s7,504(sp)
   10ed2:	fbe2                	sd	s8,496(sp)
   10ed4:	f7e6                	sd	s9,488(sp)
   10ed6:	efee                	sd	s11,472(sp)
   10ed8:	2b6060ef          	jal	ra,1718e <memset>
   10edc:	08200613          	li	a2,130
   10ee0:	4581                	li	a1,0
   10ee2:	0188                	addi	a0,sp,192
   10ee4:	2aa060ef          	jal	ra,1718e <memset>
   10ee8:	4785                	li	a5,1
   10eea:	0cf11023          	sh	a5,192(sp)
   10eee:	14f11523          	sh	a5,330(sp)
   10ef2:	f06a                	sd	s10,32(sp)
   10ef4:	ec02                	sd	zero,24(sp)
   10ef6:	4485                	li	s1,1
   10ef8:	e83e                	sd	a5,16(sp)
   10efa:	e402                	sd	zero,8(sp)
   10efc:	0ba10a93          	addi	s5,sp,186
   10f00:	14210a13          	addi	s4,sp,322
   10f04:	1ca10993          	addi	s3,sp,458
   10f08:	01815b83          	lhu	s7,24(sp)
   10f0c:	04000713          	li	a4,64
   10f10:	87de                	mv	a5,s7
   10f12:	01777463          	bgeu	a4,s7,10f1a <_Z2bmPtS_+0x7e>
   10f16:	04000793          	li	a5,64
   10f1a:	03079413          	slli	s0,a5,0x30
   10f1e:	903d                	srli	s0,s0,0x2f
   10f20:	0c210793          	addi	a5,sp,194
   10f24:	7d82                	ld	s11,32(sp)
   10f26:	943e                	add	s0,s0,a5
   10f28:	0c010913          	addi	s2,sp,192
   10f2c:	8526                	mv	a0,s1
   10f2e:	4b01                	li	s6,0
   10f30:	a019                	j	10f36 <_Z2bmPtS_+0x9a>
   10f32:	00095503          	lhu	a0,0(s2)
   10f36:	000dd583          	lhu	a1,0(s11)
   10f3a:	0909                	addi	s2,s2,2
   10f3c:	1df9                	addi	s11,s11,-2
   10f3e:	249020ef          	jal	ra,13986 <_Z6gf_multt>
   10f42:	01654533          	xor	a0,a0,s6
   10f46:	03051b13          	slli	s6,a0,0x30
   10f4a:	030b5b13          	srli	s6,s6,0x30
   10f4e:	fe8912e3          	bne	s2,s0,10f32 <_Z2bmPtS_+0x96>
   10f52:	67a2                	ld	a5,8(sp)
   10f54:	03810d13          	addi	s10,sp,56
   10f58:	0c210713          	addi	a4,sp,194
   10f5c:	0017941b          	slliw	s0,a5,0x1
   10f60:	408b843b          	subw	s0,s7,s0
   10f64:	fffb079b          	addiw	a5,s6,-1
   10f68:	1442                	slli	s0,s0,0x30
   10f6a:	9041                	srli	s0,s0,0x30
   10f6c:	17c2                	slli	a5,a5,0x30
   10f6e:	93c1                	srli	a5,a5,0x30
   10f70:	803d                	srli	s0,s0,0xf
   10f72:	83bd                	srli	a5,a5,0xf
   10f74:	347d                	addiw	s0,s0,-1
   10f76:	37fd                	addiw	a5,a5,-1 # ffffffffffffefff <__BSS_END__+0xfffffffffffd768f>
   10f78:	1442                	slli	s0,s0,0x30
   10f7a:	03079913          	slli	s2,a5,0x30
   10f7e:	9041                	srli	s0,s0,0x30
   10f80:	8c7d                	and	s0,s0,a5
   10f82:	03095913          	srli	s2,s2,0x30
   10f86:	87ea                	mv	a5,s10
   10f88:	a021                	j	10f90 <_Z2bmPtS_+0xf4>
   10f8a:	00075483          	lhu	s1,0(a4)
   10f8e:	0709                	addi	a4,a4,2
   10f90:	00979023          	sh	s1,0(a5)
   10f94:	0789                	addi	a5,a5,2
   10f96:	fefa9ae3          	bne	s5,a5,10f8a <_Z2bmPtS_+0xee>
   10f9a:	6542                	ld	a0,16(sp)
   10f9c:	85da                	mv	a1,s6
   10f9e:	14810d93          	addi	s11,sp,328
   10fa2:	2be030ef          	jal	ra,14260 <_Z7gf_fractt>
   10fa6:	84aa                	mv	s1,a0
   10fa8:	0c010c13          	addi	s8,sp,192
   10fac:	8cee                	mv	s9,s11
   10fae:	000cd583          	lhu	a1,0(s9) # 1000 <exit-0xf0e8>
   10fb2:	8526                	mv	a0,s1
   10fb4:	0c09                	addi	s8,s8,2 # 1002 <exit-0xf0e6>
   10fb6:	1d1020ef          	jal	ra,13986 <_Z6gf_multt>
   10fba:	ffec5583          	lhu	a1,-2(s8)
   10fbe:	00a97533          	and	a0,s2,a0
   10fc2:	0c89                	addi	s9,s9,2
   10fc4:	8d2d                	xor	a0,a0,a1
   10fc6:	feac1f23          	sh	a0,-2(s8)
   10fca:	ff8a12e3          	bne	s4,s8,10fae <_Z2bmPtS_+0x112>
   10fce:	6722                	ld	a4,8(sp)
   10fd0:	fff44593          	not	a1,s0
   10fd4:	40eb87bb          	subw	a5,s7,a4
   10fd8:	2785                	addiw	a5,a5,1
   10fda:	00e5fc33          	and	s8,a1,a4
   10fde:	8fe1                	and	a5,a5,s0
   10fe0:	15c2                	slli	a1,a1,0x30
   10fe2:	0187e7b3          	or	a5,a5,s8
   10fe6:	91c1                	srli	a1,a1,0x30
   10fe8:	e43e                	sd	a5,8(sp)
   10fea:	000dd683          	lhu	a3,0(s11)
   10fee:	000d5783          	lhu	a5,0(s10)
   10ff2:	0d89                	addi	s11,s11,2
   10ff4:	8eed                	and	a3,a3,a1
   10ff6:	8fe1                	and	a5,a5,s0
   10ff8:	8fd5                	or	a5,a5,a3
   10ffa:	fefd9f23          	sh	a5,-2(s11)
   10ffe:	0d09                	addi	s10,s10,2
   11000:	ff3d95e3          	bne	s11,s3,10fea <_Z2bmPtS_+0x14e>
   11004:	67c2                	ld	a5,16(sp)
   11006:	01647433          	and	s0,s0,s6
   1100a:	08000613          	li	a2,128
   1100e:	8fed                	and	a5,a5,a1
   11010:	8fc1                	or	a5,a5,s0
   11012:	e83e                	sd	a5,16(sp)
   11014:	67e2                	ld	a5,24(sp)
   11016:	02ac                	addi	a1,sp,328
   11018:	14a10513          	addi	a0,sp,330
   1101c:	00178413          	addi	s0,a5,1
   11020:	ec22                	sd	s0,24(sp)
   11022:	094060ef          	jal	ra,170b6 <memmove>
   11026:	7702                	ld	a4,32(sp)
   11028:	14011423          	sh	zero,328(sp)
   1102c:	08000793          	li	a5,128
   11030:	0709                	addi	a4,a4,2
   11032:	f03a                	sd	a4,32(sp)
   11034:	00f40563          	beq	s0,a5,1103e <_Z2bmPtS_+0x1a2>
   11038:	0c015483          	lhu	s1,192(sp)
   1103c:	b5f1                	j	10f08 <_Z2bmPtS_+0x6c>
   1103e:	7722                	ld	a4,40(sp)
   11040:	029c                	addi	a5,sp,320
   11042:	0007d603          	lhu	a2,0(a5)
   11046:	86be                	mv	a3,a5
   11048:	0709                	addi	a4,a4,2
   1104a:	fec71f23          	sh	a2,-2(a4)
   1104e:	0190                	addi	a2,sp,192
   11050:	17f9                	addi	a5,a5,-2
   11052:	fed618e3          	bne	a2,a3,11042 <_Z2bmPtS_+0x1a6>
   11056:	23813083          	ld	ra,568(sp)
   1105a:	23013403          	ld	s0,560(sp)
   1105e:	22813483          	ld	s1,552(sp)
   11062:	22013903          	ld	s2,544(sp)
   11066:	21813983          	ld	s3,536(sp)
   1106a:	21013a03          	ld	s4,528(sp)
   1106e:	20813a83          	ld	s5,520(sp)
   11072:	20013b03          	ld	s6,512(sp)
   11076:	7bfe                	ld	s7,504(sp)
   11078:	7c5e                	ld	s8,496(sp)
   1107a:	7cbe                	ld	s9,488(sp)
   1107c:	7d1e                	ld	s10,480(sp)
   1107e:	6dfe                	ld	s11,472(sp)
   11080:	24010113          	addi	sp,sp,576
   11084:	8082                	ret

0000000000011086 <_Z9bm_customPtS_>:
   11086:	c22022f3          	csrr	t0,vlenb
   1108a:	7141                	addi	sp,sp,-496
   1108c:	40500333          	neg	t1,t0
   11090:	f3a2                	sd	s0,480(sp)
   11092:	efa6                	sd	s1,472(sp)
   11094:	f786                	sd	ra,488(sp)
   11096:	ebca                	sd	s2,464(sp)
   11098:	e7ce                	sd	s3,456(sp)
   1109a:	e3d2                	sd	s4,448(sp)
   1109c:	ff56                	sd	s5,440(sp)
   1109e:	fb5a                	sd	s6,432(sp)
   110a0:	f75e                	sd	s7,424(sp)
   110a2:	6785                	lui	a5,0x1
   110a4:	911a                	add	sp,sp,t1
   110a6:	02810c27          	vs1r.v	v24,(sp)
   110aa:	842a                	mv	s0,a0
   110ac:	84ae                	mv	s1,a1
   110ae:	27a5                	addiw	a5,a5,9 # 1009 <exit-0xf0df>
   110b0:	00f3e7db          	pqccsrrw	a5,a5,7
   110b4:	c2202973          	csrr	s2,vlenb
   110b8:	09290793          	addi	a5,s2,146
   110bc:	00f10533          	add	a0,sp,a5
   110c0:	08000613          	li	a2,128
   110c4:	4581                	li	a1,0
   110c6:	0c8060ef          	jal	ra,1718e <memset>
   110ca:	11890713          	addi	a4,s2,280
   110ce:	00e10833          	add	a6,sp,a4
   110d2:	08200613          	li	a2,130
   110d6:	4581                	li	a1,0
   110d8:	8542                	mv	a0,a6
   110da:	0b4060ef          	jal	ra,1718e <memset>
   110de:	09090693          	addi	a3,s2,144
   110e2:	4785                	li	a5,1
   110e4:	968a                	add	a3,a3,sp
   110e6:	00f69023          	sh	a5,0(a3)
   110ea:	11a90693          	addi	a3,s2,282
   110ee:	09090713          	addi	a4,s2,144
   110f2:	968a                	add	a3,a3,sp
   110f4:	882a                	mv	a6,a0
   110f6:	00f69023          	sh	a5,0(a3)
   110fa:	00e10533          	add	a0,sp,a4
   110fe:	11090793          	addi	a5,s2,272
   11102:	f7870713          	addi	a4,a4,-136
   11106:	4305                	li	t1,1
   11108:	4e01                	li	t3,0
   1110a:	4885                	li	a7,1
   1110c:	4581                	li	a1,0
   1110e:	00e10f33          	add	t5,sp,a4
   11112:	00f10633          	add	a2,sp,a5
   11116:	03f00293          	li	t0,63
   1111a:	04100e93          	li	t4,65
   1111e:	08100f93          	li	t6,129
   11122:	02815c07          	vl1re16.v	v24,(sp)
   11126:	030e1793          	slli	a5,t3,0x30
   1112a:	03031393          	slli	t2,t1,0x30
   1112e:	c080f6d7          	vsetivli	a3,1,e16,m1,tu,mu
   11132:	93c1                	srli	a5,a5,0x30
   11134:	0303d393          	srli	t2,t2,0x30
   11138:	04100713          	li	a4,65
   1113c:	42006c57          	vmv.s.x	v24,zero
   11140:	01c2e363          	bltu	t0,t3,11146 <_Z9bm_customPtS_+0xc0>
   11144:	871a                	mv	a4,t1
   11146:	04b77757          	vsetvli	a4,a4,e16,m8,ta,mu
   1114a:	5208a457          	vid.v	v8
   1114e:	02055807          	vle16.v	v16,(a0)
   11152:	0e87c457          	vrsub.vx	v8,v8,a5
   11156:	9680b457          	vsll.vi	v8,v8,1
   1115a:	0684d007          	vluxei16.v	v0,(s1),v8
   1115e:	3b00082b          	gfmul.vv	v16,v16,v0
   11162:	00b77057          	vsetvli	zero,a4,e16,m8,tu,mu
   11166:	0015969b          	slliw	a3,a1,0x1
   1116a:	0f0c2c57          	vredxor.vs	v24,v16,v24
   1116e:	43802957          	vmv.x.s	s2,v24
   11172:	1942                	slli	s2,s2,0x30
   11174:	40d786bb          	subw	a3,a5,a3
   11178:	03095913          	srli	s2,s2,0x30
   1117c:	fff9079b          	addiw	a5,s2,-1
   11180:	16c2                	slli	a3,a3,0x30
   11182:	92c1                	srli	a3,a3,0x30
   11184:	17c2                	slli	a5,a5,0x30
   11186:	93c1                	srli	a5,a5,0x30
   11188:	82bd                	srli	a3,a3,0xf
   1118a:	83bd                	srli	a5,a5,0xf
   1118c:	36fd                	addiw	a3,a3,-1
   1118e:	37fd                	addiw	a5,a5,-1
   11190:	16c2                	slli	a3,a3,0x30
   11192:	03079b13          	slli	s6,a5,0x30
   11196:	92c1                	srli	a3,a3,0x30
   11198:	8efd                	and	a3,a3,a5
   1119a:	030b5b13          	srli	s6,s6,0x30
   1119e:	87aa                	mv	a5,a0
   111a0:	877a                	mv	a4,t5
   111a2:	0087ba83          	ld	s5,8(a5)
   111a6:	0107ba03          	ld	s4,16(a5)
   111aa:	0187b983          	ld	s3,24(a5)
   111ae:	0007bb83          	ld	s7,0(a5)
   111b2:	01573423          	sd	s5,8(a4)
   111b6:	01473823          	sd	s4,16(a4)
   111ba:	01773023          	sd	s7,0(a4)
   111be:	01373c23          	sd	s3,24(a4)
   111c2:	02078793          	addi	a5,a5,32
   111c6:	02070713          	addi	a4,a4,32
   111ca:	fcc79ce3          	bne	a5,a2,111a2 <_Z9bm_customPtS_+0x11c>
   111ce:	00065783          	lhu	a5,0(a2)
   111d2:	00f71023          	sh	a5,0(a4)
   111d6:	2008e7db          	gfinv	a5,a7
   111da:	3787ac2b          	gfmul.vx	v24,v24,a5
   111de:	c4807057          	vsetivli	zero,0,e16,m1,ta,mu
   111e2:	438027d7          	vmv.x.s	a5,v24
   111e6:	04bef757          	vsetvli	a4,t4,e16,m8,ta,mu
   111ea:	02085407          	vle16.v	v8,(a6)
   111ee:	02055807          	vle16.v	v16,(a0)
   111f2:	3687a42b          	gfmul.vx	v8,v8,a5
   111f6:	fff6c793          	not	a5,a3
   111fa:	40b383bb          	subw	t2,t2,a1
   111fe:	0076f9b3          	and	s3,a3,t2
   11202:	8dfd                	and	a1,a1,a5
   11204:	0117f8b3          	and	a7,a5,a7
   11208:	83be                	mv	t2,a5
   1120a:	c22027f3          	csrr	a5,vlenb
   1120e:	00d97933          	and	s2,s2,a3
   11212:	19678793          	addi	a5,a5,406
   11216:	04b77057          	vsetvli	zero,a4,e16,m8,ta,mu
   1121a:	00b9e5b3          	or	a1,s3,a1
   1121e:	268b4457          	vand.vx	v8,v8,s6
   11222:	0128e8b3          	or	a7,a7,s2
   11226:	2f040857          	vxor.vv	v16,v16,v8
   1122a:	978a                	add	a5,a5,sp
   1122c:	02055827          	vse16.v	v16,(a0)
   11230:	02085407          	vle16.v	v8,(a6)
   11234:	020f5807          	vle16.v	v16,(t5)
   11238:	2683c457          	vand.vx	v8,v8,t2
   1123c:	2706c857          	vand.vx	v16,v16,a3
   11240:	2a880457          	vor.vv	v8,v8,v16
   11244:	02085427          	vse16.v	v8,(a6)
   11248:	0007d683          	lhu	a3,0(a5)
   1124c:	873e                	mv	a4,a5
   1124e:	17f9                	addi	a5,a5,-2
   11250:	00d79223          	sh	a3,4(a5)
   11254:	fee81ae3          	bne	a6,a4,11248 <_Z9bm_customPtS_+0x1c2>
   11258:	c22027f3          	csrr	a5,vlenb
   1125c:	11878793          	addi	a5,a5,280
   11260:	978a                	add	a5,a5,sp
   11262:	00079023          	sh	zero,0(a5)
   11266:	0305                	addi	t1,t1,1 # 101ad <frame_dummy+0x13>
   11268:	2e05                	addiw	t3,t3,1
   1126a:	ebf31ee3          	bne	t1,t6,11126 <_Z9bm_customPtS_+0xa0>
   1126e:	00065703          	lhu	a4,0(a2)
   11272:	87b2                	mv	a5,a2
   11274:	0409                	addi	s0,s0,2
   11276:	fee41f23          	sh	a4,-2(s0)
   1127a:	1679                	addi	a2,a2,-2
   1127c:	fef519e3          	bne	a0,a5,1126e <_Z9bm_customPtS_+0x1e8>
   11280:	c22022f3          	csrr	t0,vlenb
   11284:	9116                	add	sp,sp,t0
   11286:	70be                	ld	ra,488(sp)
   11288:	741e                	ld	s0,480(sp)
   1128a:	64fe                	ld	s1,472(sp)
   1128c:	695e                	ld	s2,464(sp)
   1128e:	69be                	ld	s3,456(sp)
   11290:	6a1e                	ld	s4,448(sp)
   11292:	7afa                	ld	s5,440(sp)
   11294:	7b5a                	ld	s6,432(sp)
   11296:	7bba                	ld	s7,424(sp)
   11298:	617d                	addi	sp,sp,496
   1129a:	8082                	ret

000000000001129c <_ZL10int32_sortPix.part.0>:
   1129c:	4789                	li	a5,2
   1129e:	82ae                	mv	t0,a1
   112a0:	8eaa                	mv	t4,a0
   112a2:	4385                	li	t2,1
   112a4:	00b7d763          	bge	a5,a1,112b2 <_ZL10int32_sortPix.part.0+0x16>
   112a8:	0386                	slli	t2,t2,0x1
   112aa:	407287b3          	sub	a5,t0,t2
   112ae:	fef3cde3          	blt	t2,a5,112a8 <_ZL10int32_sortPix.part.0+0xc>
   112b2:	831e                	mv	t1,t2
   112b4:	406288b3          	sub	a7,t0,t1
   112b8:	05105363          	blez	a7,112fe <_ZL10int32_sortPix.part.0+0x62>
   112bc:	00231593          	slli	a1,t1,0x2
   112c0:	95f6                	add	a1,a1,t4
   112c2:	8576                	mv	a0,t4
   112c4:	4701                	li	a4,0
   112c6:	00e377b3          	and	a5,t1,a4
   112ca:	0705                	addi	a4,a4,1
   112cc:	e78d                	bnez	a5,112f6 <_ZL10int32_sortPix.part.0+0x5a>
   112ce:	4190                	lw	a2,0(a1)
   112d0:	00052803          	lw	a6,0(a0)
   112d4:	410607bb          	subw	a5,a2,a6
   112d8:	010646b3          	xor	a3,a2,a6
   112dc:	8e3d                	xor	a2,a2,a5
   112de:	8e75                	and	a2,a2,a3
   112e0:	8fb1                	xor	a5,a5,a2
   112e2:	41f7d79b          	sraiw	a5,a5,0x1f
   112e6:	8ff5                	and	a5,a5,a3
   112e8:	00f84833          	xor	a6,a6,a5
   112ec:	01052023          	sw	a6,0(a0)
   112f0:	4194                	lw	a3,0(a1)
   112f2:	8fb5                	xor	a5,a5,a3
   112f4:	c19c                	sw	a5,0(a1)
   112f6:	0591                	addi	a1,a1,4
   112f8:	0511                	addi	a0,a0,4
   112fa:	fd1716e3          	bne	a4,a7,112c6 <_ZL10int32_sortPix.part.0+0x2a>
   112fe:	8f9e                	mv	t6,t2
   11300:	4881                	li	a7,0
   11302:	06735963          	bge	t1,t2,11374 <_ZL10int32_sortPix.part.0+0xd8>
   11306:	00688e33          	add	t3,a7,t1
   1130a:	0e0a                	slli	t3,t3,0x2
   1130c:	41f28f33          	sub	t5,t0,t6
   11310:	9e76                	add	t3,t3,t4
   11312:	01e8c763          	blt	a7,t5,11320 <_ZL10int32_sortPix.part.0+0x84>
   11316:	a899                	j	1136c <_ZL10int32_sortPix.part.0+0xd0>
   11318:	0885                	addi	a7,a7,1
   1131a:	0e11                	addi	t3,t3,4
   1131c:	05e88863          	beq	a7,t5,1136c <_ZL10int32_sortPix.part.0+0xd0>
   11320:	011377b3          	and	a5,t1,a7
   11324:	fbf5                	bnez	a5,11318 <_ZL10int32_sortPix.part.0+0x7c>
   11326:	000e2583          	lw	a1,0(t3)
   1132a:	03f35b63          	bge	t1,t6,11360 <_ZL10int32_sortPix.part.0+0xc4>
   1132e:	857e                	mv	a0,t6
   11330:	00a88733          	add	a4,a7,a0
   11334:	070a                	slli	a4,a4,0x2
   11336:	9776                	add	a4,a4,t4
   11338:	4314                	lw	a3,0(a4)
   1133a:	8505                	srai	a0,a0,0x1
   1133c:	40b687bb          	subw	a5,a3,a1
   11340:	00b6c633          	xor	a2,a3,a1
   11344:	00f6c833          	xor	a6,a3,a5
   11348:	01067833          	and	a6,a2,a6
   1134c:	0107c7b3          	xor	a5,a5,a6
   11350:	41f7d79b          	sraiw	a5,a5,0x1f
   11354:	8ff1                	and	a5,a5,a2
   11356:	8ebd                	xor	a3,a3,a5
   11358:	c314                	sw	a3,0(a4)
   1135a:	8dbd                	xor	a1,a1,a5
   1135c:	fca34ae3          	blt	t1,a0,11330 <_ZL10int32_sortPix.part.0+0x94>
   11360:	00be2023          	sw	a1,0(t3)
   11364:	0885                	addi	a7,a7,1
   11366:	0e11                	addi	t3,t3,4
   11368:	fbe89ce3          	bne	a7,t5,11320 <_ZL10int32_sortPix.part.0+0x84>
   1136c:	401fdf93          	srai	t6,t6,0x1
   11370:	f9f34be3          	blt	t1,t6,11306 <_ZL10int32_sortPix.part.0+0x6a>
   11374:	40135313          	srai	t1,t1,0x1
   11378:	f2031ee3          	bnez	t1,112b4 <_ZL10int32_sortPix.part.0+0x18>
   1137c:	8082                	ret

000000000001137e <_ZL11cbrecursionPhxxPKsxxPi>:
   1137e:	7131                	addi	sp,sp,-192
   11380:	f4e6                	sd	s9,104(sp)
   11382:	82ba                	mv	t0,a4
   11384:	fd06                	sd	ra,184(sp)
   11386:	f922                	sd	s0,176(sp)
   11388:	f526                	sd	s1,168(sp)
   1138a:	f14a                	sd	s2,160(sp)
   1138c:	ed4e                	sd	s3,152(sp)
   1138e:	e952                	sd	s4,144(sp)
   11390:	e556                	sd	s5,136(sp)
   11392:	e15a                	sd	s6,128(sp)
   11394:	fcde                	sd	s7,120(sp)
   11396:	f8e2                	sd	s8,112(sp)
   11398:	f0ea                	sd	s10,96(sp)
   1139a:	ecee                	sd	s11,88(sp)
   1139c:	4705                	li	a4,1
   1139e:	8caa                	mv	s9,a0
   113a0:	72e28163          	beq	t0,a4,11ac2 <_ZL11cbrecursionPhxxPKsxxPi+0x744>
   113a4:	843e                	mv	s0,a5
   113a6:	ffe28793          	addi	a5,t0,-2
   113aa:	ec3e                	sd	a5,24(sp)
   113ac:	040007b7          	lui	a5,0x4000
   113b0:	fff28b13          	addi	s6,t0,-1
   113b4:	c0078793          	addi	a5,a5,-1024 # 3fffc00 <__BSS_END__+0x3fd8290>
   113b8:	64c1                	lui	s1,0x10
   113ba:	6aa1                	lui	s5,0x8
   113bc:	8d22                	mv	s10,s0
   113be:	8dc2                	mv	s11,a6
   113c0:	f43e                	sd	a5,40(sp)
   113c2:	f016                	sd	t0,32(sp)
   113c4:	e45a                	sd	s6,8(sp)
   113c6:	e82e                	sd	a1,16(sp)
   113c8:	8bb2                	mv	s7,a2
   113ca:	842a                	mv	s0,a0
   113cc:	4a05                	li	s4,1
   113ce:	14fd                	addi	s1,s1,-1 # ffff <exit-0xe9>
   113d0:	1afd                	addi	s5,s5,-1 # 7fff <exit-0x80e9>
   113d2:	8336                	mv	t1,a3
   113d4:	856e                	mv	a0,s11
   113d6:	4601                	li	a2,0
   113d8:	3da05563          	blez	s10,117a2 <_ZL11cbrecursionPhxxPKsxxPi+0x424>
   113dc:	00164713          	xori	a4,a2,1
   113e0:	00035783          	lhu	a5,0(t1)
   113e4:	0706                	slli	a4,a4,0x1
   113e6:	9736                	add	a4,a4,a3
   113e8:	00071703          	lh	a4,0(a4)
   113ec:	0017c793          	xori	a5,a5,1
   113f0:	0107979b          	slliw	a5,a5,0x10
   113f4:	8fd9                	or	a5,a5,a4
   113f6:	c11c                	sw	a5,0(a0)
   113f8:	0605                	addi	a2,a2,1
   113fa:	0309                	addi	t1,t1,2
   113fc:	0511                	addi	a0,a0,4
   113fe:	fda61fe3          	bne	a2,s10,113dc <_ZL11cbrecursionPhxxPKsxxPi+0x5e>
   11402:	014d0863          	beq	s10,s4,11412 <_ZL11cbrecursionPhxxPKsxxPi+0x94>
   11406:	85ea                	mv	a1,s10
   11408:	856e                	mv	a0,s11
   1140a:	f836                	sd	a3,48(sp)
   1140c:	e91ff0ef          	jal	ra,1129c <_ZL10int32_sortPix.part.0>
   11410:	76c2                	ld	a3,48(sp)
   11412:	002d1993          	slli	s3,s10,0x2
   11416:	8e6e                	mv	t3,s11
   11418:	4301                	li	t1,0
   1141a:	000e2703          	lw	a4,0(t3)
   1141e:	0003059b          	sext.w	a1,t1
   11422:	013e0533          	add	a0,t3,s3
   11426:	8f65                	and	a4,a4,s1
   11428:	40e5863b          	subw	a2,a1,a4
   1142c:	00e5c7b3          	xor	a5,a1,a4
   11430:	8db1                	xor	a1,a1,a2
   11432:	8dfd                	and	a1,a1,a5
   11434:	8e2d                	xor	a2,a2,a1
   11436:	41f6561b          	sraiw	a2,a2,0x1f
   1143a:	8ff1                	and	a5,a5,a2
   1143c:	8fb9                	xor	a5,a5,a4
   1143e:	0107171b          	slliw	a4,a4,0x10
   11442:	8fd9                	or	a5,a5,a4
   11444:	c11c                	sw	a5,0(a0)
   11446:	0305                	addi	t1,t1,1
   11448:	0e11                	addi	t3,t3,4
   1144a:	fda318e3          	bne	t1,s10,1141a <_ZL11cbrecursionPhxxPKsxxPi+0x9c>
   1144e:	866e                	mv	a2,s11
   11450:	4701                	li	a4,0
   11452:	421c                	lw	a5,0(a2)
   11454:	0611                	addi	a2,a2,4
   11456:	0107979b          	slliw	a5,a5,0x10
   1145a:	8fd9                	or	a5,a5,a4
   1145c:	fef62e23          	sw	a5,-4(a2)
   11460:	0705                	addi	a4,a4,1
   11462:	ffa718e3          	bne	a4,s10,11452 <_ZL11cbrecursionPhxxPKsxxPi+0xd4>
   11466:	014d0863          	beq	s10,s4,11476 <_ZL11cbrecursionPhxxPKsxxPi+0xf8>
   1146a:	85ea                	mv	a1,s10
   1146c:	856e                	mv	a0,s11
   1146e:	f836                	sd	a3,48(sp)
   11470:	e2dff0ef          	jal	ra,1129c <_ZL10int32_sortPix.part.0>
   11474:	76c2                	ld	a3,48(sp)
   11476:	013d8933          	add	s2,s11,s3
   1147a:	87ee                	mv	a5,s11
   1147c:	4390                	lw	a2,0(a5)
   1147e:	01378733          	add	a4,a5,s3
   11482:	00271703          	lh	a4,2(a4)
   11486:	0106161b          	slliw	a2,a2,0x10
   1148a:	0791                	addi	a5,a5,4
   1148c:	9f31                	addw	a4,a4,a2
   1148e:	fee7ae23          	sw	a4,-4(a5)
   11492:	fef915e3          	bne	s2,a5,1147c <_ZL11cbrecursionPhxxPKsxxPi+0xfe>
   11496:	4f4d0963          	beq	s10,s4,11988 <_ZL11cbrecursionPhxxPKsxxPi+0x60a>
   1149a:	85ea                	mv	a1,s10
   1149c:	856e                	mv	a0,s11
   1149e:	f836                	sd	a3,48(sp)
   114a0:	dfdff0ef          	jal	ra,1129c <_ZL10int32_sortPix.part.0>
   114a4:	7702                	ld	a4,32(sp)
   114a6:	47a9                	li	a5,10
   114a8:	76c2                	ld	a3,48(sp)
   114aa:	4ee7d363          	bge	a5,a4,11990 <_ZL11cbrecursionPhxxPKsxxPi+0x612>
   114ae:	003d1513          	slli	a0,s10,0x3
   114b2:	87ca                	mv	a5,s2
   114b4:	e0ca                	sd	s2,64(sp)
   114b6:	00ad8e33          	add	t3,s11,a0
   114ba:	41300333          	neg	t1,s3
   114be:	00678633          	add	a2,a5,t1
   114c2:	4398                	lw	a4,0(a5)
   114c4:	4210                	lw	a2,0(a2)
   114c6:	0791                	addi	a5,a5,4
   114c8:	8f65                	and	a4,a4,s1
   114ca:	0106161b          	slliw	a2,a2,0x10
   114ce:	8f51                	or	a4,a4,a2
   114d0:	fee7ae23          	sw	a4,-4(a5)
   114d4:	fefe15e3          	bne	t3,a5,114be <_ZL11cbrecursionPhxxPKsxxPi+0x140>
   114d8:	7702                	ld	a4,32(sp)
   114da:	4789                	li	a5,2
   114dc:	62e7de63          	bge	a5,a4,11b18 <_ZL11cbrecursionPhxxPKsxxPi+0x79a>
   114e0:	67a2                	ld	a5,8(sp)
   114e2:	6762                	ld	a4,24(sp)
   114e4:	013d8b33          	add	s6,s11,s3
   114e8:	e0da                	sd	s6,64(sp)
   114ea:	fc3e                	sd	a5,56(sp)
   114ec:	4905                	li	s2,1
   114ee:	30ea4e63          	blt	s4,a4,1180a <_ZL11cbrecursionPhxxPKsxxPi+0x48c>
   114f2:	3fa05363          	blez	s10,118d8 <_ZL11cbrecursionPhxxPKsxxPi+0x55a>
   114f6:	f822                	sd	s0,48(sp)
   114f8:	6c62                	ld	s8,24(sp)
   114fa:	844a                	mv	s0,s2
   114fc:	6922                	ld	s2,8(sp)
   114fe:	87ce                	mv	a5,s3
   11500:	7cc1                	lui	s9,0xffff0
   11502:	89da                	mv	s3,s6
   11504:	e4b6                	sd	a3,72(sp)
   11506:	8b6a                	mv	s6,s10
   11508:	8d3e                	mv	s10,a5
   1150a:	866e                	mv	a2,s11
   1150c:	4701                	li	a4,0
   1150e:	01a607b3          	add	a5,a2,s10
   11512:	439c                	lw	a5,0(a5)
   11514:	0611                	addi	a2,a2,4
   11516:	0197f7b3          	and	a5,a5,s9
   1151a:	8fd9                	or	a5,a5,a4
   1151c:	fef62e23          	sw	a5,-4(a2)
   11520:	0705                	addi	a4,a4,1
   11522:	feeb16e3          	bne	s6,a4,1150e <_ZL11cbrecursionPhxxPKsxxPi+0x190>
   11526:	014b0663          	beq	s6,s4,11532 <_ZL11cbrecursionPhxxPKsxxPi+0x1b4>
   1152a:	85da                	mv	a1,s6
   1152c:	856e                	mv	a0,s11
   1152e:	d6fff0ef          	jal	ra,1129c <_ZL10int32_sortPix.part.0>
   11532:	87ee                	mv	a5,s11
   11534:	01a78733          	add	a4,a5,s10
   11538:	4390                	lw	a2,0(a5)
   1153a:	4318                	lw	a4,0(a4)
   1153c:	0791                	addi	a5,a5,4
   1153e:	0106161b          	slliw	a2,a2,0x10
   11542:	8f65                	and	a4,a4,s1
   11544:	8f51                	or	a4,a4,a2
   11546:	fee7ae23          	sw	a4,-4(a5)
   1154a:	fef995e3          	bne	s3,a5,11534 <_ZL11cbrecursionPhxxPKsxxPi+0x1b6>
   1154e:	27844d63          	blt	s0,s8,117c8 <_ZL11cbrecursionPhxxPKsxxPi+0x44a>
   11552:	014b0663          	beq	s6,s4,1155e <_ZL11cbrecursionPhxxPKsxxPi+0x1e0>
   11556:	85da                	mv	a1,s6
   11558:	856e                	mv	a0,s11
   1155a:	d43ff0ef          	jal	ra,1129c <_ZL10int32_sortPix.part.0>
   1155e:	856e                	mv	a0,s11
   11560:	864e                	mv	a2,s3
   11562:	4218                	lw	a4,0(a2)
   11564:	411c                	lw	a5,0(a0)
   11566:	0511                	addi	a0,a0,4
   11568:	01977833          	and	a6,a4,s9
   1156c:	8fe5                	and	a5,a5,s1
   1156e:	0107e7b3          	or	a5,a5,a6
   11572:	2781                	sext.w	a5,a5
   11574:	40e788bb          	subw	a7,a5,a4
   11578:	00e7c833          	xor	a6,a5,a4
   1157c:	00f8c7b3          	xor	a5,a7,a5
   11580:	00f877b3          	and	a5,a6,a5
   11584:	0117c7b3          	xor	a5,a5,a7
   11588:	41f7d79b          	sraiw	a5,a5,0x1f
   1158c:	0107f7b3          	and	a5,a5,a6
   11590:	8f3d                	xor	a4,a4,a5
   11592:	c218                	sw	a4,0(a2)
   11594:	0611                	addi	a2,a2,4
   11596:	fca996e3          	bne	s3,a0,11562 <_ZL11cbrecursionPhxxPKsxxPi+0x1e4>
   1159a:	0405                	addi	s0,s0,1
   1159c:	f72447e3          	blt	s0,s2,1150a <_ZL11cbrecursionPhxxPKsxxPi+0x18c>
   115a0:	7442                	ld	s0,48(sp)
   115a2:	66a6                	ld	a3,72(sp)
   115a4:	89ea                	mv	s3,s10
   115a6:	8d5a                	mv	s10,s6
   115a8:	003d1513          	slli	a0,s10,0x3
   115ac:	6906                	ld	s2,64(sp)
   115ae:	956e                	add	a0,a0,s11
   115b0:	00092783          	lw	a5,0(s2)
   115b4:	0911                	addi	s2,s2,4
   115b6:	8fe5                	and	a5,a5,s1
   115b8:	fef92e23          	sw	a5,-4(s2)
   115bc:	ff251ae3          	bne	a0,s2,115b0 <_ZL11cbrecursionPhxxPKsxxPi+0x232>
   115c0:	866e                	mv	a2,s11
   115c2:	4701                	li	a4,0
   115c4:	00069783          	lh	a5,0(a3)
   115c8:	0611                	addi	a2,a2,4
   115ca:	0689                	addi	a3,a3,2
   115cc:	0107979b          	slliw	a5,a5,0x10
   115d0:	9fb9                	addw	a5,a5,a4
   115d2:	fef62e23          	sw	a5,-4(a2)
   115d6:	0705                	addi	a4,a4,1
   115d8:	ffa716e3          	bne	a4,s10,115c4 <_ZL11cbrecursionPhxxPKsxxPi+0x246>
   115dc:	554d0463          	beq	s10,s4,11b24 <_ZL11cbrecursionPhxxPKsxxPi+0x7a6>
   115e0:	856e                	mv	a0,s11
   115e2:	85ea                	mv	a1,s10
   115e4:	cb9ff0ef          	jal	ra,1129c <_ZL10int32_sortPix.part.0>
   115e8:	6ec2                	ld	t4,16(sp)
   115ea:	013d8533          	add	a0,s11,s3
   115ee:	401d5913          	srai	s2,s10,0x1
   115f2:	862a                	mv	a2,a0
   115f4:	8f6e                	mv	t5,s11
   115f6:	4e01                	li	t3,0
   115f8:	4214                	lw	a3,0(a2)
   115fa:	403ed793          	srai	a5,t4,0x3
   115fe:	97a2                	add	a5,a5,s0
   11600:	0007c703          	lbu	a4,0(a5)
   11604:	8a85                	andi	a3,a3,1
   11606:	007ef593          	andi	a1,t4,7
   1160a:	00b695bb          	sllw	a1,a3,a1
   1160e:	8f2d                	xor	a4,a4,a1
   11610:	00e78023          	sb	a4,0(a5)
   11614:	000f2703          	lw	a4,0(t5)
   11618:	001e179b          	slliw	a5,t3,0x1
   1161c:	9fb5                	addw	a5,a5,a3
   1161e:	0107171b          	slliw	a4,a4,0x10
   11622:	8f5d                	or	a4,a4,a5
   11624:	c218                	sw	a4,0(a2)
   11626:	004f2703          	lw	a4,4(t5)
   1162a:	0017c793          	xori	a5,a5,1
   1162e:	0e05                	addi	t3,t3,1
   11630:	0107171b          	slliw	a4,a4,0x10
   11634:	8fd9                	or	a5,a5,a4
   11636:	c25c                	sw	a5,4(a2)
   11638:	9ede                	add	t4,t4,s7
   1163a:	0621                	addi	a2,a2,8
   1163c:	0f21                	addi	t5,t5,8
   1163e:	fb2e4de3          	blt	t3,s2,115f8 <_ZL11cbrecursionPhxxPKsxxPi+0x27a>
   11642:	67c2                	ld	a5,16(sp)
   11644:	4681                	li	a3,0
   11646:	01778633          	add	a2,a5,s7
   1164a:	01205463          	blez	s2,11652 <_ZL11cbrecursionPhxxPKsxxPi+0x2d4>
   1164e:	fff90693          	addi	a3,s2,-1
   11652:	67a2                	ld	a5,8(sp)
   11654:	03768c33          	mul	s8,a3,s7
   11658:	85ea                	mv	a1,s10
   1165a:	00179713          	slli	a4,a5,0x1
   1165e:	177d                	addi	a4,a4,-1
   11660:	8b4a                	mv	s6,s2
   11662:	03770733          	mul	a4,a4,s7
   11666:	9c32                	add	s8,s8,a2
   11668:	02fb89b3          	mul	s3,s7,a5
   1166c:	03270733          	mul	a4,a4,s2
   11670:	032989b3          	mul	s3,s3,s2
   11674:	00ec07b3          	add	a5,s8,a4
   11678:	e83e                	sd	a5,16(sp)
   1167a:	c23ff0ef          	jal	ra,1129c <_ZL10int32_sortPix.part.0>
   1167e:	43fd5613          	srai	a2,s10,0x3f
   11682:	8a0d                	andi	a2,a2,3
   11684:	966a                	add	a2,a2,s10
   11686:	8609                	srai	a2,a2,0x2
   11688:	966a                	add	a2,a2,s10
   1168a:	00161c93          	slli	s9,a2,0x1
   1168e:	0986                	slli	s3,s3,0x1
   11690:	29205963          	blez	s2,11922 <_ZL11cbrecursionPhxxPKsxxPi+0x5a4>
   11694:	6ec2                	ld	t4,16(sp)
   11696:	002d1693          	slli	a3,s10,0x2
   1169a:	00391e13          	slli	t3,s2,0x3
   1169e:	96ee                	add	a3,a3,s11
   116a0:	836e                	mv	t1,s11
   116a2:	9e6e                	add	t3,t3,s11
   116a4:	856e                	mv	a0,s11
   116a6:	4f01                	li	t5,0
   116a8:	6fc1                	lui	t6,0x10
   116aa:	429c                	lw	a5,0(a3)
   116ac:	403ed713          	srai	a4,t4,0x3
   116b0:	9722                	add	a4,a4,s0
   116b2:	00074583          	lbu	a1,0(a4)
   116b6:	8b85                	andi	a5,a5,1
   116b8:	007ef813          	andi	a6,t4,7
   116bc:	0107983b          	sllw	a6,a5,a6
   116c0:	0105c5b3          	xor	a1,a1,a6
   116c4:	00b70023          	sb	a1,0(a4)
   116c8:	4298                	lw	a4,0(a3)
   116ca:	01e787bb          	addw	a5,a5,t5
   116ce:	0107979b          	slliw	a5,a5,0x10
   116d2:	8f65                	and	a4,a4,s1
   116d4:	8f5d                	or	a4,a4,a5
   116d6:	c118                	sw	a4,0(a0)
   116d8:	42d8                	lw	a4,4(a3)
   116da:	01f7c7b3          	xor	a5,a5,t6
   116de:	0521                	addi	a0,a0,8
   116e0:	8f65                	and	a4,a4,s1
   116e2:	8fd9                	or	a5,a5,a4
   116e4:	fef52e23          	sw	a5,-4(a0)
   116e8:	9ede                	add	t4,t4,s7
   116ea:	06a1                	addi	a3,a3,8
   116ec:	2f09                	addiw	t5,t5,2
   116ee:	faae1ee3          	bne	t3,a0,116aa <_ZL11cbrecursionPhxxPKsxxPi+0x32c>
   116f2:	fff90713          	addi	a4,s2,-1
   116f6:	03770733          	mul	a4,a4,s7
   116fa:	67c2                	ld	a5,16(sp)
   116fc:	00fb8c33          	add	s8,s7,a5
   11700:	9c3a                	add	s8,s8,a4
   11702:	01aa5c63          	bge	s4,s10,1171a <_ZL11cbrecursionPhxxPKsxxPi+0x39c>
   11706:	85ea                	mv	a1,s10
   11708:	856e                	mv	a0,s11
   1170a:	e09a                	sd	t1,64(sp)
   1170c:	f872                	sd	t3,48(sp)
   1170e:	e832                	sd	a2,16(sp)
   11710:	b8dff0ef          	jal	ra,1129c <_ZL10int32_sortPix.part.0>
   11714:	6306                	ld	t1,64(sp)
   11716:	7e42                	ld	t3,48(sp)
   11718:	6642                	ld	a2,16(sp)
   1171a:	00261693          	slli	a3,a2,0x2
   1171e:	413c0c33          	sub	s8,s8,s3
   11722:	00dd85b3          	add	a1,s11,a3
   11726:	00191e93          	slli	t4,s2,0x1
   1172a:	00032703          	lw	a4,0(t1)
   1172e:	00432783          	lw	a5,4(t1)
   11732:	01d58633          	add	a2,a1,t4
   11736:	4017571b          	sraiw	a4,a4,0x1
   1173a:	00eaf733          	and	a4,s5,a4
   1173e:	4017d79b          	sraiw	a5,a5,0x1
   11742:	00e59023          	sh	a4,0(a1)
   11746:	00faf7b3          	and	a5,s5,a5
   1174a:	00f61023          	sh	a5,0(a2)
   1174e:	0321                	addi	t1,t1,8
   11750:	0589                	addi	a1,a1,2
   11752:	fc6e1ce3          	bne	t3,t1,1172a <_ZL11cbrecursionPhxxPKsxxPi+0x3ac>
   11756:	6d22                	ld	s10,8(sp)
   11758:	001b9993          	slli	s3,s7,0x1
   1175c:	87ca                	mv	a5,s2
   1175e:	96ee                	add	a3,a3,s11
   11760:	876a                	mv	a4,s10
   11762:	886e                	mv	a6,s11
   11764:	864e                	mv	a2,s3
   11766:	85e2                	mv	a1,s8
   11768:	8522                	mv	a0,s0
   1176a:	c15ff0ef          	jal	ra,1137e <_ZL11cbrecursionPhxxPKsxxPi>
   1176e:	018b87b3          	add	a5,s7,s8
   11772:	e83e                	sd	a5,16(sp)
   11774:	fffd0793          	addi	a5,s10,-1
   11778:	e43e                	sd	a5,8(sp)
   1177a:	7782                	ld	a5,32(sp)
   1177c:	019b06b3          	add	a3,s6,s9
   11780:	0686                	slli	a3,a3,0x1
   11782:	17fd                	addi	a5,a5,-1
   11784:	f03e                	sd	a5,32(sp)
   11786:	67e2                	ld	a5,24(sp)
   11788:	96ee                	add	a3,a3,s11
   1178a:	17fd                	addi	a5,a5,-1
   1178c:	ec3e                	sd	a5,24(sp)
   1178e:	77e2                	ld	a5,56(sp)
   11790:	33478763          	beq	a5,s4,11abe <_ZL11cbrecursionPhxxPKsxxPi+0x740>
   11794:	8d4a                	mv	s10,s2
   11796:	8bce                	mv	s7,s3
   11798:	8336                	mv	t1,a3
   1179a:	856e                	mv	a0,s11
   1179c:	4601                	li	a2,0
   1179e:	c3a04fe3          	bgtz	s10,113dc <_ZL11cbrecursionPhxxPKsxxPi+0x5e>
   117a2:	7702                	ld	a4,32(sp)
   117a4:	47a9                	li	a5,10
   117a6:	002d1993          	slli	s3,s10,0x2
   117aa:	d2e7cbe3          	blt	a5,a4,114e0 <_ZL11cbrecursionPhxxPKsxxPi+0x162>
   117ae:	4789                	li	a5,2
   117b0:	002d1993          	slli	s3,s10,0x2
   117b4:	20e7c963          	blt	a5,a4,119c6 <_ZL11cbrecursionPhxxPKsxxPi+0x648>
   117b8:	6722                	ld	a4,8(sp)
   117ba:	03fd5793          	srli	a5,s10,0x3f
   117be:	97ea                	add	a5,a5,s10
   117c0:	fc3a                	sd	a4,56(sp)
   117c2:	4017d913          	srai	s2,a5,0x1
   117c6:	a21d                	j	118ec <_ZL11cbrecursionPhxxPKsxxPi+0x56e>
   117c8:	864e                	mv	a2,s3
   117ca:	876e                	mv	a4,s11
   117cc:	431c                	lw	a5,0(a4)
   117ce:	00261503          	lh	a0,2(a2)
   117d2:	0711                	addi	a4,a4,4
   117d4:	0197f7b3          	and	a5,a5,s9
   117d8:	8fc9                	or	a5,a5,a0
   117da:	c21c                	sw	a5,0(a2)
   117dc:	0611                	addi	a2,a2,4
   117de:	fee997e3          	bne	s3,a4,117cc <_ZL11cbrecursionPhxxPKsxxPi+0x44e>
   117e2:	014b0663          	beq	s6,s4,117ee <_ZL11cbrecursionPhxxPKsxxPi+0x470>
   117e6:	85da                	mv	a1,s6
   117e8:	854e                	mv	a0,s3
   117ea:	ab3ff0ef          	jal	ra,1129c <_ZL10int32_sortPix.part.0>
   117ee:	866e                	mv	a2,s11
   117f0:	874e                	mv	a4,s3
   117f2:	421c                	lw	a5,0(a2)
   117f4:	4308                	lw	a0,0(a4)
   117f6:	0611                	addi	a2,a2,4
   117f8:	8fe5                	and	a5,a5,s1
   117fa:	0105151b          	slliw	a0,a0,0x10
   117fe:	8fc9                	or	a5,a5,a0
   11800:	c31c                	sw	a5,0(a4)
   11802:	0711                	addi	a4,a4,4
   11804:	fec997e3          	bne	s3,a2,117f2 <_ZL11cbrecursionPhxxPKsxxPi+0x474>
   11808:	b3a9                	j	11552 <_ZL11cbrecursionPhxxPKsxxPi+0x1d4>
   1180a:	f83e                	sd	a5,48(sp)
   1180c:	2ef74863          	blt	a4,a5,11afc <_ZL11cbrecursionPhxxPKsxxPi+0x77e>
   11810:	41300c33          	neg	s8,s3
   11814:	4905                	li	s2,1
   11816:	2fa05863          	blez	s10,11b06 <_ZL11cbrecursionPhxxPKsxxPi+0x788>
   1181a:	87ea                	mv	a5,s10
   1181c:	e4a2                	sd	s0,72(sp)
   1181e:	8d62                	mv	s10,s8
   11820:	846e                	mv	s0,s11
   11822:	7cc1                	lui	s9,0xffff0
   11824:	8dca                	mv	s11,s2
   11826:	8c3e                	mv	s8,a5
   11828:	8936                	mv	s2,a3
   1182a:	86a2                	mv	a3,s0
   1182c:	4701                	li	a4,0
   1182e:	013687b3          	add	a5,a3,s3
   11832:	439c                	lw	a5,0(a5)
   11834:	0691                	addi	a3,a3,4
   11836:	0197f7b3          	and	a5,a5,s9
   1183a:	8fd9                	or	a5,a5,a4
   1183c:	fef6ae23          	sw	a5,-4(a3)
   11840:	0705                	addi	a4,a4,1
   11842:	ff8716e3          	bne	a4,s8,1182e <_ZL11cbrecursionPhxxPKsxxPi+0x4b0>
   11846:	014c0663          	beq	s8,s4,11852 <_ZL11cbrecursionPhxxPKsxxPi+0x4d4>
   1184a:	85e2                	mv	a1,s8
   1184c:	8522                	mv	a0,s0
   1184e:	a4fff0ef          	jal	ra,1129c <_ZL10int32_sortPix.part.0>
   11852:	87a2                	mv	a5,s0
   11854:	01378733          	add	a4,a5,s3
   11858:	4394                	lw	a3,0(a5)
   1185a:	4318                	lw	a4,0(a4)
   1185c:	0791                	addi	a5,a5,4
   1185e:	0106969b          	slliw	a3,a3,0x10
   11862:	8f65                	and	a4,a4,s1
   11864:	8f55                	or	a4,a4,a3
   11866:	fee7ae23          	sw	a4,-4(a5)
   1186a:	fefb15e3          	bne	s6,a5,11854 <_ZL11cbrecursionPhxxPKsxxPi+0x4d6>
   1186e:	67e2                	ld	a5,24(sp)
   11870:	0cfdc863          	blt	s11,a5,11940 <_ZL11cbrecursionPhxxPKsxxPi+0x5c2>
   11874:	014c0663          	beq	s8,s4,11880 <_ZL11cbrecursionPhxxPKsxxPi+0x502>
   11878:	85e2                	mv	a1,s8
   1187a:	8522                	mv	a0,s0
   1187c:	a21ff0ef          	jal	ra,1129c <_ZL10int32_sortPix.part.0>
   11880:	855a                	mv	a0,s6
   11882:	4801                	li	a6,0
   11884:	01a507b3          	add	a5,a0,s10
   11888:	4114                	lw	a3,0(a0)
   1188a:	439c                	lw	a5,0(a5)
   1188c:	0805                	addi	a6,a6,1
   1188e:	0196f733          	and	a4,a3,s9
   11892:	8fe5                	and	a5,a5,s1
   11894:	8fd9                	or	a5,a5,a4
   11896:	2781                	sext.w	a5,a5
   11898:	40d7873b          	subw	a4,a5,a3
   1189c:	00f6c8b3          	xor	a7,a3,a5
   118a0:	8fb9                	xor	a5,a5,a4
   118a2:	00f8f7b3          	and	a5,a7,a5
   118a6:	8f3d                	xor	a4,a4,a5
   118a8:	41f7571b          	sraiw	a4,a4,0x1f
   118ac:	00e8f8b3          	and	a7,a7,a4
   118b0:	0116c6b3          	xor	a3,a3,a7
   118b4:	c114                	sw	a3,0(a0)
   118b6:	0511                	addi	a0,a0,4
   118b8:	fd8846e3          	blt	a6,s8,11884 <_ZL11cbrecursionPhxxPKsxxPi+0x506>
   118bc:	77c2                	ld	a5,48(sp)
   118be:	0d85                	addi	s11,s11,1
   118c0:	f6fdc5e3          	blt	s11,a5,1182a <_ZL11cbrecursionPhxxPKsxxPi+0x4ac>
   118c4:	67a2                	ld	a5,8(sp)
   118c6:	86ca                	mv	a3,s2
   118c8:	896e                	mv	s2,s11
   118ca:	8d62                	mv	s10,s8
   118cc:	8da2                	mv	s11,s0
   118ce:	6426                	ld	s0,72(sp)
   118d0:	ccf95ce3          	bge	s2,a5,115a8 <_ZL11cbrecursionPhxxPKsxxPi+0x22a>
   118d4:	c3a041e3          	bgtz	s10,114f6 <_ZL11cbrecursionPhxxPKsxxPi+0x178>
   118d8:	0905                	addi	s2,s2,1
   118da:	c0f94ce3          	blt	s2,a5,114f2 <_ZL11cbrecursionPhxxPKsxxPi+0x174>
   118de:	cda045e3          	bgtz	s10,115a8 <_ZL11cbrecursionPhxxPKsxxPi+0x22a>
   118e2:	03fd5793          	srli	a5,s10,0x3f
   118e6:	97ea                	add	a5,a5,s10
   118e8:	4017d913          	srai	s2,a5,0x1
   118ec:	67a2                	ld	a5,8(sp)
   118ee:	43fd5613          	srai	a2,s10,0x3f
   118f2:	8a0d                	andi	a2,a2,3
   118f4:	00179713          	slli	a4,a5,0x1
   118f8:	177d                	addi	a4,a4,-1
   118fa:	03770733          	mul	a4,a4,s7
   118fe:	966a                	add	a2,a2,s10
   11900:	8609                	srai	a2,a2,0x2
   11902:	966a                	add	a2,a2,s10
   11904:	8b4a                	mv	s6,s2
   11906:	00161c93          	slli	s9,a2,0x1
   1190a:	037789b3          	mul	s3,a5,s7
   1190e:	67c2                	ld	a5,16(sp)
   11910:	03270733          	mul	a4,a4,s2
   11914:	032989b3          	mul	s3,s3,s2
   11918:	97ba                	add	a5,a5,a4
   1191a:	e83e                	sd	a5,16(sp)
   1191c:	0986                	slli	s3,s3,0x1
   1191e:	d7204be3          	bgtz	s2,11694 <_ZL11cbrecursionPhxxPKsxxPi+0x316>
   11922:	4705                	li	a4,1
   11924:	21a75663          	bge	a4,s10,11b30 <_ZL11cbrecursionPhxxPKsxxPi+0x7b2>
   11928:	85ea                	mv	a1,s10
   1192a:	856e                	mv	a0,s11
   1192c:	f832                	sd	a2,48(sp)
   1192e:	96fff0ef          	jal	ra,1129c <_ZL10int32_sortPix.part.0>
   11932:	67c2                	ld	a5,16(sp)
   11934:	7642                	ld	a2,48(sp)
   11936:	41378c33          	sub	s8,a5,s3
   1193a:	00261693          	slli	a3,a2,0x2
   1193e:	bd21                	j	11756 <_ZL11cbrecursionPhxxPKsxxPi+0x3d8>
   11940:	86da                	mv	a3,s6
   11942:	8722                	mv	a4,s0
   11944:	7841                	lui	a6,0xffff0
   11946:	431c                	lw	a5,0(a4)
   11948:	00269503          	lh	a0,2(a3)
   1194c:	0711                	addi	a4,a4,4
   1194e:	0107f7b3          	and	a5,a5,a6
   11952:	8fc9                	or	a5,a5,a0
   11954:	c29c                	sw	a5,0(a3)
   11956:	0691                	addi	a3,a3,4
   11958:	feeb17e3          	bne	s6,a4,11946 <_ZL11cbrecursionPhxxPKsxxPi+0x5c8>
   1195c:	014c0663          	beq	s8,s4,11968 <_ZL11cbrecursionPhxxPKsxxPi+0x5ea>
   11960:	85e2                	mv	a1,s8
   11962:	855a                	mv	a0,s6
   11964:	939ff0ef          	jal	ra,1129c <_ZL10int32_sortPix.part.0>
   11968:	875a                	mv	a4,s6
   1196a:	4501                	li	a0,0
   1196c:	01a707b3          	add	a5,a4,s10
   11970:	4314                	lw	a3,0(a4)
   11972:	439c                	lw	a5,0(a5)
   11974:	0505                	addi	a0,a0,1
   11976:	0106969b          	slliw	a3,a3,0x10
   1197a:	8fe5                	and	a5,a5,s1
   1197c:	8fd5                	or	a5,a5,a3
   1197e:	c31c                	sw	a5,0(a4)
   11980:	0711                	addi	a4,a4,4
   11982:	ff8545e3          	blt	a0,s8,1196c <_ZL11cbrecursionPhxxPKsxxPi+0x5ee>
   11986:	b5fd                	j	11874 <_ZL11cbrecursionPhxxPKsxxPi+0x4f6>
   11988:	7702                	ld	a4,32(sp)
   1198a:	47a9                	li	a5,10
   1198c:	b2e7c1e3          	blt	a5,a4,114ae <_ZL11cbrecursionPhxxPKsxxPi+0x130>
   11990:	003d1513          	slli	a0,s10,0x3
   11994:	00ad8333          	add	t1,s11,a0
   11998:	41300633          	neg	a2,s3
   1199c:	00c907b3          	add	a5,s2,a2
   119a0:	439c                	lw	a5,0(a5)
   119a2:	00092703          	lw	a4,0(s2)
   119a6:	75a2                	ld	a1,40(sp)
   119a8:	00a7979b          	slliw	a5,a5,0xa
   119ac:	3ff77713          	andi	a4,a4,1023
   119b0:	8fed                	and	a5,a5,a1
   119b2:	0911                	addi	s2,s2,4
   119b4:	8fd9                	or	a5,a5,a4
   119b6:	fef92e23          	sw	a5,-4(s2)
   119ba:	ff2311e3          	bne	t1,s2,1199c <_ZL11cbrecursionPhxxPKsxxPi+0x61e>
   119be:	7702                	ld	a4,32(sp)
   119c0:	4789                	li	a5,2
   119c2:	14e7de63          	bge	a5,a4,11b1e <_ZL11cbrecursionPhxxPKsxxPi+0x7a0>
   119c6:	67a2                	ld	a5,8(sp)
   119c8:	013d8933          	add	s2,s11,s3
   119cc:	4e85                	li	t4,1
   119ce:	fc3e                	sd	a5,56(sp)
   119d0:	0fa05263          	blez	s10,11ab4 <_ZL11cbrecursionPhxxPKsxxPi+0x736>
   119d4:	e0de                	sd	s7,64(sp)
   119d6:	8bee                	mv	s7,s11
   119d8:	8dce                	mv	s11,s3
   119da:	89ea                	mv	s3,s10
   119dc:	8d4a                	mv	s10,s2
   119de:	6922                	ld	s2,8(sp)
   119e0:	00100cb7          	lui	s9,0x100
   119e4:	fffc8b13          	addi	s6,s9,-1 # fffff <__BSS_END__+0xd868f>
   119e8:	f822                	sd	s0,48(sp)
   119ea:	7c41                	lui	s8,0xffff0
   119ec:	c00c8c93          	addi	s9,s9,-1024
   119f0:	8476                	mv	s0,t4
   119f2:	e4b6                	sd	a3,72(sp)
   119f4:	86de                	mv	a3,s7
   119f6:	4701                	li	a4,0
   119f8:	01b687b3          	add	a5,a3,s11
   119fc:	439c                	lw	a5,0(a5)
   119fe:	0691                	addi	a3,a3,4
   11a00:	0067979b          	slliw	a5,a5,0x6
   11a04:	0187f7b3          	and	a5,a5,s8
   11a08:	8fd9                	or	a5,a5,a4
   11a0a:	fef6ae23          	sw	a5,-4(a3)
   11a0e:	0705                	addi	a4,a4,1
   11a10:	ff3714e3          	bne	a4,s3,119f8 <_ZL11cbrecursionPhxxPKsxxPi+0x67a>
   11a14:	01498663          	beq	s3,s4,11a20 <_ZL11cbrecursionPhxxPKsxxPi+0x6a2>
   11a18:	85ce                	mv	a1,s3
   11a1a:	855e                	mv	a0,s7
   11a1c:	881ff0ef          	jal	ra,1129c <_ZL10int32_sortPix.part.0>
   11a20:	87de                	mv	a5,s7
   11a22:	4394                	lw	a3,0(a5)
   11a24:	01b78733          	add	a4,a5,s11
   11a28:	4318                	lw	a4,0(a4)
   11a2a:	0146969b          	slliw	a3,a3,0x14
   11a2e:	0791                	addi	a5,a5,4
   11a30:	8f55                	or	a4,a4,a3
   11a32:	fee7ae23          	sw	a4,-4(a5)
   11a36:	fefd16e3          	bne	s10,a5,11a22 <_ZL11cbrecursionPhxxPKsxxPi+0x6a4>
   11a3a:	01498663          	beq	s3,s4,11a46 <_ZL11cbrecursionPhxxPKsxxPi+0x6c8>
   11a3e:	85ce                	mv	a1,s3
   11a40:	855e                	mv	a0,s7
   11a42:	85bff0ef          	jal	ra,1129c <_ZL10int32_sortPix.part.0>
   11a46:	886a                	mv	a6,s10
   11a48:	865e                	mv	a2,s7
   11a4a:	421c                	lw	a5,0(a2)
   11a4c:	00082703          	lw	a4,0(a6) # ffffffffffff0000 <__BSS_END__+0xfffffffffffc8690>
   11a50:	0611                	addi	a2,a2,4
   11a52:	0197f6b3          	and	a3,a5,s9
   11a56:	3ff77713          	andi	a4,a4,1023
   11a5a:	0167f7b3          	and	a5,a5,s6
   11a5e:	8f55                	or	a4,a4,a3
   11a60:	40e786bb          	subw	a3,a5,a4
   11a64:	00e7c8b3          	xor	a7,a5,a4
   11a68:	8fb5                	xor	a5,a5,a3
   11a6a:	00f8f7b3          	and	a5,a7,a5
   11a6e:	8ebd                	xor	a3,a3,a5
   11a70:	41f6d69b          	sraiw	a3,a3,0x1f
   11a74:	00d8f8b3          	and	a7,a7,a3
   11a78:	01174733          	xor	a4,a4,a7
   11a7c:	00e82023          	sw	a4,0(a6)
   11a80:	0811                	addi	a6,a6,4
   11a82:	fccd14e3          	bne	s10,a2,11a4a <_ZL11cbrecursionPhxxPKsxxPi+0x6cc>
   11a86:	0405                	addi	s0,s0,1
   11a88:	f72446e3          	blt	s0,s2,119f4 <_ZL11cbrecursionPhxxPKsxxPi+0x676>
   11a8c:	8d4e                	mv	s10,s3
   11a8e:	7442                	ld	s0,48(sp)
   11a90:	89ee                	mv	s3,s11
   11a92:	66a6                	ld	a3,72(sp)
   11a94:	8dde                	mv	s11,s7
   11a96:	6b86                	ld	s7,64(sp)
   11a98:	003d1513          	slli	a0,s10,0x3
   11a9c:	013d87b3          	add	a5,s11,s3
   11aa0:	956e                	add	a0,a0,s11
   11aa2:	4398                	lw	a4,0(a5)
   11aa4:	0791                	addi	a5,a5,4
   11aa6:	3ff77713          	andi	a4,a4,1023
   11aaa:	fee7ae23          	sw	a4,-4(a5)
   11aae:	fef51ae3          	bne	a0,a5,11aa2 <_ZL11cbrecursionPhxxPKsxxPi+0x724>
   11ab2:	b639                	j	115c0 <_ZL11cbrecursionPhxxPKsxxPi+0x242>
   11ab4:	67a2                	ld	a5,8(sp)
   11ab6:	0e85                	addi	t4,t4,1
   11ab8:	f0fecce3          	blt	t4,a5,119d0 <_ZL11cbrecursionPhxxPKsxxPi+0x652>
   11abc:	b51d                	j	118e2 <_ZL11cbrecursionPhxxPKsxxPi+0x564>
   11abe:	65c2                	ld	a1,16(sp)
   11ac0:	8ca2                	mv	s9,s0
   11ac2:	4035d793          	srai	a5,a1,0x3
   11ac6:	00069703          	lh	a4,0(a3)
   11aca:	00fc8eb3          	add	t4,s9,a5
   11ace:	000ec783          	lbu	a5,0(t4)
   11ad2:	899d                	andi	a1,a1,7
   11ad4:	00b7173b          	sllw	a4,a4,a1
   11ad8:	8fb9                	xor	a5,a5,a4
   11ada:	00fe8023          	sb	a5,0(t4)
   11ade:	70ea                	ld	ra,184(sp)
   11ae0:	744a                	ld	s0,176(sp)
   11ae2:	74aa                	ld	s1,168(sp)
   11ae4:	790a                	ld	s2,160(sp)
   11ae6:	69ea                	ld	s3,152(sp)
   11ae8:	6a4a                	ld	s4,144(sp)
   11aea:	6aaa                	ld	s5,136(sp)
   11aec:	6b0a                	ld	s6,128(sp)
   11aee:	7be6                	ld	s7,120(sp)
   11af0:	7c46                	ld	s8,112(sp)
   11af2:	7ca6                	ld	s9,104(sp)
   11af4:	7d06                	ld	s10,96(sp)
   11af6:	6de6                	ld	s11,88(sp)
   11af8:	6129                	addi	sp,sp,192
   11afa:	8082                	ret
   11afc:	f83a                	sd	a4,48(sp)
   11afe:	41300c33          	neg	s8,s3
   11b02:	4905                	li	s2,1
   11b04:	bb09                	j	11816 <_ZL11cbrecursionPhxxPKsxxPi+0x498>
   11b06:	77c2                	ld	a5,48(sp)
   11b08:	0905                	addi	s2,s2,1
   11b0a:	d0f946e3          	blt	s2,a5,11816 <_ZL11cbrecursionPhxxPKsxxPi+0x498>
   11b0e:	67a2                	ld	a5,8(sp)
   11b10:	dcf957e3          	bge	s2,a5,118de <_ZL11cbrecursionPhxxPKsxxPi+0x560>
   11b14:	67a2                	ld	a5,8(sp)
   11b16:	baf1                	j	114f2 <_ZL11cbrecursionPhxxPKsxxPi+0x174>
   11b18:	67a2                	ld	a5,8(sp)
   11b1a:	fc3e                	sd	a5,56(sp)
   11b1c:	bc41                	j	115ac <_ZL11cbrecursionPhxxPKsxxPi+0x22e>
   11b1e:	67a2                	ld	a5,8(sp)
   11b20:	fc3e                	sd	a5,56(sp)
   11b22:	bfad                	j	11a9c <_ZL11cbrecursionPhxxPKsxxPi+0x71e>
   11b24:	001a1c93          	slli	s9,s4,0x1
   11b28:	8652                	mv	a2,s4
   11b2a:	4981                	li	s3,0
   11b2c:	4b01                	li	s6,0
   11b2e:	4901                	li	s2,0
   11b30:	67c2                	ld	a5,16(sp)
   11b32:	00261693          	slli	a3,a2,0x2
   11b36:	41378c33          	sub	s8,a5,s3
   11b3a:	b931                	j	11756 <_ZL11cbrecursionPhxxPKsxxPi+0x3d8>

0000000000011b3c <_Z26controlbitsfrompermutationPhPKsxx>:
   11b3c:	00161793          	slli	a5,a2,0x1
   11b40:	17fd                	addi	a5,a5,-1
   11b42:	07b2                	slli	a5,a5,0xc
   11b44:	8785                	srai	a5,a5,0x1
   11b46:	43f7d713          	srai	a4,a5,0x3f
   11b4a:	7135                	addi	sp,sp,-160
   11b4c:	079d                	addi	a5,a5,7
   11b4e:	8b1d                	andi	a4,a4,7
   11b50:	f8d2                	sd	s4,112(sp)
   11b52:	f4d6                	sd	s5,104(sp)
   11b54:	f0da                	sd	s6,96(sp)
   11b56:	ecde                	sd	s7,88(sp)
   11b58:	e4e6                	sd	s9,72(sp)
   11b5a:	fc6e                	sd	s11,56(sp)
   11b5c:	ed06                	sd	ra,152(sp)
   11b5e:	e922                	sd	s0,144(sp)
   11b60:	e526                	sd	s1,136(sp)
   11b62:	e14a                	sd	s2,128(sp)
   11b64:	fcce                	sd	s3,120(sp)
   11b66:	e8e2                	sd	s8,80(sp)
   11b68:	e0ea                	sd	s10,64(sp)
   11b6a:	72d9                	lui	t0,0xffff6
   11b6c:	973e                	add	a4,a4,a5
   11b6e:	00861a93          	slli	s5,a2,0x8
   11b72:	9116                	add	sp,sp,t0
   11b74:	8b32                	mv	s6,a2
   11b76:	8a2a                	mv	s4,a0
   11b78:	8bae                	mv	s7,a1
   11b7a:	40375d93          	srai	s11,a4,0x3
   11b7e:	ffe60c9b          	addiw	s9,a2,-2
   11b82:	9aaa                	add	s5,s5,a0
   11b84:	00c04363          	bgtz	a2,11b8a <_Z26controlbitsfrompermutationPhPKsxx+0x4e>
   11b88:	8aaa                	mv	s5,a0
   11b8a:	77e1                	lui	a5,0xffff8
   11b8c:	6729                	lui	a4,0xa
   11b8e:	973e                	add	a4,a4,a5
   11b90:	181c                	addi	a5,sp,48
   11b92:	97ba                	add	a5,a5,a4
   11b94:	8c56                	mv	s8,s5
   11b96:	ec3e                	sd	a5,24(sp)
   11b98:	7d59                	lui	s10,0xffff6
   11b9a:	000b099b          	sext.w	s3,s6
   11b9e:	4485                	li	s1,1
   11ba0:	4409                	li	s0,2
   11ba2:	597d                	li	s2,-1
   11ba4:	8ada                	mv	s5,s6
   11ba6:	866e                	mv	a2,s11
   11ba8:	4581                	li	a1,0
   11baa:	8552                	mv	a0,s4
   11bac:	5e2050ef          	jal	ra,1718e <memset>
   11bb0:	6862                	ld	a6,24(sp)
   11bb2:	6785                	lui	a5,0x1
   11bb4:	8756                	mv	a4,s5
   11bb6:	86de                	mv	a3,s7
   11bb8:	4605                	li	a2,1
   11bba:	4581                	li	a1,0
   11bbc:	8552                	mv	a0,s4
   11bbe:	fc0ff0ef          	jal	ra,1137e <_ZL11cbrecursionPhxxPKsxxPi>
   11bc2:	67a9                	lui	a5,0xa
   11bc4:	97ea                	add	a5,a5,s10
   11bc6:	1818                	addi	a4,sp,48
   11bc8:	00e786b3          	add	a3,a5,a4
   11bcc:	8736                	mv	a4,a3
   11bce:	4781                	li	a5,0
   11bd0:	6605                	lui	a2,0x1
   11bd2:	00f71023          	sh	a5,0(a4) # a000 <exit-0x60e8>
   11bd6:	2785                	addiw	a5,a5,1 # a001 <exit-0x60e7>
   11bd8:	0709                	addi	a4,a4,2
   11bda:	fec79ce3          	bne	a5,a2,11bd2 <_Z26controlbitsfrompermutationPhPKsxx+0x96>
   11bde:	0b505a63          	blez	s5,11c92 <_Z26controlbitsfrompermutationPhPKsxx+0x156>
   11be2:	8352                	mv	t1,s4
   11be4:	4601                	li	a2,0
   11be6:	6b05                	lui	s6,0x1
   11be8:	f06e                	sd	s11,32(sp)
   11bea:	f466                	sd	s9,40(sp)
   11bec:	8752                	mv	a4,s4
   11bee:	85de                	mv	a1,s7
   11bf0:	00c493bb          	sllw	t2,s1,a2
   11bf4:	00c41a3b          	sllw	s4,s0,a2
   11bf8:	08705463          	blez	t2,11c80 <_Z26controlbitsfrompermutationPhPKsxx+0x144>
   11bfc:	001a1c93          	slli	s9,s4,0x1
   11c00:	00139b93          	slli	s7,t2,0x1
   11c04:	8e36                	mv	t3,a3
   11c06:	829e                	mv	t0,t2
   11c08:	4f81                	li	t6,0
   11c0a:	4f01                	li	t5,0
   11c0c:	e832                	sd	a2,16(sp)
   11c0e:	e452                	sd	s4,8(sp)
   11c10:	8eb6                	mv	t4,a3
   11c12:	01cb8533          	add	a0,s7,t3
   11c16:	88f2                	mv	a7,t3
   11c18:	867e                	mv	a2,t6
   11c1a:	00028d9b          	sext.w	s11,t0
   11c1e:	4036579b          	sraiw	a5,a2,0x3
   11c22:	979a                	add	a5,a5,t1
   11c24:	0007c683          	lbu	a3,0(a5)
   11c28:	00089803          	lh	a6,0(a7)
   11c2c:	00055783          	lhu	a5,0(a0)
   11c30:	00767a13          	andi	s4,a2,7
   11c34:	4146d6bb          	sraw	a3,a3,s4
   11c38:	8a85                	andi	a3,a3,1
   11c3a:	00f847b3          	xor	a5,a6,a5
   11c3e:	40d006bb          	negw	a3,a3
   11c42:	8ff5                	and	a5,a5,a3
   11c44:	0107979b          	slliw	a5,a5,0x10
   11c48:	4107d79b          	sraiw	a5,a5,0x10
   11c4c:	00f84833          	xor	a6,a6,a5
   11c50:	01089023          	sh	a6,0(a7)
   11c54:	00055683          	lhu	a3,0(a0)
   11c58:	2605                	addiw	a2,a2,1 # 1001 <exit-0xf0e7>
   11c5a:	0889                	addi	a7,a7,2
   11c5c:	8fb5                	xor	a5,a5,a3
   11c5e:	00f51023          	sh	a5,0(a0)
   11c62:	0509                	addi	a0,a0,2
   11c64:	fbb61de3          	bne	a2,s11,11c1e <_Z26controlbitsfrompermutationPhPKsxx+0xe2>
   11c68:	67a2                	ld	a5,8(sp)
   11c6a:	007f8fbb          	addw	t6,t6,t2
   11c6e:	005382bb          	addw	t0,t2,t0
   11c72:	01e78f3b          	addw	t5,a5,t5
   11c76:	9e66                	add	t3,t3,s9
   11c78:	f96f4de3          	blt	t5,s6,11c12 <_Z26controlbitsfrompermutationPhPKsxx+0xd6>
   11c7c:	6642                	ld	a2,16(sp)
   11c7e:	86f6                	mv	a3,t4
   11c80:	2605                	addiw	a2,a2,1
   11c82:	10030313          	addi	t1,t1,256
   11c86:	f73615e3          	bne	a2,s3,11bf0 <_Z26controlbitsfrompermutationPhPKsxx+0xb4>
   11c8a:	7d82                	ld	s11,32(sp)
   11c8c:	7ca2                	ld	s9,40(sp)
   11c8e:	8a3a                	mv	s4,a4
   11c90:	8bae                	mv	s7,a1
   11c92:	0a0cca63          	bltz	s9,11d46 <_Z26controlbitsfrompermutationPhPKsxx+0x20a>
   11c96:	8362                	mv	t1,s8
   11c98:	8666                	mv	a2,s9
   11c9a:	6b05                	lui	s6,0x1
   11c9c:	f06e                	sd	s11,32(sp)
   11c9e:	f466                	sd	s9,40(sp)
   11ca0:	8752                	mv	a4,s4
   11ca2:	85de                	mv	a1,s7
   11ca4:	00c493bb          	sllw	t2,s1,a2
   11ca8:	00c41a3b          	sllw	s4,s0,a2
   11cac:	08705463          	blez	t2,11d34 <_Z26controlbitsfrompermutationPhPKsxx+0x1f8>
   11cb0:	001a1c93          	slli	s9,s4,0x1
   11cb4:	00139b93          	slli	s7,t2,0x1
   11cb8:	8e36                	mv	t3,a3
   11cba:	829e                	mv	t0,t2
   11cbc:	4f81                	li	t6,0
   11cbe:	4f01                	li	t5,0
   11cc0:	e832                	sd	a2,16(sp)
   11cc2:	e452                	sd	s4,8(sp)
   11cc4:	8eb6                	mv	t4,a3
   11cc6:	01cb8533          	add	a0,s7,t3
   11cca:	88f2                	mv	a7,t3
   11ccc:	867e                	mv	a2,t6
   11cce:	00028d9b          	sext.w	s11,t0
   11cd2:	4036579b          	sraiw	a5,a2,0x3
   11cd6:	979a                	add	a5,a5,t1
   11cd8:	0007c683          	lbu	a3,0(a5)
   11cdc:	00089803          	lh	a6,0(a7)
   11ce0:	00055783          	lhu	a5,0(a0)
   11ce4:	00767a13          	andi	s4,a2,7
   11ce8:	4146d6bb          	sraw	a3,a3,s4
   11cec:	8a85                	andi	a3,a3,1
   11cee:	00f847b3          	xor	a5,a6,a5
   11cf2:	40d006bb          	negw	a3,a3
   11cf6:	8ff5                	and	a5,a5,a3
   11cf8:	0107979b          	slliw	a5,a5,0x10
   11cfc:	4107d79b          	sraiw	a5,a5,0x10
   11d00:	00f84833          	xor	a6,a6,a5
   11d04:	01089023          	sh	a6,0(a7)
   11d08:	00055683          	lhu	a3,0(a0)
   11d0c:	2605                	addiw	a2,a2,1
   11d0e:	0889                	addi	a7,a7,2
   11d10:	8fb5                	xor	a5,a5,a3
   11d12:	00f51023          	sh	a5,0(a0)
   11d16:	0509                	addi	a0,a0,2
   11d18:	fbb61de3          	bne	a2,s11,11cd2 <_Z26controlbitsfrompermutationPhPKsxx+0x196>
   11d1c:	67a2                	ld	a5,8(sp)
   11d1e:	007f8fbb          	addw	t6,t6,t2
   11d22:	005382bb          	addw	t0,t2,t0
   11d26:	01e78f3b          	addw	t5,a5,t5
   11d2a:	9e66                	add	t3,t3,s9
   11d2c:	f96f4de3          	blt	t5,s6,11cc6 <_Z26controlbitsfrompermutationPhPKsxx+0x18a>
   11d30:	6642                	ld	a2,16(sp)
   11d32:	86f6                	mv	a3,t4
   11d34:	367d                	addiw	a2,a2,-1
   11d36:	10030313          	addi	t1,t1,256
   11d3a:	f72615e3          	bne	a2,s2,11ca4 <_Z26controlbitsfrompermutationPhPKsxx+0x168>
   11d3e:	7d82                	ld	s11,32(sp)
   11d40:	7ca2                	ld	s9,40(sp)
   11d42:	8a3a                	mv	s4,a4
   11d44:	8bae                	mv	s7,a1
   11d46:	6509                	lui	a0,0x2
   11d48:	865e                	mv	a2,s7
   11d4a:	9536                	add	a0,a0,a3
   11d4c:	4781                	li	a5,0
   11d4e:	00065703          	lhu	a4,0(a2)
   11d52:	0006d583          	lhu	a1,0(a3)
   11d56:	0689                	addi	a3,a3,2
   11d58:	0609                	addi	a2,a2,2
   11d5a:	8f2d                	xor	a4,a4,a1
   11d5c:	8fd9                	or	a5,a5,a4
   11d5e:	0107979b          	slliw	a5,a5,0x10
   11d62:	4107d79b          	sraiw	a5,a5,0x10
   11d66:	fed514e3          	bne	a0,a3,11d4e <_Z26controlbitsfrompermutationPhPKsxx+0x212>
   11d6a:	40f0073b          	negw	a4,a5
   11d6e:	0107171b          	slliw	a4,a4,0x10
   11d72:	4107571b          	sraiw	a4,a4,0x10
   11d76:	40f7571b          	sraiw	a4,a4,0xf
   11d7a:	40f7d79b          	sraiw	a5,a5,0xf
   11d7e:	8fd9                	or	a5,a5,a4
   11d80:	0107979b          	slliw	a5,a5,0x10
   11d84:	4107d79b          	sraiw	a5,a5,0x10
   11d88:	e0079fe3          	bnez	a5,11ba6 <_Z26controlbitsfrompermutationPhPKsxx+0x6a>
   11d8c:	62a9                	lui	t0,0xa
   11d8e:	9116                	add	sp,sp,t0
   11d90:	60ea                	ld	ra,152(sp)
   11d92:	644a                	ld	s0,144(sp)
   11d94:	64aa                	ld	s1,136(sp)
   11d96:	690a                	ld	s2,128(sp)
   11d98:	79e6                	ld	s3,120(sp)
   11d9a:	7a46                	ld	s4,112(sp)
   11d9c:	7aa6                	ld	s5,104(sp)
   11d9e:	7b06                	ld	s6,96(sp)
   11da0:	6be6                	ld	s7,88(sp)
   11da2:	6c46                	ld	s8,80(sp)
   11da4:	6ca6                	ld	s9,72(sp)
   11da6:	6d06                	ld	s10,64(sp)
   11da8:	7de2                	ld	s11,56(sp)
   11daa:	610d                	addi	sp,sp,160
   11dac:	8082                	ret

0000000000011dae <_ZL24KeccakF1600_StatePermutePm>:
   11dae:	611c                	ld	a5,0(a0)
   11db0:	714d                	addi	sp,sp,-336
   11db2:	06053e03          	ld	t3,96(a0) # 2060 <exit-0xe088>
   11db6:	fd3e                	sd	a5,184(sp)
   11db8:	651c                	ld	a5,8(a0)
   11dba:	e6a2                	sd	s0,328(sp)
   11dbc:	e2a6                	sd	s1,320(sp)
   11dbe:	f53e                	sd	a5,168(sp)
   11dc0:	691c                	ld	a5,16(a0)
   11dc2:	7900                	ld	s0,48(a0)
   11dc4:	6524                	ld	s1,72(a0)
   11dc6:	f93e                	sd	a5,176(sp)
   11dc8:	711c                	ld	a5,32(a0)
   11dca:	fe4a                	sd	s2,312(sp)
   11dcc:	fa4e                	sd	s3,304(sp)
   11dce:	e0be                	sd	a5,64(sp)
   11dd0:	751c                	ld	a5,40(a0)
   11dd2:	01853983          	ld	s3,24(a0)
   11dd6:	f652                	sd	s4,296(sp)
   11dd8:	e4be                	sd	a5,72(sp)
   11dda:	613c                	ld	a5,64(a0)
   11ddc:	f256                	sd	s5,288(sp)
   11dde:	ee5a                	sd	s6,280(sp)
   11de0:	e8be                	sd	a5,80(sp)
   11de2:	6d3c                	ld	a5,88(a0)
   11de4:	fdea                	sd	s10,248(sp)
   11de6:	f9ee                	sd	s11,240(sp)
   11de8:	05053d03          	ld	s10,80(a0)
   11dec:	03853d83          	ld	s11,56(a0)
   11df0:	ecbe                	sd	a5,88(sp)
   11df2:	ea5e                	sd	s7,272(sp)
   11df4:	e662                	sd	s8,264(sp)
   11df6:	e266                	sd	s9,256(sp)
   11df8:	06853283          	ld	t0,104(a0)
   11dfc:	793c                	ld	a5,112(a0)
   11dfe:	00023737          	lui	a4,0x23
   11e02:	70070713          	addi	a4,a4,1792 # 23700 <_ZL22KeccakF_RoundConstants>
   11e06:	f0be                	sd	a5,96(sp)
   11e08:	7d3c                	ld	a5,120(a0)
   11e0a:	01070693          	addi	a3,a4,16
   11e0e:	0c070713          	addi	a4,a4,192
   11e12:	e03e                	sd	a5,0(sp)
   11e14:	755c                	ld	a5,168(a0)
   11e16:	0b053903          	ld	s2,176(a0)
   11e1a:	08053f03          	ld	t5,128(a0)
   11e1e:	f4be                	sd	a5,104(sp)
   11e20:	7d5c                	ld	a5,184(a0)
   11e22:	694c                	ld	a1,144(a0)
   11e24:	6d50                	ld	a2,152(a0)
   11e26:	0a053a83          	ld	s5,160(a0)
   11e2a:	f83e                	sd	a5,48(sp)
   11e2c:	f1ba                	sd	a4,224(sp)
   11e2e:	617c                	ld	a5,192(a0)
   11e30:	6721                	lui	a4,0x8
   11e32:	08270713          	addi	a4,a4,130 # 8082 <exit-0x8066>
   11e36:	e1ba                	sd	a4,192(sp)
   11e38:	4705                	li	a4,1
   11e3a:	08853f83          	ld	t6,136(a0)
   11e3e:	e13a                	sd	a4,128(sp)
   11e40:	8a4a                	mv	s4,s2
   11e42:	f5aa                	sd	a0,232(sp)
   11e44:	6706                	ld	a4,64(sp)
   11e46:	e5b6                	sd	a3,200(sp)
   11e48:	88ea                	mv	a7,s10
   11e4a:	8372                	mv	t1,t3
   11e4c:	8efa                	mv	t4,t5
   11e4e:	83ae                	mv	t2,a1
   11e50:	8856                	mv	a6,s5
   11e52:	8932                	mv	s2,a2
   11e54:	8b3e                	mv	s6,a5
   11e56:	8516                	mv	a0,t0
   11e58:	a809                	j	11e6a <_ZL24KeccakF1600_StatePermutePm+0xbc>
   11e5a:	6398                	ld	a4,0(a5)
   11e5c:	07c1                	addi	a5,a5,16
   11e5e:	e13a                	sd	a4,128(sp)
   11e60:	ff87b703          	ld	a4,-8(a5)
   11e64:	e5be                	sd	a5,200(sp)
   11e66:	e1ba                	sd	a4,192(sp)
   11e68:	875e                	mv	a4,s7
   11e6a:	77ca                	ld	a5,176(sp)
   11e6c:	76ea                	ld	a3,184(sp)
   11e6e:	6626                	ld	a2,72(sp)
   11e70:	75aa                	ld	a1,168(sp)
   11e72:	7286                	ld	t0,96(sp)
   11e74:	6e46                	ld	t3,80(sp)
   11e76:	6ce6                	ld	s9,88(sp)
   11e78:	01b7cab3          	xor	s5,a5,s11
   11e7c:	00974f33          	xor	t5,a4,s1
   11e80:	6782                	ld	a5,0(sp)
   11e82:	7726                	ld	a4,104(sp)
   11e84:	00c6cc33          	xor	s8,a3,a2
   11e88:	0085cbb3          	xor	s7,a1,s0
   11e8c:	76c2                	ld	a3,48(sp)
   11e8e:	01c9ce33          	xor	t3,s3,t3
   11e92:	006acab3          	xor	s5,s5,t1
   11e96:	005f4f33          	xor	t5,t5,t0
   11e9a:	011c4c33          	xor	s8,s8,a7
   11e9e:	019bcbb3          	xor	s7,s7,s9
   11ea2:	01facab3          	xor	s5,s5,t6
   11ea6:	00ae4e33          	xor	t3,t3,a0
   11eaa:	012f4f33          	xor	t5,t5,s2
   11eae:	014acab3          	xor	s5,s5,s4
   11eb2:	016f4f33          	xor	t5,t5,s6
   11eb6:	00fc4c33          	xor	s8,s8,a5
   11eba:	01dbcbb3          	xor	s7,s7,t4
   11ebe:	007e4e33          	xor	t3,t3,t2
   11ec2:	010c4c33          	xor	s8,s8,a6
   11ec6:	00ebcbb3          	xor	s7,s7,a4
   11eca:	00de4e33          	xor	t3,t3,a3
   11ece:	03ff5613          	srli	a2,t5,0x3f
   11ed2:	03fad693          	srli	a3,s5,0x3f
   11ed6:	001a9793          	slli	a5,s5,0x1
   11eda:	001f1713          	slli	a4,t5,0x1
   11ede:	001b9d13          	slli	s10,s7,0x1
   11ee2:	001e1c93          	slli	s9,t3,0x1
   11ee6:	03fc5293          	srli	t0,s8,0x3f
   11eea:	03fbd593          	srli	a1,s7,0x3f
   11eee:	8fd5                	or	a5,a5,a3
   11ef0:	8f51                	or	a4,a4,a2
   11ef2:	03fe5693          	srli	a3,t3,0x3f
   11ef6:	001c1613          	slli	a2,s8,0x1
   11efa:	0187c7b3          	xor	a5,a5,s8
   11efe:	01574733          	xor	a4,a4,s5
   11f02:	00bd65b3          	or	a1,s10,a1
   11f06:	00dce6b3          	or	a3,s9,a3
   11f0a:	00566633          	or	a2,a2,t0
   11f0e:	01e5cd33          	xor	s10,a1,t5
   11f12:	01c642b3          	xor	t0,a2,t3
   11f16:	0176c6b3          	xor	a3,a3,s7
   11f1a:	007743b3          	xor	t2,a4,t2
   11f1e:	8c3d                	xor	s0,s0,a5
   11f20:	75aa                	ld	a1,168(sp)
   11f22:	0092ce33          	xor	t3,t0,s1
   11f26:	0146ca33          	xor	s4,a3,s4
   11f2a:	01445613          	srli	a2,s0,0x14
   11f2e:	01539f13          	slli	t5,t2,0x15
   11f32:	02b3d493          	srli	s1,t2,0x2b
   11f36:	1432                	slli	s0,s0,0x2c
   11f38:	00c46ab3          	or	s5,s0,a2
   11f3c:	01d7ceb3          	xor	t4,a5,t4
   11f40:	01e4e633          	or	a2,s1,t5
   11f44:	03da1b93          	slli	s7,s4,0x3d
   11f48:	003a5493          	srli	s1,s4,0x3
   11f4c:	6a26                	ld	s4,72(sp)
   11f4e:	013749b3          	xor	s3,a4,s3
   11f52:	8dbd                	xor	a1,a1,a5
   11f54:	0066c333          	xor	t1,a3,t1
   11f58:	013ed393          	srli	t2,t4,0x13
   11f5c:	1eb6                	slli	t4,t4,0x2d
   11f5e:	007ee433          	or	s0,t4,t2
   11f62:	0249dc13          	srli	s8,s3,0x24
   11f66:	01535e93          	srli	t4,t1,0x15
   11f6a:	01c99393          	slli	t2,s3,0x1c
   11f6e:	03f5dc93          	srli	s9,a1,0x3f
   11f72:	00159993          	slli	s3,a1,0x1
   11f76:	132e                	slli	t1,t1,0x2b
   11f78:	01d36333          	or	t1,t1,t4
   11f7c:	007c6eb3          	or	t4,s8,t2
   11f80:	013ce3b3          	or	t2,s9,s3
   11f84:	014d4c33          	xor	s8,s10,s4
   11f88:	6986                	ld	s3,64(sp)
   11f8a:	6a66                	ld	s4,88(sp)
   11f8c:	0122c933          	xor	s2,t0,s2
   11f90:	e432                	sd	a2,8(sp)
   11f92:	00891593          	slli	a1,s2,0x8
   11f96:	03895913          	srli	s2,s2,0x38
   11f9a:	0132ccb3          	xor	s9,t0,s3
   11f9e:	00b96933          	or	s2,s2,a1
   11fa2:	79ea                	ld	s3,184(sp)
   11fa4:	65a2                	ld	a1,8(sp)
   11fa6:	0162cb33          	xor	s6,t0,s6
   11faa:	e876                	sd	t4,16(sp)
   11fac:	0147ceb3          	xor	t4,a5,s4
   11fb0:	6a02                	ld	s4,0(sp)
   11fb2:	01b6c633          	xor	a2,a3,s11
   11fb6:	f022                	sd	s0,32(sp)
   11fb8:	00eb1f13          	slli	t5,s6,0xe
   11fbc:	014e1413          	slli	s0,t3,0x14
   11fc0:	02ce5d93          	srli	s11,t3,0x2c
   11fc4:	032b5b13          	srli	s6,s6,0x32
   11fc8:	01eb6b33          	or	s6,s6,t5
   11fcc:	008def33          	or	t5,s11,s0
   11fd0:	011d48b3          	xor	a7,s10,a7
   11fd4:	014d4db3          	xor	s11,s10,s4
   11fd8:	010d4833          	xor	a6,s10,a6
   11fdc:	ec7a                	sd	t5,24(sp)
   11fde:	e0d6                	sd	s5,64(sp)
   11fe0:	fffacf13          	not	t5,s5
   11fe4:	fff5ca93          	not	s5,a1
   11fe8:	013d45b3          	xor	a1,s10,s3
   11fec:	7d4a                	ld	s10,176(sp)
   11fee:	7402                	ld	s0,32(sp)
   11ff0:	01f6cfb3          	xor	t6,a3,t6
   11ff4:	01a6c6b3          	xor	a3,a3,s10
   11ff8:	7d06                	ld	s10,96(sp)
   11ffa:	8d39                	xor	a0,a0,a4
   11ffc:	00389e13          	slli	t3,a7,0x3
   12000:	009be4b3          	or	s1,s7,s1
   12004:	03d8d893          	srli	a7,a7,0x3d
   12008:	01c8e8b3          	or	a7,a7,t3
   1200c:	f426                	sd	s1,40(sp)
   1200e:	00661e13          	slli	t3,a2,0x6
   12012:	fff44a13          	not	s4,s0
   12016:	03a65493          	srli	s1,a2,0x3a
   1201a:	00ff9413          	slli	s0,t6,0xf
   1201e:	01951613          	slli	a2,a0,0x19
   12022:	031fdf93          	srli	t6,t6,0x31
   12026:	911d                	srli	a0,a0,0x27
   12028:	8d51                	or	a0,a0,a2
   1202a:	008fe9b3          	or	s3,t6,s0
   1202e:	01a2c633          	xor	a2,t0,s10
   12032:	6fe2                	ld	t6,24(sp)
   12034:	7d26                	ld	s10,104(sp)
   12036:	01c4e4b3          	or	s1,s1,t3
   1203a:	7bc2                	ld	s7,48(sp)
   1203c:	6e46                	ld	t3,80(sp)
   1203e:	01a7c7b3          	xor	a5,a5,s10
   12042:	f89e                	sd	t2,112(sp)
   12044:	ffffcd13          	not	s10,t6
   12048:	fcce                	sd	s3,120(sp)
   1204a:	ecea                	sd	s10,88(sp)
   1204c:	01774bb3          	xor	s7,a4,s7
   12050:	72a2                	ld	t0,40(sp)
   12052:	7d46                	ld	s10,112(sp)
   12054:	01c74733          	xor	a4,a4,t3
   12058:	6e42                	ld	t3,16(sp)
   1205a:	01281393          	slli	t2,a6,0x12
   1205e:	02e85813          	srli	a6,a6,0x2e
   12062:	00786833          	or	a6,a6,t2
   12066:	005a7a33          	and	s4,s4,t0
   1206a:	fff2c393          	not	t2,t0
   1206e:	f0ca                	sd	s2,96(sp)
   12070:	fffe4293          	not	t0,t3
   12074:	fffd4f93          	not	t6,s10
   12078:	fff94e13          	not	t3,s2
   1207c:	01bc9d13          	slli	s10,s9,0x1b
   12080:	025cd913          	srli	s2,s9,0x25
   12084:	01cc5c93          	srli	s9,s8,0x1c
   12088:	1c12                	slli	s8,s8,0x24
   1208a:	f86a                	sd	s10,48(sp)
   1208c:	fc62                	sd	s8,56(sp)
   1208e:	038b9d13          	slli	s10,s7,0x38
   12092:	008bdc13          	srli	s8,s7,0x8
   12096:	017ddb93          	srli	s7,s11,0x17
   1209a:	1da6                	slli	s11,s11,0x29
   1209c:	e06e                	sd	s11,0(sp)
   1209e:	7dc2                	ld	s11,48(sp)
   120a0:	e4e6                	sd	s9,72(sp)
   120a2:	016afab3          	and	s5,s5,s6
   120a6:	01b96db3          	or	s11,s2,s11
   120aa:	f86e                	sd	s11,48(sp)
   120ac:	6926                	ld	s2,72(sp)
   120ae:	7de2                	ld	s11,56(sp)
   120b0:	006f7f33          	and	t5,t5,t1
   120b4:	fff34993          	not	s3,t1
   120b8:	012dedb3          	or	s11,s11,s2
   120bc:	6902                	ld	s2,0(sp)
   120be:	006ac333          	xor	t1,s5,t1
   120c2:	e49a                	sd	t1,72(sp)
   120c4:	01796933          	or	s2,s2,s7
   120c8:	6be6                	ld	s7,88(sp)
   120ca:	6322                	ld	t1,8(sp)
   120cc:	018d6d33          	or	s10,s10,s8
   120d0:	011a4a33          	xor	s4,s4,a7
   120d4:	7c66                	ld	s8,120(sp)
   120d6:	011bfbb3          	and	s7,s7,a7
   120da:	fff8c413          	not	s0,a7
   120de:	7882                	ld	a7,32(sp)
   120e0:	0069f9b3          	and	s3,s3,t1
   120e4:	fffb4313          	not	t1,s6
   120e8:	00bf4f33          	xor	t5,t5,a1
   120ec:	01147433          	and	s0,s0,a7
   120f0:	e04a                	sd	s2,0(sp)
   120f2:	fffc4893          	not	a7,s8
   120f6:	00b37933          	and	s2,t1,a1
   120fa:	0026dc13          	srli	s8,a3,0x2
   120fe:	fff5c593          	not	a1,a1
   12102:	fc2e                	sd	a1,56(sp)
   12104:	16fa                	slli	a3,a3,0x3e
   12106:	85e2                	mv	a1,s8
   12108:	8ecd                	or	a3,a3,a1
   1210a:	658a                	ld	a1,128(sp)
   1210c:	00ae9c93          	slli	s9,t4,0xa
   12110:	036ede93          	srli	t4,t4,0x36
   12114:	019eeeb3          	or	t4,t4,s9
   12118:	00279c93          	slli	s9,a5,0x2
   1211c:	93f9                	srli	a5,a5,0x3e
   1211e:	0197e7b3          	or	a5,a5,s9
   12122:	00bf4cb3          	xor	s9,t5,a1
   12126:	6f06                	ld	t5,64(sp)
   12128:	01965c13          	srli	s8,a2,0x19
   1212c:	161e                	slli	a2,a2,0x27
   1212e:	01866633          	or	a2,a2,s8
   12132:	01e9cc33          	xor	s8,s3,t5
   12136:	69a2                	ld	s3,8(sp)
   12138:	ecde                	sd	s7,88(sp)
   1213a:	fd66                	sd	s9,184(sp)
   1213c:	6be2                	ld	s7,24(sp)
   1213e:	6ce6                	ld	s9,88(sp)
   12140:	013949b3          	xor	s3,s2,s3
   12144:	6942                	ld	s2,16(sp)
   12146:	0172f2b3          	and	t0,t0,s7
   1214a:	e8d2                	sd	s4,80(sp)
   1214c:	00975b93          	srli	s7,a4,0x9
   12150:	012cc933          	xor	s2,s9,s2
   12154:	e0e2                	sd	s8,64(sp)
   12156:	e44e                	sd	s3,8(sp)
   12158:	175e                	slli	a4,a4,0x37
   1215a:	01776733          	or	a4,a4,s7
   1215e:	6a42                	ld	s4,16(sp)
   12160:	e84a                	sd	s2,16(sp)
   12162:	6be2                	ld	s7,24(sp)
   12164:	0143f3b3          	and	t2,t2,s4
   12168:	75e2                	ld	a1,56(sp)
   1216a:	01744bb3          	xor	s7,s0,s7
   1216e:	7402                	ld	s0,32(sp)
   12170:	6cc6                	ld	s9,80(sp)
   12172:	009fffb3          	and	t6,t6,s1
   12176:	0083c433          	xor	s0,t2,s0
   1217a:	7386                	ld	t2,96(sp)
   1217c:	6926                	ld	s2,72(sp)
   1217e:	fff54a93          	not	s5,a0
   12182:	010e7e33          	and	t3,t3,a6
   12186:	fff84313          	not	t1,a6
   1218a:	010fc833          	xor	a6,t6,a6
   1218e:	ecc2                	sd	a6,88(sp)
   12190:	007afab3          	and	s5,s5,t2
   12194:	01e5f833          	and	a6,a1,t5
   12198:	01994933          	xor	s2,s2,s9
   1219c:	01684cb3          	xor	s9,a6,s6
   121a0:	009acb33          	xor	s6,s5,s1
   121a4:	f022                	sd	s0,32(sp)
   121a6:	7aea                	ld	s5,184(sp)
   121a8:	7422                	ld	s0,40(sp)
   121aa:	f45a                	sd	s6,40(sp)
   121ac:	6b42                	ld	s6,16(sp)
   121ae:	ec5e                	sd	s7,24(sp)
   121b0:	79c2                	ld	s3,48(sp)
   121b2:	fff4ca13          	not	s4,s1
   121b6:	016acb33          	xor	s6,s5,s6
   121ba:	6486                	ld	s1,64(sp)
   121bc:	6ae2                	ld	s5,24(sp)
   121be:	0082cc33          	xor	s8,t0,s0
   121c2:	00ae4e33          	xor	t3,t3,a0
   121c6:	00aa7a33          	and	s4,s4,a0
   121ca:	fffd4413          	not	s0,s10
   121ce:	7546                	ld	a0,112(sp)
   121d0:	6f82                	ld	t6,0(sp)
   121d2:	fff9cf13          	not	t5,s3
   121d6:	01347433          	and	s0,s0,s3
   121da:	0154c9b3          	xor	s3,s1,s5
   121de:	6aa2                	ld	s5,8(sp)
   121e0:	7482                	ld	s1,32(sp)
   121e2:	00aa4a33          	xor	s4,s4,a0
   121e6:	fc6e                	sd	s11,56(sp)
   121e8:	00a37333          	and	t1,t1,a0
   121ec:	fffdc593          	not	a1,s11
   121f0:	7566                	ld	a0,120(sp)
   121f2:	01bf7f33          	and	t5,t5,s11
   121f6:	7dc2                	ld	s11,48(sp)
   121f8:	01a8f8b3          	and	a7,a7,s10
   121fc:	009ac4b3          	xor	s1,s5,s1
   12200:	ffffcf93          	not	t6,t6
   12204:	6ae6                	ld	s5,88(sp)
   12206:	01d8c8b3          	xor	a7,a7,t4
   1220a:	fffec293          	not	t0,t4
   1220e:	01d5f5b3          	and	a1,a1,t4
   12212:	00ffffb3          	and	t6,t6,a5
   12216:	fff74e93          	not	t4,a4
   1221a:	01b5c5b3          	xor	a1,a1,s11
   1221e:	8c29                	xor	s0,s0,a0
   12220:	7de2                	ld	s11,56(sp)
   12222:	00cfcfb3          	xor	t6,t6,a2
   12226:	00a2f2b3          	and	t0,t0,a0
   1222a:	fff64b93          	not	s7,a2
   1222e:	6502                	ld	a0,0(sp)
   12230:	00cefeb3          	and	t4,t4,a2
   12234:	7622                	ld	a2,40(sp)
   12236:	00734333          	xor	t1,t1,t2
   1223a:	01c94933          	xor	s2,s2,t3
   1223e:	fff6c393          	not	t2,a3
   12242:	015c4ab3          	xor	s5,s8,s5
   12246:	01af4f33          	xor	t5,t5,s10
   1224a:	00e3f3b3          	and	t2,t2,a4
   1224e:	014b4b33          	xor	s6,s6,s4
   12252:	01194933          	xor	s2,s2,a7
   12256:	019acab3          	xor	s5,s5,s9
   1225a:	01f94933          	xor	s2,s2,t6
   1225e:	01b2c2b3          	xor	t0,t0,s11
   12262:	00deceb3          	xor	t4,t4,a3
   12266:	00f3c3b3          	xor	t2,t2,a5
   1226a:	fff7c813          	not	a6,a5
   1226e:	00abfbb3          	and	s7,s7,a0
   12272:	00c9c9b3          	xor	s3,s3,a2
   12276:	00bb4b33          	xor	s6,s6,a1
   1227a:	01eacab3          	xor	s5,s5,t5
   1227e:	01db4b33          	xor	s6,s6,t4
   12282:	007acab3          	xor	s5,s5,t2
   12286:	00ebcbb3          	xor	s7,s7,a4
   1228a:	00d87833          	and	a6,a6,a3
   1228e:	0064c4b3          	xor	s1,s1,t1
   12292:	03f95693          	srli	a3,s2,0x3f
   12296:	0059c9b3          	xor	s3,s3,t0
   1229a:	00191713          	slli	a4,s2,0x1
   1229e:	0179c9b3          	xor	s3,s3,s7
   122a2:	00a84833          	xor	a6,a6,a0
   122a6:	001a9d93          	slli	s11,s5,0x1
   122aa:	001b1d13          	slli	s10,s6,0x1
   122ae:	8ca1                	xor	s1,s1,s0
   122b0:	8f55                	or	a4,a4,a3
   122b2:	03fad613          	srli	a2,s5,0x3f
   122b6:	03fb5693          	srli	a3,s6,0x3f
   122ba:	01674733          	xor	a4,a4,s6
   122be:	0104c4b3          	xor	s1,s1,a6
   122c2:	03f9db13          	srli	s6,s3,0x3f
   122c6:	00199793          	slli	a5,s3,0x1
   122ca:	00cde633          	or	a2,s11,a2
   122ce:	00dd66b3          	or	a3,s10,a3
   122d2:	01264633          	xor	a2,a2,s2
   122d6:	8ea5                	xor	a3,a3,s1
   122d8:	6962                	ld	s2,24(sp)
   122da:	6d22                	ld	s10,8(sp)
   122dc:	00149513          	slli	a0,s1,0x1
   122e0:	0167e7b3          	or	a5,a5,s6
   122e4:	03f4db13          	srli	s6,s1,0x3f
   122e8:	64c6                	ld	s1,80(sp)
   122ea:	01656533          	or	a0,a0,s6
   122ee:	01354533          	xor	a0,a0,s3
   122f2:	0157c7b3          	xor	a5,a5,s5
   122f6:	00e94b33          	xor	s6,s2,a4
   122fa:	00cd4ab3          	xor	s5,s10,a2
   122fe:	00a4c933          	xor	s2,s1,a0
   12302:	6986                	ld	s3,64(sp)
   12304:	64c2                	ld	s1,16(sp)
   12306:	7d22                	ld	s10,40(sp)
   12308:	6da6                	ld	s11,72(sp)
   1230a:	00ae4e33          	xor	t3,t3,a0
   1230e:	00e2c2b3          	xor	t0,t0,a4
   12312:	00afcfb3          	xor	t6,t6,a0
   12316:	00e9c9b3          	xor	s3,s3,a4
   1231a:	00ed4d33          	xor	s10,s10,a4
   1231e:	00a8c8b3          	xor	a7,a7,a0
   12322:	00ebc733          	xor	a4,s7,a4
   12326:	00adc533          	xor	a0,s11,a0
   1232a:	014b5b93          	srli	s7,s6,0x14
   1232e:	7d82                	ld	s11,32(sp)
   12330:	1b32                	slli	s6,s6,0x2c
   12332:	017b6b33          	or	s6,s6,s7
   12336:	8c31                	xor	s0,s0,a2
   12338:	f55a                	sd	s6,168(sp)
   1233a:	015e5b13          	srli	s6,t3,0x15
   1233e:	1e2e                	slli	t3,t3,0x2b
   12340:	00d3c3b3          	xor	t2,t2,a3
   12344:	00c34333          	xor	t1,t1,a2
   12348:	00c84833          	xor	a6,a6,a2
   1234c:	f972                	sd	t3,176(sp)
   1234e:	00cdc633          	xor	a2,s11,a2
   12352:	01541e13          	slli	t3,s0,0x15
   12356:	6de6                	ld	s11,88(sp)
   12358:	902d                	srli	s0,s0,0x2b
   1235a:	00dc4c33          	xor	s8,s8,a3
   1235e:	e0a2                	sd	s0,64(sp)
   12360:	00e39413          	slli	s0,t2,0xe
   12364:	0323d393          	srli	t2,t2,0x32
   12368:	00fa4a33          	xor	s4,s4,a5
   1236c:	e49e                	sd	t2,72(sp)
   1236e:	024adb93          	srli	s7,s5,0x24
   12372:	01ca9393          	slli	t2,s5,0x1c
   12376:	014c1a93          	slli	s5,s8,0x14
   1237a:	02cc5c13          	srli	s8,s8,0x2c
   1237e:	00df4f33          	xor	t5,t5,a3
   12382:	00dcccb3          	xor	s9,s9,a3
   12386:	ece2                	sd	s8,88(sp)
   12388:	00ddc6b3          	xor	a3,s11,a3
   1238c:	003a1c13          	slli	s8,s4,0x3
   12390:	03da5d93          	srli	s11,s4,0x3d
   12394:	0132da13          	srli	s4,t0,0x13
   12398:	12b6                	slli	t0,t0,0x2d
   1239a:	f096                	sd	t0,96(sp)
   1239c:	003fd293          	srli	t0,t6,0x3
   123a0:	1ff6                	slli	t6,t6,0x3d
   123a2:	f4fe                	sd	t6,104(sp)
   123a4:	00199f93          	slli	t6,s3,0x1
   123a8:	03f9d993          	srli	s3,s3,0x3f
   123ac:	f8ce                	sd	s3,112(sp)
   123ae:	00691993          	slli	s3,s2,0x6
   123b2:	03a95913          	srli	s2,s2,0x3a
   123b6:	fcca                	sd	s2,120(sp)
   123b8:	01931913          	slli	s2,t1,0x19
   123bc:	02735313          	srli	t1,t1,0x27
   123c0:	00feceb3          	xor	t4,t4,a5
   123c4:	e11a                	sd	t1,128(sp)
   123c6:	008f1313          	slli	t1,t5,0x8
   123ca:	038f5f13          	srli	t5,t5,0x38
   123ce:	e57a                	sd	t5,136(sp)
   123d0:	012e9f13          	slli	t5,t4,0x12
   123d4:	02eede93          	srli	t4,t4,0x2e
   123d8:	8cbd                	xor	s1,s1,a5
   123da:	e976                	sd	t4,144(sp)
   123dc:	01bc9e93          	slli	t4,s9,0x1b
   123e0:	025cdc93          	srli	s9,s9,0x25
   123e4:	e066                	sd	s9,0(sp)
   123e6:	01c4dc93          	srli	s9,s1,0x1c
   123ea:	1492                	slli	s1,s1,0x24
   123ec:	ed26                	sd	s1,152(sp)
   123ee:	00ad1493          	slli	s1,s10,0xa
   123f2:	036d5d13          	srli	s10,s10,0x36
   123f6:	f16a                	sd	s10,160(sp)
   123f8:	00f89d13          	slli	s10,a7,0xf
   123fc:	0318d893          	srli	a7,a7,0x31
   12400:	e446                	sd	a7,8(sp)
   12402:	00885893          	srli	a7,a6,0x8
   12406:	1862                	slli	a6,a6,0x38
   12408:	e842                	sd	a6,16(sp)
   1240a:	00255813          	srli	a6,a0,0x2
   1240e:	157a                	slli	a0,a0,0x3e
   12410:	ec2a                	sd	a0,24(sp)
   12412:	00965513          	srli	a0,a2,0x9
   12416:	165e                	slli	a2,a2,0x37
   12418:	8dbd                	xor	a1,a1,a5
   1241a:	f032                	sd	a2,32(sp)
   1241c:	0196d613          	srli	a2,a3,0x19
   12420:	169e                	slli	a3,a3,0x27
   12422:	f436                	sd	a3,40(sp)
   12424:	0175d693          	srli	a3,a1,0x17
   12428:	15a6                	slli	a1,a1,0x29
   1242a:	f82e                	sd	a1,48(sp)
   1242c:	00271593          	slli	a1,a4,0x2
   12430:	e8de                	sd	s7,80(sp)
   12432:	8bae                	mv	s7,a1
   12434:	6586                	ld	a1,64(sp)
   12436:	9379                	srli	a4,a4,0x3e
   12438:	fc3a                	sd	a4,56(sp)
   1243a:	01c5ee33          	or	t3,a1,t3
   1243e:	65a6                	ld	a1,72(sp)
   12440:	776a                	ld	a4,184(sp)
   12442:	018dedb3          	or	s11,s11,s8
   12446:	8c4d                	or	s0,s0,a1
   12448:	65c6                	ld	a1,80(sp)
   1244a:	8fb9                	xor	a5,a5,a4
   1244c:	774a                	ld	a4,176(sp)
   1244e:	0075e3b3          	or	t2,a1,t2
   12452:	65e6                	ld	a1,88(sp)
   12454:	7c02                	ld	s8,32(sp)
   12456:	01676733          	or	a4,a4,s6
   1245a:	0155eab3          	or	s5,a1,s5
   1245e:	7586                	ld	a1,96(sp)
   12460:	00ac6533          	or	a0,s8,a0
   12464:	7c22                	ld	s8,40(sp)
   12466:	0145ea33          	or	s4,a1,s4
   1246a:	75a6                	ld	a1,104(sp)
   1246c:	00cc6633          	or	a2,s8,a2
   12470:	f02a                	sd	a0,32(sp)
   12472:	0055e2b3          	or	t0,a1,t0
   12476:	75c6                	ld	a1,112(sp)
   12478:	7542                	ld	a0,48(sp)
   1247a:	7b2a                	ld	s6,168(sp)
   1247c:	01f5efb3          	or	t6,a1,t6
   12480:	75e6                	ld	a1,120(sp)
   12482:	f432                	sd	a2,40(sp)
   12484:	7662                	ld	a2,56(sp)
   12486:	0135e5b3          	or	a1,a1,s3
   1248a:	698a                	ld	s3,128(sp)
   1248c:	8ec9                	or	a3,a3,a0
   1248e:	f836                	sd	a3,48(sp)
   12490:	0129e933          	or	s2,s3,s2
   12494:	69aa                	ld	s3,136(sp)
   12496:	017666b3          	or	a3,a2,s7
   1249a:	fffb4c13          	not	s8,s6
   1249e:	0069e333          	or	t1,s3,t1
   124a2:	69ca                	ld	s3,144(sp)
   124a4:	fff74b93          	not	s7,a4
   124a8:	fc36                	sd	a3,56(sp)
   124aa:	01e9ef33          	or	t5,s3,t5
   124ae:	6982                	ld	s3,0(sp)
   124b0:	00ec7c33          	and	s8,s8,a4
   124b4:	f93a                	sd	a4,176(sp)
   124b6:	01d9eeb3          	or	t4,s3,t4
   124ba:	69ea                	ld	s3,152(sp)
   124bc:	e076                	sd	t4,0(sp)
   124be:	fd5e                	sd	s7,184(sp)
   124c0:	0199ecb3          	or	s9,s3,s9
   124c4:	798a                	ld	s3,160(sp)
   124c6:	e0f2                	sd	t3,64(sp)
   124c8:	e4a2                	sd	s0,72(sp)
   124ca:	0099e4b3          	or	s1,s3,s1
   124ce:	69c2                	ld	s3,16(sp)
   124d0:	8ea6                	mv	t4,s1
   124d2:	64a2                	ld	s1,8(sp)
   124d4:	0119e8b3          	or	a7,s3,a7
   124d8:	69e2                	ld	s3,24(sp)
   124da:	01a4e4b3          	or	s1,s1,s10
   124de:	e426                	sd	s1,8(sp)
   124e0:	0109e9b3          	or	s3,s3,a6
   124e4:	e846                	sd	a7,16(sp)
   124e6:	ec4e                	sd	s3,24(sp)
   124e8:	fff44713          	not	a4,s0
   124ec:	ecd6                	sd	s5,88(sp)
   124ee:	f0d2                	sd	s4,96(sp)
   124f0:	00fc4c33          	xor	s8,s8,a5
   124f4:	8f7d                	and	a4,a4,a5
   124f6:	fff7cd13          	not	s10,a5
   124fa:	77aa                	ld	a5,168(sp)
   124fc:	f496                	sd	t0,104(sp)
   124fe:	fffdc693          	not	a3,s11
   12502:	00fd7d33          	and	s10,s10,a5
   12506:	7786                	ld	a5,96(sp)
   12508:	e89e                	sd	t2,80(sp)
   1250a:	fffa4613          	not	a2,s4
   1250e:	8efd                	and	a3,a3,a5
   12510:	77a6                	ld	a5,104(sp)
   12512:	e97a                	sd	t5,144(sp)
   12514:	fff2c493          	not	s1,t0
   12518:	8e7d                	and	a2,a2,a5
   1251a:	67c6                	ld	a5,80(sp)
   1251c:	ffff4513          	not	a0,t5
   12520:	ed66                	sd	s9,152(sp)
   12522:	fffccf13          	not	t5,s9
   12526:	7ca2                	ld	s9,40(sp)
   12528:	fcae                	sd	a1,120(sp)
   1252a:	8cfd                	and	s1,s1,a5
   1252c:	fff5c893          	not	a7,a1
   12530:	67e6                	ld	a5,88(sp)
   12532:	75e2                	ld	a1,56(sp)
   12534:	e14a                	sd	s2,128(sp)
   12536:	fffccb93          	not	s7,s9
   1253a:	fffe4993          	not	s3,t3
   1253e:	fff3ce13          	not	t3,t2
   12542:	edde                	sd	s7,216(sp)
   12544:	fff5cc93          	not	s9,a1
   12548:	7bea                	ld	s7,184(sp)
   1254a:	6586                	ld	a1,64(sp)
   1254c:	00fe7e33          	and	t3,t3,a5
   12550:	678a                	ld	a5,128(sp)
   12552:	e51a                	sd	t1,136(sp)
   12554:	6822                	ld	a6,8(sp)
   12556:	00bbfbb3          	and	s7,s7,a1
   1255a:	00f8f8b3          	and	a7,a7,a5
   1255e:	65a6                	ld	a1,72(sp)
   12560:	67aa                	ld	a5,136(sp)
   12562:	fff94293          	not	t0,s2
   12566:	6b42                	ld	s6,16(sp)
   12568:	7a02                	ld	s4,32(sp)
   1256a:	f8fe                	sd	t6,112(sp)
   1256c:	fffac413          	not	s0,s5
   12570:	00b9f9b3          	and	s3,s3,a1
   12574:	ffffca93          	not	s5,t6
   12578:	65ca                	ld	a1,144(sp)
   1257a:	fff84f93          	not	t6,a6
   1257e:	00f2f2b3          	and	t0,t0,a5
   12582:	6802                	ld	a6,0(sp)
   12584:	77e6                	ld	a5,120(sp)
   12586:	f176                	sd	t4,160(sp)
   12588:	fff34313          	not	t1,t1
   1258c:	fffb4393          	not	t2,s6
   12590:	fff84913          	not	s2,a6
   12594:	6b62                	ld	s6,24(sp)
   12596:	fffa4813          	not	a6,s4
   1259a:	e9de                	sd	s7,208(sp)
   1259c:	7a42                	ld	s4,48(sp)
   1259e:	00b37333          	and	t1,t1,a1
   125a2:	00fafab3          	and	s5,s5,a5
   125a6:	75c6                	ld	a1,112(sp)
   125a8:	778a                	ld	a5,160(sp)
   125aa:	fffece93          	not	t4,t4
   125ae:	8d6d                	and	a0,a0,a1
   125b0:	00ff7f33          	and	t5,t5,a5
   125b4:	67a2                	ld	a5,8(sp)
   125b6:	65c2                	ld	a1,16(sp)
   125b8:	6bee                	ld	s7,216(sp)
   125ba:	00fefeb3          	and	t4,t4,a5
   125be:	6782                	ld	a5,0(sp)
   125c0:	00bfffb3          	and	t6,t6,a1
   125c4:	75a2                	ld	a1,40(sp)
   125c6:	00f3f3b3          	and	t2,t2,a5
   125ca:	67ea                	ld	a5,152(sp)
   125cc:	00b87833          	and	a6,a6,a1
   125d0:	75e2                	ld	a1,56(sp)
   125d2:	00f97933          	and	s2,s2,a5
   125d6:	77c2                	ld	a5,48(sp)
   125d8:	fffa4a13          	not	s4,s4
   125dc:	00ba7a33          	and	s4,s4,a1
   125e0:	00fbf7b3          	and	a5,s7,a5
   125e4:	6b8e                	ld	s7,192(sp)
   125e6:	65e2                	ld	a1,24(sp)
   125e8:	fffb4b13          	not	s6,s6
   125ec:	017c4bb3          	xor	s7,s8,s7
   125f0:	fd5e                	sd	s7,184(sp)
   125f2:	7c2a                	ld	s8,168(sp)
   125f4:	6bce                	ld	s7,208(sp)
   125f6:	00bcfcb3          	and	s9,s9,a1
   125fa:	7582                	ld	a1,32(sp)
   125fc:	018bcbb3          	xor	s7,s7,s8
   12600:	7c4a                	ld	s8,176(sp)
   12602:	00bb7b33          	and	s6,s6,a1
   12606:	6586                	ld	a1,64(sp)
   12608:	0189c9b3          	xor	s3,s3,s8
   1260c:	f94e                	sd	s3,176(sp)
   1260e:	00b749b3          	xor	s3,a4,a1
   12612:	6746                	ld	a4,80(sp)
   12614:	01b47433          	and	s0,s0,s11
   12618:	65a6                	ld	a1,72(sp)
   1261a:	8c39                	xor	s0,s0,a4
   1261c:	6766                	ld	a4,88(sp)
   1261e:	e4a2                	sd	s0,72(sp)
   12620:	f55e                	sd	s7,168(sp)
   12622:	00e6c433          	xor	s0,a3,a4
   12626:	7706                	ld	a4,96(sp)
   12628:	00bd4bb3          	xor	s7,s10,a1
   1262c:	75c6                	ld	a1,112(sp)
   1262e:	00e4c6b3          	xor	a3,s1,a4
   12632:	7726                	ld	a4,104(sp)
   12634:	00b8c8b3          	xor	a7,a7,a1
   12638:	75e6                	ld	a1,120(sp)
   1263a:	00ee44b3          	xor	s1,t3,a4
   1263e:	670a                	ld	a4,128(sp)
   12640:	e8b6                	sd	a3,80(sp)
   12642:	00b2c6b3          	xor	a3,t0,a1
   12646:	00e34333          	xor	t1,t1,a4
   1264a:	672a                	ld	a4,136(sp)
   1264c:	ecb6                	sd	a3,88(sp)
   1264e:	e0de                	sd	s7,64(sp)
   12650:	65ca                	ld	a1,144(sp)
   12652:	8d39                	xor	a0,a0,a4
   12654:	6702                	ld	a4,0(sp)
   12656:	00bac6b3          	xor	a3,s5,a1
   1265a:	f0b6                	sd	a3,96(sp)
   1265c:	00ef46b3          	xor	a3,t5,a4
   12660:	676a                	ld	a4,152(sp)
   12662:	65c2                	ld	a1,16(sp)
   12664:	e036                	sd	a3,0(sp)
   12666:	00eeceb3          	xor	t4,t4,a4
   1266a:	770a                	ld	a4,160(sp)
   1266c:	00b94933          	xor	s2,s2,a1
   12670:	65e2                	ld	a1,24(sp)
   12672:	00efcfb3          	xor	t6,t6,a4
   12676:	6722                	ld	a4,8(sp)
   12678:	00b84833          	xor	a6,a6,a1
   1267c:	7582                	ld	a1,32(sp)
   1267e:	00e3c3b3          	xor	t2,t2,a4
   12682:	7742                	ld	a4,48(sp)
   12684:	8fad                	xor	a5,a5,a1
   12686:	f4be                	sd	a5,104(sp)
   12688:	00ecc7b3          	xor	a5,s9,a4
   1268c:	f83e                	sd	a5,48(sp)
   1268e:	77e2                	ld	a5,56(sp)
   12690:	75a2                	ld	a1,40(sp)
   12692:	770e                	ld	a4,224(sp)
   12694:	00fb4b33          	xor	s6,s6,a5
   12698:	67ae                	ld	a5,200(sp)
   1269a:	01b64db3          	xor	s11,a2,s11
   1269e:	00ba4a33          	xor	s4,s4,a1
   126a2:	faf71c63          	bne	a4,a5,11e5a <_ZL24KeccakF1600_StatePermutePm+0xac>
   126a6:	776a                	ld	a4,184(sp)
   126a8:	82aa                	mv	t0,a0
   126aa:	752e                	ld	a0,232(sp)
   126ac:	e118                	sd	a4,0(a0)
   126ae:	772a                	ld	a4,168(sp)
   126b0:	01353c23          	sd	s3,24(a0)
   126b4:	f900                	sd	s0,48(a0)
   126b6:	e518                	sd	a4,8(a0)
   126b8:	774a                	ld	a4,176(sp)
   126ba:	03b53c23          	sd	s11,56(a0)
   126be:	e524                	sd	s1,72(a0)
   126c0:	e918                	sd	a4,16(a0)
   126c2:	6706                	ld	a4,64(sp)
   126c4:	09253c23          	sd	s2,152(a0)
   126c8:	05153823          	sd	a7,80(a0)
   126cc:	f118                	sd	a4,32(a0)
   126ce:	6726                	ld	a4,72(sp)
   126d0:	06653023          	sd	t1,96(a0)
   126d4:	06553423          	sd	t0,104(a0)
   126d8:	f518                	sd	a4,40(a0)
   126da:	6746                	ld	a4,80(sp)
   126dc:	09d53023          	sd	t4,128(a0)
   126e0:	09f53423          	sd	t6,136(a0)
   126e4:	e138                	sd	a4,64(a0)
   126e6:	6766                	ld	a4,88(sp)
   126e8:	08753823          	sd	t2,144(a0)
   126ec:	0b053023          	sd	a6,160(a0)
   126f0:	ed38                	sd	a4,88(a0)
   126f2:	7706                	ld	a4,96(sp)
   126f4:	f938                	sd	a4,112(a0)
   126f6:	6702                	ld	a4,0(sp)
   126f8:	fd38                	sd	a4,120(a0)
   126fa:	7726                	ld	a4,104(sp)
   126fc:	f558                	sd	a4,168(a0)
   126fe:	7742                	ld	a4,48(sp)
   12700:	6436                	ld	s0,328(sp)
   12702:	0b453823          	sd	s4,176(a0)
   12706:	0d653023          	sd	s6,192(a0)
   1270a:	fd58                	sd	a4,184(a0)
   1270c:	6496                	ld	s1,320(sp)
   1270e:	7972                	ld	s2,312(sp)
   12710:	79d2                	ld	s3,304(sp)
   12712:	7a32                	ld	s4,296(sp)
   12714:	7a92                	ld	s5,288(sp)
   12716:	6b72                	ld	s6,280(sp)
   12718:	6bd2                	ld	s7,272(sp)
   1271a:	6c32                	ld	s8,264(sp)
   1271c:	6c92                	ld	s9,256(sp)
   1271e:	7d6e                	ld	s10,248(sp)
   12720:	7dce                	ld	s11,240(sp)
   12722:	6171                	addi	sp,sp,336
   12724:	8082                	ret

0000000000012726 <_ZL13keccak_absorbPmjPKhmh.constprop.0>:
   12726:	716d                	addi	sp,sp,-272
   12728:	87ae                	mv	a5,a1
   1272a:	e222                	sd	s0,256(sp)
   1272c:	f9ca                	sd	s2,240(sp)
   1272e:	842a                	mv	s0,a0
   12730:	4581                	li	a1,0
   12732:	8932                	mv	s2,a2
   12734:	1008                	addi	a0,sp,32
   12736:	0c000613          	li	a2,192
   1273a:	e43e                	sd	a5,8(sp)
   1273c:	e606                	sd	ra,264(sp)
   1273e:	fda6                	sd	s1,248(sp)
   12740:	f5ce                	sd	s3,232(sp)
   12742:	f1d2                	sd	s4,224(sp)
   12744:	ec02                	sd	zero,24(sp)
   12746:	249040ef          	jal	ra,1718e <memset>
   1274a:	0c800613          	li	a2,200
   1274e:	4581                	li	a1,0
   12750:	8522                	mv	a0,s0
   12752:	23d040ef          	jal	ra,1718e <memset>
   12756:	08700713          	li	a4,135
   1275a:	67a2                	ld	a5,8(sp)
   1275c:	09277063          	bgeu	a4,s2,127dc <_ZL13keccak_absorbPmjPKhmh.constprop.0+0xb6>
   12760:	08878a13          	addi	s4,a5,136
   12764:	89d2                	mv	s3,s4
   12766:	08700493          	li	s1,135
   1276a:	88a2                	mv	a7,s0
   1276c:	0017c703          	lbu	a4,1(a5)
   12770:	0027c683          	lbu	a3,2(a5)
   12774:	0007c303          	lbu	t1,0(a5)
   12778:	0037c803          	lbu	a6,3(a5)
   1277c:	0047c503          	lbu	a0,4(a5)
   12780:	06c2                	slli	a3,a3,0x10
   12782:	0722                	slli	a4,a4,0x8
   12784:	0057c583          	lbu	a1,5(a5)
   12788:	8f55                	or	a4,a4,a3
   1278a:	0067c603          	lbu	a2,6(a5)
   1278e:	00676733          	or	a4,a4,t1
   12792:	0862                	slli	a6,a6,0x18
   12794:	0077c683          	lbu	a3,7(a5)
   12798:	00e86733          	or	a4,a6,a4
   1279c:	1502                	slli	a0,a0,0x20
   1279e:	8d59                	or	a0,a0,a4
   127a0:	02859713          	slli	a4,a1,0x28
   127a4:	8f49                	or	a4,a4,a0
   127a6:	0008b583          	ld	a1,0(a7)
   127aa:	1642                	slli	a2,a2,0x30
   127ac:	8e59                	or	a2,a2,a4
   127ae:	03869713          	slli	a4,a3,0x38
   127b2:	8f51                	or	a4,a4,a2
   127b4:	8f2d                	xor	a4,a4,a1
   127b6:	00e8b023          	sd	a4,0(a7)
   127ba:	07a1                	addi	a5,a5,8
   127bc:	08a1                	addi	a7,a7,8
   127be:	faf997e3          	bne	s3,a5,1276c <_ZL13keccak_absorbPmjPKhmh.constprop.0+0x46>
   127c2:	8522                	mv	a0,s0
   127c4:	deaff0ef          	jal	ra,11dae <_ZL24KeccakF1600_StatePermutePm>
   127c8:	f7890913          	addi	s2,s2,-136
   127cc:	87d2                	mv	a5,s4
   127ce:	08898993          	addi	s3,s3,136
   127d2:	0124f563          	bgeu	s1,s2,127dc <_ZL13keccak_absorbPmjPKhmh.constprop.0+0xb6>
   127d6:	088a0a13          	addi	s4,s4,136
   127da:	bf41                	j	1276a <_ZL13keccak_absorbPmjPKhmh.constprop.0+0x44>
   127dc:	0834                	addi	a3,sp,24
   127de:	00090863          	beqz	s2,127ee <_ZL13keccak_absorbPmjPKhmh.constprop.0+0xc8>
   127e2:	8536                	mv	a0,a3
   127e4:	864a                	mv	a2,s2
   127e6:	85be                	mv	a1,a5
   127e8:	788040ef          	jal	ra,16f70 <memcpy>
   127ec:	86aa                	mv	a3,a0
   127ee:	0d090793          	addi	a5,s2,208
   127f2:	0818                	addi	a4,sp,16
   127f4:	00e78933          	add	s2,a5,a4
   127f8:	47fd                	li	a5,31
   127fa:	f2f90c23          	sb	a5,-200(s2)
   127fe:	09f14703          	lbu	a4,159(sp)
   12802:	87b6                	mv	a5,a3
   12804:	0a010313          	addi	t1,sp,160
   12808:	f8076713          	ori	a4,a4,-128
   1280c:	08e10fa3          	sb	a4,159(sp)
   12810:	0017c703          	lbu	a4,1(a5)
   12814:	0027c683          	lbu	a3,2(a5)
   12818:	0007c883          	lbu	a7,0(a5)
   1281c:	0037c803          	lbu	a6,3(a5)
   12820:	0047c503          	lbu	a0,4(a5)
   12824:	06c2                	slli	a3,a3,0x10
   12826:	0722                	slli	a4,a4,0x8
   12828:	0057c583          	lbu	a1,5(a5)
   1282c:	8f55                	or	a4,a4,a3
   1282e:	0067c603          	lbu	a2,6(a5)
   12832:	01176733          	or	a4,a4,a7
   12836:	0862                	slli	a6,a6,0x18
   12838:	0077c683          	lbu	a3,7(a5)
   1283c:	00e86733          	or	a4,a6,a4
   12840:	1502                	slli	a0,a0,0x20
   12842:	8d59                	or	a0,a0,a4
   12844:	02859713          	slli	a4,a1,0x28
   12848:	8f49                	or	a4,a4,a0
   1284a:	600c                	ld	a1,0(s0)
   1284c:	1642                	slli	a2,a2,0x30
   1284e:	8e59                	or	a2,a2,a4
   12850:	03869713          	slli	a4,a3,0x38
   12854:	8f51                	or	a4,a4,a2
   12856:	8f2d                	xor	a4,a4,a1
   12858:	e018                	sd	a4,0(s0)
   1285a:	07a1                	addi	a5,a5,8
   1285c:	0421                	addi	s0,s0,8
   1285e:	faf319e3          	bne	t1,a5,12810 <_ZL13keccak_absorbPmjPKhmh.constprop.0+0xea>
   12862:	60b2                	ld	ra,264(sp)
   12864:	6412                	ld	s0,256(sp)
   12866:	74ee                	ld	s1,248(sp)
   12868:	794e                	ld	s2,240(sp)
   1286a:	79ae                	ld	s3,232(sp)
   1286c:	7a0e                	ld	s4,224(sp)
   1286e:	6151                	addi	sp,sp,272
   12870:	8082                	ret

0000000000012872 <_Z14keccak_absorb1PmjPKhmh>:
   12872:	712d                	addi	sp,sp,-288
   12874:	ea22                	sd	s0,272(sp)
   12876:	fdce                	sd	s3,248(sp)
   12878:	edde                	sd	s7,216(sp)
   1287a:	89ae                	mv	s3,a1
   1287c:	842a                	mv	s0,a0
   1287e:	4581                	li	a1,0
   12880:	8bb2                	mv	s7,a2
   12882:	0808                	addi	a0,sp,16
   12884:	0c000613          	li	a2,192
   12888:	ee06                	sd	ra,280(sp)
   1288a:	e626                	sd	s1,264(sp)
   1288c:	e24a                	sd	s2,256(sp)
   1288e:	f9d2                	sd	s4,240(sp)
   12890:	f5d6                	sd	s5,232(sp)
   12892:	f1da                	sd	s6,224(sp)
   12894:	8a3a                	mv	s4,a4
   12896:	8b36                	mv	s6,a3
   12898:	e9e2                	sd	s8,208(sp)
   1289a:	e402                	sd	zero,8(sp)
   1289c:	02099a93          	slli	s5,s3,0x20
   128a0:	0ef040ef          	jal	ra,1718e <memset>
   128a4:	0c800613          	li	a2,200
   128a8:	4581                	li	a1,0
   128aa:	8522                	mv	a0,s0
   128ac:	0039d91b          	srliw	s2,s3,0x3
   128b0:	020ada93          	srli	s5,s5,0x20
   128b4:	0db040ef          	jal	ra,1718e <memset>
   128b8:	84ca                	mv	s1,s2
   128ba:	075b6d63          	bltu	s6,s5,12934 <_Z14keccak_absorb1PmjPKhmh+0xc2>
   128be:	00391c13          	slli	s8,s2,0x3
   128c2:	9c5e                	add	s8,s8,s7
   128c4:	87de                	mv	a5,s7
   128c6:	8822                	mv	a6,s0
   128c8:	04090d63          	beqz	s2,12922 <_Z14keccak_absorb1PmjPKhmh+0xb0>
   128cc:	0017c703          	lbu	a4,1(a5)
   128d0:	0027c683          	lbu	a3,2(a5)
   128d4:	0007c303          	lbu	t1,0(a5)
   128d8:	0037c883          	lbu	a7,3(a5)
   128dc:	0047c503          	lbu	a0,4(a5)
   128e0:	06c2                	slli	a3,a3,0x10
   128e2:	0722                	slli	a4,a4,0x8
   128e4:	0057c583          	lbu	a1,5(a5)
   128e8:	8f55                	or	a4,a4,a3
   128ea:	0067c603          	lbu	a2,6(a5)
   128ee:	00676733          	or	a4,a4,t1
   128f2:	08e2                	slli	a7,a7,0x18
   128f4:	0077c683          	lbu	a3,7(a5)
   128f8:	00e8e733          	or	a4,a7,a4
   128fc:	1502                	slli	a0,a0,0x20
   128fe:	8d59                	or	a0,a0,a4
   12900:	02859713          	slli	a4,a1,0x28
   12904:	8f49                	or	a4,a4,a0
   12906:	00083583          	ld	a1,0(a6)
   1290a:	1642                	slli	a2,a2,0x30
   1290c:	8e59                	or	a2,a2,a4
   1290e:	03869713          	slli	a4,a3,0x38
   12912:	8f51                	or	a4,a4,a2
   12914:	8f2d                	xor	a4,a4,a1
   12916:	00e83023          	sd	a4,0(a6)
   1291a:	07a1                	addi	a5,a5,8
   1291c:	0821                	addi	a6,a6,8
   1291e:	fafc17e3          	bne	s8,a5,128cc <_Z14keccak_absorb1PmjPKhmh+0x5a>
   12922:	8522                	mv	a0,s0
   12924:	415b0b33          	sub	s6,s6,s5
   12928:	c86ff0ef          	jal	ra,11dae <_ZL24KeccakF1600_StatePermutePm>
   1292c:	9bd6                	add	s7,s7,s5
   1292e:	9c56                	add	s8,s8,s5
   12930:	f95b7ae3          	bgeu	s6,s5,128c4 <_Z14keccak_absorb1PmjPKhmh+0x52>
   12934:	000b0763          	beqz	s6,12942 <_Z14keccak_absorb1PmjPKhmh+0xd0>
   12938:	865a                	mv	a2,s6
   1293a:	85de                	mv	a1,s7
   1293c:	0028                	addi	a0,sp,8
   1293e:	632040ef          	jal	ra,16f70 <memcpy>
   12942:	fff9879b          	addiw	a5,s3,-1
   12946:	1782                	slli	a5,a5,0x20
   12948:	0d0b0713          	addi	a4,s6,208 # 10d0 <exit-0xf018>
   1294c:	9381                	srli	a5,a5,0x20
   1294e:	00270b33          	add	s6,a4,sp
   12952:	0d078793          	addi	a5,a5,208
   12956:	f34b0c23          	sb	s4,-200(s6)
   1295a:	978a                	add	a5,a5,sp
   1295c:	f387c703          	lbu	a4,-200(a5)
   12960:	f8076713          	ori	a4,a4,-128
   12964:	f2e78c23          	sb	a4,-200(a5)
   12968:	06090263          	beqz	s2,129cc <_Z14keccak_absorb1PmjPKhmh+0x15a>
   1296c:	00349313          	slli	t1,s1,0x3
   12970:	003c                	addi	a5,sp,8
   12972:	88a2                	mv	a7,s0
   12974:	9322                	add	t1,t1,s0
   12976:	0017c703          	lbu	a4,1(a5)
   1297a:	0027c683          	lbu	a3,2(a5)
   1297e:	0007ce03          	lbu	t3,0(a5)
   12982:	0037c803          	lbu	a6,3(a5)
   12986:	0047c503          	lbu	a0,4(a5)
   1298a:	06c2                	slli	a3,a3,0x10
   1298c:	0722                	slli	a4,a4,0x8
   1298e:	0057c583          	lbu	a1,5(a5)
   12992:	8f55                	or	a4,a4,a3
   12994:	0067c603          	lbu	a2,6(a5)
   12998:	01c76733          	or	a4,a4,t3
   1299c:	0862                	slli	a6,a6,0x18
   1299e:	0077c683          	lbu	a3,7(a5)
   129a2:	00e86733          	or	a4,a6,a4
   129a6:	1502                	slli	a0,a0,0x20
   129a8:	8d59                	or	a0,a0,a4
   129aa:	02859713          	slli	a4,a1,0x28
   129ae:	8f49                	or	a4,a4,a0
   129b0:	0008b583          	ld	a1,0(a7)
   129b4:	1642                	slli	a2,a2,0x30
   129b6:	8e59                	or	a2,a2,a4
   129b8:	03869713          	slli	a4,a3,0x38
   129bc:	8f51                	or	a4,a4,a2
   129be:	8f2d                	xor	a4,a4,a1
   129c0:	00e8b023          	sd	a4,0(a7)
   129c4:	08a1                	addi	a7,a7,8
   129c6:	07a1                	addi	a5,a5,8
   129c8:	fa6897e3          	bne	a7,t1,12976 <_Z14keccak_absorb1PmjPKhmh+0x104>
   129cc:	8522                	mv	a0,s0
   129ce:	6452                	ld	s0,272(sp)
   129d0:	60f2                	ld	ra,280(sp)
   129d2:	64b2                	ld	s1,264(sp)
   129d4:	6912                	ld	s2,256(sp)
   129d6:	79ee                	ld	s3,248(sp)
   129d8:	7a4e                	ld	s4,240(sp)
   129da:	7aae                	ld	s5,232(sp)
   129dc:	7b0e                	ld	s6,224(sp)
   129de:	6bee                	ld	s7,216(sp)
   129e0:	6c4e                	ld	s8,208(sp)
   129e2:	6115                	addi	sp,sp,288
   129e4:	bcaff06f          	j	11dae <_ZL24KeccakF1600_StatePermutePm>

00000000000129e8 <_Z15shake256_absorbP12keccak_statePKhm>:
   129e8:	bb3d                	j	12726 <_ZL13keccak_absorbPmjPKhmh.constprop.0>

00000000000129ea <_Z22shake256_squeezeblocksPhmP12keccak_state>:
   129ea:	c5d9                	beqz	a1,12a78 <_Z22shake256_squeezeblocksPhmP12keccak_state+0x8e>
   129ec:	7179                	addi	sp,sp,-48
   129ee:	e052                	sd	s4,0(sp)
   129f0:	08850a13          	addi	s4,a0,136
   129f4:	f022                	sd	s0,32(sp)
   129f6:	ec26                	sd	s1,24(sp)
   129f8:	e84a                	sd	s2,16(sp)
   129fa:	e44e                	sd	s3,8(sp)
   129fc:	f406                	sd	ra,40(sp)
   129fe:	89ae                	mv	s3,a1
   12a00:	842a                	mv	s0,a0
   12a02:	8932                	mv	s2,a2
   12a04:	84d2                	mv	s1,s4
   12a06:	854a                	mv	a0,s2
   12a08:	ba6ff0ef          	jal	ra,11dae <_ZL24KeccakF1600_StatePermutePm>
   12a0c:	86ca                	mv	a3,s2
   12a0e:	87a2                	mv	a5,s0
   12a10:	6298                	ld	a4,0(a3)
   12a12:	07a1                	addi	a5,a5,8
   12a14:	06a1                	addi	a3,a3,8
   12a16:	00875e93          	srli	t4,a4,0x8
   12a1a:	01075e13          	srli	t3,a4,0x10
   12a1e:	01875313          	srli	t1,a4,0x18
   12a22:	02075893          	srli	a7,a4,0x20
   12a26:	02875813          	srli	a6,a4,0x28
   12a2a:	03075593          	srli	a1,a4,0x30
   12a2e:	03875613          	srli	a2,a4,0x38
   12a32:	ffd78ca3          	sb	t4,-7(a5)
   12a36:	ffc78d23          	sb	t3,-6(a5)
   12a3a:	fe678da3          	sb	t1,-5(a5)
   12a3e:	ff178e23          	sb	a7,-4(a5)
   12a42:	ff078ea3          	sb	a6,-3(a5)
   12a46:	feb78f23          	sb	a1,-2(a5)
   12a4a:	fec78fa3          	sb	a2,-1(a5)
   12a4e:	fee78c23          	sb	a4,-8(a5)
   12a52:	faf49fe3          	bne	s1,a5,12a10 <_Z22shake256_squeezeblocksPhmP12keccak_state+0x26>
   12a56:	19fd                	addi	s3,s3,-1
   12a58:	8452                	mv	s0,s4
   12a5a:	08848493          	addi	s1,s1,136
   12a5e:	00098563          	beqz	s3,12a68 <_Z22shake256_squeezeblocksPhmP12keccak_state+0x7e>
   12a62:	088a0a13          	addi	s4,s4,136
   12a66:	b745                	j	12a06 <_Z22shake256_squeezeblocksPhmP12keccak_state+0x1c>
   12a68:	70a2                	ld	ra,40(sp)
   12a6a:	7402                	ld	s0,32(sp)
   12a6c:	64e2                	ld	s1,24(sp)
   12a6e:	6942                	ld	s2,16(sp)
   12a70:	69a2                	ld	s3,8(sp)
   12a72:	6a02                	ld	s4,0(sp)
   12a74:	6145                	addi	sp,sp,48
   12a76:	8082                	ret
   12a78:	8082                	ret

0000000000012a7a <_Z8shake256PhmPKhm>:
   12a7a:	7165                	addi	sp,sp,-400
   12a7c:	87b2                	mv	a5,a2
   12a7e:	e322                	sd	s0,384(sp)
   12a80:	0120                	addi	s0,sp,136
   12a82:	fea6                	sd	s1,376(sp)
   12a84:	f6ce                	sd	s3,360(sp)
   12a86:	84ae                	mv	s1,a1
   12a88:	89aa                	mv	s3,a0
   12a8a:	85be                	mv	a1,a5
   12a8c:	8636                	mv	a2,a3
   12a8e:	8522                	mv	a0,s0
   12a90:	faca                	sd	s2,368(sp)
   12a92:	e706                	sd	ra,392(sp)
   12a94:	f2d2                	sd	s4,352(sp)
   12a96:	eed6                	sd	s5,344(sp)
   12a98:	eada                	sd	s6,336(sp)
   12a9a:	c8dff0ef          	jal	ra,12726 <_ZL13keccak_absorbPmjPKhmh.constprop.0>
   12a9e:	08800913          	li	s2,136
   12aa2:	08700793          	li	a5,135
   12aa6:	0324d933          	divu	s2,s1,s2
   12aaa:	0697f363          	bgeu	a5,s1,12b10 <_Z8shake256PhmPKhm+0x96>
   12aae:	8b4a                	mv	s6,s2
   12ab0:	8ace                	mv	s5,s3
   12ab2:	11010a13          	addi	s4,sp,272
   12ab6:	8522                	mv	a0,s0
   12ab8:	af6ff0ef          	jal	ra,11dae <_ZL24KeccakF1600_StatePermutePm>
   12abc:	86a2                	mv	a3,s0
   12abe:	87d6                	mv	a5,s5
   12ac0:	6298                	ld	a4,0(a3)
   12ac2:	06a1                	addi	a3,a3,8
   12ac4:	07a1                	addi	a5,a5,8
   12ac6:	00875e13          	srli	t3,a4,0x8
   12aca:	01075313          	srli	t1,a4,0x10
   12ace:	01875893          	srli	a7,a4,0x18
   12ad2:	02075813          	srli	a6,a4,0x20
   12ad6:	02875513          	srli	a0,a4,0x28
   12ada:	03075593          	srli	a1,a4,0x30
   12ade:	03875613          	srli	a2,a4,0x38
   12ae2:	ffc78ca3          	sb	t3,-7(a5)
   12ae6:	fe678d23          	sb	t1,-6(a5)
   12aea:	ff178da3          	sb	a7,-5(a5)
   12aee:	ff078e23          	sb	a6,-4(a5)
   12af2:	fea78ea3          	sb	a0,-3(a5)
   12af6:	feb78f23          	sb	a1,-2(a5)
   12afa:	fec78fa3          	sb	a2,-1(a5)
   12afe:	fee78c23          	sb	a4,-8(a5)
   12b02:	fada1fe3          	bne	s4,a3,12ac0 <_Z8shake256PhmPKhm+0x46>
   12b06:	1b7d                	addi	s6,s6,-1
   12b08:	088a8a93          	addi	s5,s5,136
   12b0c:	fa0b15e3          	bnez	s6,12ab6 <_Z8shake256PhmPKhm+0x3c>
   12b10:	08800793          	li	a5,136
   12b14:	02f4f4b3          	remu	s1,s1,a5
   12b18:	e899                	bnez	s1,12b2e <_Z8shake256PhmPKhm+0xb4>
   12b1a:	60ba                	ld	ra,392(sp)
   12b1c:	641a                	ld	s0,384(sp)
   12b1e:	74f6                	ld	s1,376(sp)
   12b20:	7956                	ld	s2,368(sp)
   12b22:	79b6                	ld	s3,360(sp)
   12b24:	7a16                	ld	s4,352(sp)
   12b26:	6af6                	ld	s5,344(sp)
   12b28:	6b56                	ld	s6,336(sp)
   12b2a:	6159                	addi	sp,sp,400
   12b2c:	8082                	ret
   12b2e:	8522                	mv	a0,s0
   12b30:	a7eff0ef          	jal	ra,11dae <_ZL24KeccakF1600_StatePermutePm>
   12b34:	86a2                	mv	a3,s0
   12b36:	878a                	mv	a5,sp
   12b38:	6298                	ld	a4,0(a3)
   12b3a:	07a1                	addi	a5,a5,8
   12b3c:	06a1                	addi	a3,a3,8
   12b3e:	00875e93          	srli	t4,a4,0x8
   12b42:	01075e13          	srli	t3,a4,0x10
   12b46:	01875313          	srli	t1,a4,0x18
   12b4a:	02075893          	srli	a7,a4,0x20
   12b4e:	02875813          	srli	a6,a4,0x28
   12b52:	03075513          	srli	a0,a4,0x30
   12b56:	03875593          	srli	a1,a4,0x38
   12b5a:	ffd78ca3          	sb	t4,-7(a5)
   12b5e:	ffc78d23          	sb	t3,-6(a5)
   12b62:	fe678da3          	sb	t1,-5(a5)
   12b66:	ff178e23          	sb	a7,-4(a5)
   12b6a:	ff078ea3          	sb	a6,-3(a5)
   12b6e:	fea78f23          	sb	a0,-2(a5)
   12b72:	feb78fa3          	sb	a1,-1(a5)
   12b76:	fee78c23          	sb	a4,-8(a5)
   12b7a:	faf41fe3          	bne	s0,a5,12b38 <_Z8shake256PhmPKhm+0xbe>
   12b7e:	00491513          	slli	a0,s2,0x4
   12b82:	954a                	add	a0,a0,s2
   12b84:	050e                	slli	a0,a0,0x3
   12b86:	8626                	mv	a2,s1
   12b88:	858a                	mv	a1,sp
   12b8a:	954e                	add	a0,a0,s3
   12b8c:	3e4040ef          	jal	ra,16f70 <memcpy>
   12b90:	b769                	j	12b1a <_Z8shake256PhmPKhm+0xa0>

0000000000012b92 <_Z20keccak_absorb_customPKhij>:
   12b92:	0c00005b          	keccak.init	0
   12b96:	0205c563          	bltz	a1,12bc0 <_Z20keccak_absorb_customPKhij+0x2e>
   12b9a:	8732                	mv	a4,a2
   12b9c:	87ae                	mv	a5,a1
   12b9e:	00b67363          	bgeu	a2,a1,12ba4 <_Z20keccak_absorb_customPKhij+0x12>
   12ba2:	87ba                	mv	a5,a4
   12ba4:	1782                	slli	a5,a5,0x20
   12ba6:	9381                	srli	a5,a5,0x20
   12ba8:	0437f7d7          	vsetvli	a5,a5,e8,m8,ta,mu
   12bac:	02050c07          	vle8.v	v24,(a0)
   12bb0:	0780105b          	keccak.loadm.v	v24
   12bb4:	953e                	add	a0,a0,a5
   12bb6:	1005e5db          	keccak.absorb	a1,a1
   12bba:	2581                	sext.w	a1,a1
   12bbc:	fe05d0e3          	bgez	a1,12b9c <_Z20keccak_absorb_customPKhij+0xa>
   12bc0:	8082                	ret

0000000000012bc2 <_Z27keccak_squeezeblocks_customPhmjb>:
   12bc2:	c18d                	beqz	a1,12be4 <_Z27keccak_squeezeblocks_customPhmjb+0x22>
   12bc4:	1602                	slli	a2,a2,0x20
   12bc6:	9201                	srli	a2,a2,0x20
   12bc8:	043677d7          	vsetvli	a5,a2,e8,m8,ta,mu
   12bcc:	c299                	beqz	a3,12bd2 <_Z27keccak_squeezeblocks_customPhmjb+0x10>
   12bce:	1400005b          	keccak.squeeze	0
   12bd2:	0a004c5b          	keccak.stores.v	v24
   12bd6:	0437f057          	vsetvli	zero,a5,e8,m8,ta,mu
   12bda:	15fd                	addi	a1,a1,-1
   12bdc:	02050c27          	vse8.v	v24,(a0)
   12be0:	9532                	add	a0,a0,a2
   12be2:	f5f5                	bnez	a1,12bce <_Z27keccak_squeezeblocks_customPhmjb+0xc>
   12be4:	8082                	ret

0000000000012be6 <_Z15shake256_customPhmPKhm>:
   12be6:	7135                	addi	sp,sp,-160
   12be8:	08800893          	li	a7,136
   12bec:	0315d8b3          	divu	a7,a1,a7
   12bf0:	ed06                	sd	ra,152(sp)
   12bf2:	882e                	mv	a6,a1
   12bf4:	4785                	li	a5,1
   12bf6:	00f167db          	pqccsrrw	a5,a5,2
   12bfa:	2681                	sext.w	a3,a3
   12bfc:	0c00005b          	keccak.init	0
   12c00:	0206c763          	bltz	a3,12c2e <_Z15shake256_customPhmPKhm+0x48>
   12c04:	08800713          	li	a4,136
   12c08:	87b6                	mv	a5,a3
   12c0a:	00d77463          	bgeu	a4,a3,12c12 <_Z15shake256_customPhmPKhm+0x2c>
   12c0e:	08800793          	li	a5,136
   12c12:	1782                	slli	a5,a5,0x20
   12c14:	9381                	srli	a5,a5,0x20
   12c16:	0437f7d7          	vsetvli	a5,a5,e8,m8,ta,mu
   12c1a:	02060c07          	vle8.v	v24,(a2)
   12c1e:	0780105b          	keccak.loadm.v	v24
   12c22:	963e                	add	a2,a2,a5
   12c24:	1006e6db          	keccak.absorb	a3,a3
   12c28:	2681                	sext.w	a3,a3
   12c2a:	fc06dfe3          	bgez	a3,12c08 <_Z15shake256_customPhmPKhm+0x22>
   12c2e:	08700793          	li	a5,135
   12c32:	0707f963          	bgeu	a5,a6,12ca4 <_Z15shake256_customPhmPKhm+0xbe>
   12c36:	08800693          	li	a3,136
   12c3a:	0436f6d7          	vsetvli	a3,a3,e8,m8,ta,mu
   12c3e:	0a004c5b          	keccak.stores.v	v24
   12c42:	0436f057          	vsetvli	zero,a3,e8,m8,ta,mu
   12c46:	fff88713          	addi	a4,a7,-1
   12c4a:	02050c27          	vse8.v	v24,(a0)
   12c4e:	08850793          	addi	a5,a0,136
   12c52:	cf09                	beqz	a4,12c6c <_Z15shake256_customPhmPKhm+0x86>
   12c54:	1400005b          	keccak.squeeze	0
   12c58:	0a004c5b          	keccak.stores.v	v24
   12c5c:	0436f057          	vsetvli	zero,a3,e8,m8,ta,mu
   12c60:	177d                	addi	a4,a4,-1
   12c62:	02078c27          	vse8.v	v24,(a5)
   12c66:	08878793          	addi	a5,a5,136
   12c6a:	f76d                	bnez	a4,12c54 <_Z15shake256_customPhmPKhm+0x6e>
   12c6c:	08800793          	li	a5,136
   12c70:	02f87833          	remu	a6,a6,a5
   12c74:	02080563          	beqz	a6,12c9e <_Z15shake256_customPhmPKhm+0xb8>
   12c78:	0437f7d7          	vsetvli	a5,a5,e8,m8,ta,mu
   12c7c:	1400005b          	keccak.squeeze	0
   12c80:	0a004c5b          	keccak.stores.v	v24
   12c84:	002c                	addi	a1,sp,8
   12c86:	0437f057          	vsetvli	zero,a5,e8,m8,ta,mu
   12c8a:	02058c27          	vse8.v	v24,(a1)
   12c8e:	00489793          	slli	a5,a7,0x4
   12c92:	97c6                	add	a5,a5,a7
   12c94:	078e                	slli	a5,a5,0x3
   12c96:	8642                	mv	a2,a6
   12c98:	953e                	add	a0,a0,a5
   12c9a:	2d6040ef          	jal	ra,16f70 <memcpy>
   12c9e:	60ea                	ld	ra,152(sp)
   12ca0:	610d                	addi	sp,sp,160
   12ca2:	8082                	ret
   12ca4:	fe080de3          	beqz	a6,12c9e <_Z15shake256_customPhmPKhm+0xb8>
   12ca8:	08800793          	li	a5,136
   12cac:	0437f7d7          	vsetvli	a5,a5,e8,m8,ta,mu
   12cb0:	0a004c5b          	keccak.stores.v	v24
   12cb4:	002c                	addi	a1,sp,8
   12cb6:	0437f057          	vsetvli	zero,a5,e8,m8,ta,mu
   12cba:	02058c27          	vse8.v	v24,(a1)
   12cbe:	bfc1                	j	12c8e <_Z15shake256_customPhmPKhm+0xa8>

0000000000012cc0 <_Z7decryptPhPKhS1_>:
   12cc0:	715d                	addi	sp,sp,-80
   12cc2:	e0a2                	sd	s0,64(sp)
   12cc4:	fc26                	sd	s1,56(sp)
   12cc6:	7471                	lui	s0,0xffffc
   12cc8:	6491                	lui	s1,0x4
   12cca:	72f1                	lui	t0,0xffffc
   12ccc:	4c028293          	addi	t0,t0,1216 # ffffffffffffc4c0 <__BSS_END__+0xfffffffffffd4b50>
   12cd0:	7c840793          	addi	a5,s0,1992 # ffffffffffffc7c8 <__BSS_END__+0xfffffffffffd4e58>
   12cd4:	b5048713          	addi	a4,s1,-1200 # 3b50 <exit-0xc598>
   12cd8:	e486                	sd	ra,72(sp)
   12cda:	f84a                	sd	s2,48(sp)
   12cdc:	f44e                	sd	s3,40(sp)
   12cde:	f052                	sd	s4,32(sp)
   12ce0:	ec56                	sd	s5,24(sp)
   12ce2:	973e                	add	a4,a4,a5
   12ce4:	9116                	add	sp,sp,t0
   12ce6:	002707b3          	add	a5,a4,sp
   12cea:	8732                	mv	a4,a2
   12cec:	8a2e                	mv	s4,a1
   12cee:	06000613          	li	a2,96
   12cf2:	85ba                	mv	a1,a4
   12cf4:	892a                	mv	s2,a0
   12cf6:	853e                	mv	a0,a5
   12cf8:	278040ef          	jal	ra,16f70 <memcpy>
   12cfc:	15400613          	li	a2,340
   12d00:	4581                	li	a1,0
   12d02:	06050513          	addi	a0,a0,96
   12d06:	488040ef          	jal	ra,1718e <memset>
   12d0a:	4b840413          	addi	s0,s0,1208
   12d0e:	b5048793          	addi	a5,s1,-1200
   12d12:	97a2                	add	a5,a5,s0
   12d14:	00278433          	add	s0,a5,sp
   12d18:	08040993          	addi	s3,s0,128
   12d1c:	84d2                	mv	s1,s4
   12d1e:	8526                	mv	a0,s1
   12d20:	3f9030ef          	jal	ra,16918 <_Z7load_gfPKh>
   12d24:	00a41023          	sh	a0,0(s0)
   12d28:	0409                	addi	s0,s0,2
   12d2a:	0489                	addi	s1,s1,2
   12d2c:	fe8999e3          	bne	s3,s0,12d1e <_Z7decryptPhPKhS1_+0x5e>
   12d30:	6a91                	lui	s5,0x4
   12d32:	74f5                	lui	s1,0xffffd
   12d34:	98048493          	addi	s1,s1,-1664 # ffffffffffffc980 <__BSS_END__+0xfffffffffffd5010>
   12d38:	b50a8793          	addi	a5,s5,-1200 # 3b50 <exit-0xc598>
   12d3c:	97a6                	add	a5,a5,s1
   12d3e:	002784b3          	add	s1,a5,sp
   12d42:	080a0593          	addi	a1,s4,128
   12d46:	8526                	mv	a0,s1
   12d48:	4785                	li	a5,1
   12d4a:	7471                	lui	s0,0xffffc
   12d4c:	08f11423          	sh	a5,136(sp)
   12d50:	847fd0ef          	jal	ra,10596 <_Z11support_genPtPKh>
   12d54:	5c840993          	addi	s3,s0,1480 # ffffffffffffc5c8 <__BSS_END__+0xfffffffffffd4c58>
   12d58:	b50a8793          	addi	a5,s5,-1200
   12d5c:	97ce                	add	a5,a5,s3
   12d5e:	002789b3          	add	s3,a5,sp
   12d62:	7c840693          	addi	a3,s0,1992
   12d66:	b50a8793          	addi	a5,s5,-1200
   12d6a:	97b6                	add	a5,a5,a3
   12d6c:	002786b3          	add	a3,a5,sp
   12d70:	4b840593          	addi	a1,s0,1208
   12d74:	b50a8793          	addi	a5,s5,-1200
   12d78:	97ae                	add	a5,a5,a1
   12d7a:	8626                	mv	a2,s1
   12d7c:	002785b3          	add	a1,a5,sp
   12d80:	854e                	mv	a0,s3
   12d82:	796030ef          	jal	ra,16518 <_Z4syndPtS_S_Ph>
   12d86:	54040413          	addi	s0,s0,1344
   12d8a:	b50a8793          	addi	a5,s5,-1200
   12d8e:	97a2                	add	a5,a5,s0
   12d90:	00278433          	add	s0,a5,sp
   12d94:	85ce                	mv	a1,s3
   12d96:	8522                	mv	a0,s0
   12d98:	904fe0ef          	jal	ra,10e9c <_Z2bmPtS_>
   12d9c:	7a79                	lui	s4,0xffffe
   12d9e:	4c0a0a13          	addi	s4,s4,1216 # ffffffffffffe4c0 <__BSS_END__+0xfffffffffffd6b50>
   12da2:	b50a8793          	addi	a5,s5,-1200
   12da6:	97d2                	add	a5,a5,s4
   12da8:	00278a33          	add	s4,a5,sp
   12dac:	8626                	mv	a2,s1
   12dae:	85a2                	mv	a1,s0
   12db0:	8552                	mv	a0,s4
   12db2:	68d020ef          	jal	ra,15c3e <_Z4rootPtS_S_>
   12db6:	1b400613          	li	a2,436
   12dba:	4581                	li	a1,0
   12dbc:	854a                	mv	a0,s2
   12dbe:	6985                	lui	s3,0x1
   12dc0:	3ce040ef          	jal	ra,1718e <memset>
   12dc4:	4481                	li	s1,0
   12dc6:	4401                	li	s0,0
   12dc8:	da098993          	addi	s3,s3,-608 # da0 <exit-0xf348>
   12dcc:	000a5503          	lhu	a0,0(s4)
   12dd0:	0a09                	addi	s4,s4,2
   12dd2:	3a9000ef          	jal	ra,1397a <_Z9gf_iszerot>
   12dd6:	40345793          	srai	a5,s0,0x3
   12dda:	97ca                	add	a5,a5,s2
   12ddc:	0007c703          	lbu	a4,0(a5)
   12de0:	8905                	andi	a0,a0,1
   12de2:	00747693          	andi	a3,s0,7
   12de6:	00d516bb          	sllw	a3,a0,a3
   12dea:	8f55                	or	a4,a4,a3
   12dec:	00e78023          	sb	a4,0(a5)
   12df0:	2405                	addiw	s0,s0,1
   12df2:	9ca9                	addw	s1,s1,a0
   12df4:	fd341ce3          	bne	s0,s3,12dcc <_Z7decryptPhPKhS1_+0x10c>
   12df8:	6791                	lui	a5,0x4
   12dfa:	7471                	lui	s0,0xffffc
   12dfc:	6c840513          	addi	a0,s0,1736 # ffffffffffffc6c8 <__BSS_END__+0xfffffffffffd4d58>
   12e00:	b5078713          	addi	a4,a5,-1200 # 3b50 <exit-0xc598>
   12e04:	972a                	add	a4,a4,a0
   12e06:	7675                	lui	a2,0xffffd
   12e08:	002709b3          	add	s3,a4,sp
   12e0c:	86ca                	mv	a3,s2
   12e0e:	4b840593          	addi	a1,s0,1208
   12e12:	98060613          	addi	a2,a2,-1664 # ffffffffffffc980 <__BSS_END__+0xfffffffffffd5010>
   12e16:	b5078713          	addi	a4,a5,-1200
   12e1a:	893e                	mv	s2,a5
   12e1c:	b5078793          	addi	a5,a5,-1200
   12e20:	9732                	add	a4,a4,a2
   12e22:	97ae                	add	a5,a5,a1
   12e24:	002785b3          	add	a1,a5,sp
   12e28:	00270633          	add	a2,a4,sp
   12e2c:	854e                	mv	a0,s3
   12e2e:	6ea030ef          	jal	ra,16518 <_Z4syndPtS_S_Ph>
   12e32:	5c840713          	addi	a4,s0,1480
   12e36:	b5090693          	addi	a3,s2,-1200
   12e3a:	03049793          	slli	a5,s1,0x30
   12e3e:	96ba                	add	a3,a3,a4
   12e40:	93c1                	srli	a5,a5,0x30
   12e42:	00268733          	add	a4,a3,sp
   12e46:	0407c793          	xori	a5,a5,64
   12e4a:	854e                	mv	a0,s3
   12e4c:	10070593          	addi	a1,a4,256
   12e50:	00075683          	lhu	a3,0(a4)
   12e54:	00055603          	lhu	a2,0(a0)
   12e58:	0709                	addi	a4,a4,2
   12e5a:	0509                	addi	a0,a0,2
   12e5c:	8eb1                	xor	a3,a3,a2
   12e5e:	8fd5                	or	a5,a5,a3
   12e60:	fee598e3          	bne	a1,a4,12e50 <_Z7decryptPhPKhS1_+0x190>
   12e64:	6291                	lui	t0,0x4
   12e66:	fff7851b          	addiw	a0,a5,-1
   12e6a:	b4028293          	addi	t0,t0,-1216 # 3b40 <exit-0xc5a8>
   12e6e:	1542                	slli	a0,a0,0x30
   12e70:	9116                	add	sp,sp,t0
   12e72:	60a6                	ld	ra,72(sp)
   12e74:	9141                	srli	a0,a0,0x30
   12e76:	00f5551b          	srliw	a0,a0,0xf
   12e7a:	00154513          	xori	a0,a0,1
   12e7e:	6406                	ld	s0,64(sp)
   12e80:	74e2                	ld	s1,56(sp)
   12e82:	7942                	ld	s2,48(sp)
   12e84:	79a2                	ld	s3,40(sp)
   12e86:	7a02                	ld	s4,32(sp)
   12e88:	6ae2                	ld	s5,24(sp)
   12e8a:	2501                	sext.w	a0,a0
   12e8c:	6161                	addi	sp,sp,80
   12e8e:	8082                	ret

0000000000012e90 <_Z14decrypt_customPhPKhS1_>:
   12e90:	72f1                	lui	t0,0xffffc
   12e92:	715d                	addi	sp,sp,-80
   12e94:	4b028293          	addi	t0,t0,1200 # ffffffffffffc4b0 <__BSS_END__+0xfffffffffffd4b40>
   12e98:	e486                	sd	ra,72(sp)
   12e9a:	e0a2                	sd	s0,64(sp)
   12e9c:	fc26                	sd	s1,56(sp)
   12e9e:	f84a                	sd	s2,48(sp)
   12ea0:	f44e                	sd	s3,40(sp)
   12ea2:	f052                	sd	s4,32(sp)
   12ea4:	ec56                	sd	s5,24(sp)
   12ea6:	e85a                	sd	s6,16(sp)
   12ea8:	9116                	add	sp,sp,t0
   12eaa:	84b2                	mv	s1,a2
   12eac:	8a2e                	mv	s4,a1
   12eae:	1ac00613          	li	a2,428
   12eb2:	4581                	li	a1,0
   12eb4:	892a                	mv	s2,a0
   12eb6:	1e08                	addi	a0,sp,816
   12eb8:	32013423          	sd	zero,808(sp)
   12ebc:	2d2040ef          	jal	ra,1718e <memset>
   12ec0:	08200613          	li	a2,130
   12ec4:	4581                	li	a1,0
   12ec6:	0828                	addi	a0,sp,24
   12ec8:	2c6040ef          	jal	ra,1718e <memset>
   12ecc:	6b11                	lui	s6,0x4
   12ece:	77f5                	lui	a5,0xffffd
   12ed0:	b50b0713          	addi	a4,s6,-1200 # 3b50 <exit-0xc598>
   12ed4:	973e                	add	a4,a4,a5
   12ed6:	6a89                	lui	s5,0x2
   12ed8:	081c                	addi	a5,sp,16
   12eda:	97ba                	add	a5,a5,a4
   12edc:	b40a8993          	addi	s3,s5,-1216 # 1b40 <exit-0xe5a8>
   12ee0:	98078513          	addi	a0,a5,-1664 # ffffffffffffc980 <__BSS_END__+0xfffffffffffd5010>
   12ee4:	864e                	mv	a2,s3
   12ee6:	4581                	li	a1,0
   12ee8:	e43e                	sd	a5,8(sp)
   12eea:	2a4040ef          	jal	ra,1718e <memset>
   12eee:	10000613          	li	a2,256
   12ef2:	4581                	li	a1,0
   12ef4:	1228                	addi	a0,sp,296
   12ef6:	298040ef          	jal	ra,1718e <memset>
   12efa:	10000613          	li	a2,256
   12efe:	4581                	li	a1,0
   12f00:	1428                	addi	a0,sp,552
   12f02:	28c040ef          	jal	ra,1718e <memset>
   12f06:	08200613          	li	a2,130
   12f0a:	4581                	li	a1,0
   12f0c:	1108                	addi	a0,sp,160
   12f0e:	280040ef          	jal	ra,1718e <memset>
   12f12:	0818                	addi	a4,sp,16
   12f14:	b50b0793          	addi	a5,s6,-1200
   12f18:	97ba                	add	a5,a5,a4
   12f1a:	415787b3          	sub	a5,a5,s5
   12f1e:	864e                	mv	a2,s3
   12f20:	4581                	li	a1,0
   12f22:	4c078513          	addi	a0,a5,1216
   12f26:	7471                	lui	s0,0xffffc
   12f28:	e43e                	sd	a5,8(sp)
   12f2a:	264040ef          	jal	ra,1718e <memset>
   12f2e:	7c840513          	addi	a0,s0,1992 # ffffffffffffc7c8 <__BSS_END__+0xfffffffffffd4e58>
   12f32:	b50b0793          	addi	a5,s6,-1200
   12f36:	97aa                	add	a5,a5,a0
   12f38:	0818                	addi	a4,sp,16
   12f3a:	00e78533          	add	a0,a5,a4
   12f3e:	85a6                	mv	a1,s1
   12f40:	06000613          	li	a2,96
   12f44:	02c040ef          	jal	ra,16f70 <memcpy>
   12f48:	4b840413          	addi	s0,s0,1208
   12f4c:	b50b0793          	addi	a5,s6,-1200
   12f50:	97a2                	add	a5,a5,s0
   12f52:	0818                	addi	a4,sp,16
   12f54:	00e78433          	add	s0,a5,a4
   12f58:	08040993          	addi	s3,s0,128
   12f5c:	84d2                	mv	s1,s4
   12f5e:	8526                	mv	a0,s1
   12f60:	1b9030ef          	jal	ra,16918 <_Z7load_gfPKh>
   12f64:	00a41023          	sh	a0,0(s0)
   12f68:	0409                	addi	s0,s0,2
   12f6a:	0489                	addi	s1,s1,2
   12f6c:	fe8999e3          	bne	s3,s0,12f5e <_Z14decrypt_customPhPKhS1_+0xce>
   12f70:	6a91                	lui	s5,0x4
   12f72:	79f5                	lui	s3,0xffffd
   12f74:	98098993          	addi	s3,s3,-1664 # ffffffffffffc980 <__BSS_END__+0xfffffffffffd5010>
   12f78:	b50a8793          	addi	a5,s5,-1200 # 3b50 <exit-0xc598>
   12f7c:	0818                	addi	a4,sp,16
   12f7e:	97ce                	add	a5,a5,s3
   12f80:	00e789b3          	add	s3,a5,a4
   12f84:	080a0593          	addi	a1,s4,128
   12f88:	854e                	mv	a0,s3
   12f8a:	4785                	li	a5,1
   12f8c:	7471                	lui	s0,0xffffc
   12f8e:	08f11c23          	sh	a5,152(sp)
   12f92:	e04fd0ef          	jal	ra,10596 <_Z11support_genPtPKh>
   12f96:	5c840493          	addi	s1,s0,1480 # ffffffffffffc5c8 <__BSS_END__+0xfffffffffffd4c58>
   12f9a:	b50a8793          	addi	a5,s5,-1200
   12f9e:	0818                	addi	a4,sp,16
   12fa0:	97a6                	add	a5,a5,s1
   12fa2:	00e784b3          	add	s1,a5,a4
   12fa6:	7c840693          	addi	a3,s0,1992
   12faa:	b50a8793          	addi	a5,s5,-1200
   12fae:	97b6                	add	a5,a5,a3
   12fb0:	00e786b3          	add	a3,a5,a4
   12fb4:	4b840593          	addi	a1,s0,1208
   12fb8:	b50a8793          	addi	a5,s5,-1200
   12fbc:	97ae                	add	a5,a5,a1
   12fbe:	864e                	mv	a2,s3
   12fc0:	00e785b3          	add	a1,a5,a4
   12fc4:	8526                	mv	a0,s1
   12fc6:	606030ef          	jal	ra,165cc <_Z11synd_customPtS_S_Ph>
   12fca:	54040413          	addi	s0,s0,1344
   12fce:	b50a8793          	addi	a5,s5,-1200
   12fd2:	97a2                	add	a5,a5,s0
   12fd4:	0818                	addi	a4,sp,16
   12fd6:	00e78433          	add	s0,a5,a4
   12fda:	85a6                	mv	a1,s1
   12fdc:	8522                	mv	a0,s0
   12fde:	8a8fe0ef          	jal	ra,11086 <_Z9bm_customPtS_>
   12fe2:	74f9                	lui	s1,0xffffe
   12fe4:	4c048493          	addi	s1,s1,1216 # ffffffffffffe4c0 <__BSS_END__+0xfffffffffffd6b50>
   12fe8:	b50a8793          	addi	a5,s5,-1200
   12fec:	97a6                	add	a5,a5,s1
   12fee:	0818                	addi	a4,sp,16
   12ff0:	00e784b3          	add	s1,a5,a4
   12ff4:	864e                	mv	a2,s3
   12ff6:	85a2                	mv	a1,s0
   12ff8:	8526                	mv	a0,s1
   12ffa:	6985                	lui	s3,0x1
   12ffc:	4a7020ef          	jal	ra,15ca2 <_Z11root_customPtS_S_>
   13000:	4a01                	li	s4,0
   13002:	4401                	li	s0,0
   13004:	da098993          	addi	s3,s3,-608 # da0 <exit-0xf348>
   13008:	0004d503          	lhu	a0,0(s1)
   1300c:	0489                	addi	s1,s1,2
   1300e:	16d000ef          	jal	ra,1397a <_Z9gf_iszerot>
   13012:	40345793          	srai	a5,s0,0x3
   13016:	97ca                	add	a5,a5,s2
   13018:	0007c703          	lbu	a4,0(a5)
   1301c:	8905                	andi	a0,a0,1
   1301e:	00747693          	andi	a3,s0,7
   13022:	00d516bb          	sllw	a3,a0,a3
   13026:	8f55                	or	a4,a4,a3
   13028:	00e78023          	sb	a4,0(a5)
   1302c:	2405                	addiw	s0,s0,1
   1302e:	01450a3b          	addw	s4,a0,s4
   13032:	fd341be3          	bne	s0,s3,13008 <_Z14decrypt_customPhPKhS1_+0x178>
   13036:	7471                	lui	s0,0xffffc
   13038:	6791                	lui	a5,0x4
   1303a:	6c840493          	addi	s1,s0,1736 # ffffffffffffc6c8 <__BSS_END__+0xfffffffffffd4d58>
   1303e:	b5078713          	addi	a4,a5,-1200 # 3b50 <exit-0xc598>
   13042:	0814                	addi	a3,sp,16
   13044:	9726                	add	a4,a4,s1
   13046:	7675                	lui	a2,0xffffd
   13048:	00d704b3          	add	s1,a4,a3
   1304c:	98060613          	addi	a2,a2,-1664 # ffffffffffffc980 <__BSS_END__+0xfffffffffffd5010>
   13050:	b5078713          	addi	a4,a5,-1200
   13054:	4b840593          	addi	a1,s0,1208
   13058:	86ca                	mv	a3,s2
   1305a:	9732                	add	a4,a4,a2
   1305c:	893e                	mv	s2,a5
   1305e:	0810                	addi	a2,sp,16
   13060:	b5078793          	addi	a5,a5,-1200
   13064:	963a                	add	a2,a2,a4
   13066:	97ae                	add	a5,a5,a1
   13068:	0818                	addi	a4,sp,16
   1306a:	8526                	mv	a0,s1
   1306c:	00e785b3          	add	a1,a5,a4
   13070:	55c030ef          	jal	ra,165cc <_Z11synd_customPtS_S_Ph>
   13074:	c480f657          	vsetivli	a2,1,e16,m1,ta,mu
   13078:	048077d7          	vsetvli	a5,zero,e16,m1,ta,mu
   1307c:	030a1793          	slli	a5,s4,0x30
   13080:	93c1                	srli	a5,a5,0x30
   13082:	0407c793          	xori	a5,a5,64
   13086:	5c840693          	addi	a3,s0,1480
   1308a:	5e003c57          	vmv.v.i	v24,0
   1308e:	00867057          	vsetvli	zero,a2,e16,m1,tu,mu
   13092:	4207ec57          	vmv.s.x	v24,a5
   13096:	b5090793          	addi	a5,s2,-1200
   1309a:	97b6                	add	a5,a5,a3
   1309c:	08000713          	li	a4,128
   130a0:	0814                	addi	a3,sp,16
   130a2:	96be                	add	a3,a3,a5
   130a4:	6291                	lui	t0,0x4
   130a6:	04b777d7          	vsetvli	a5,a4,e16,m8,ta,mu
   130aa:	b5028293          	addi	t0,t0,-1200 # 3b50 <exit-0xc598>
   130ae:	0204d807          	vle16.v	v16,(s1)
   130b2:	0206d407          	vle16.v	v8,(a3)
   130b6:	2e880457          	vxor.vv	v8,v8,v16
   130ba:	00b07057          	vsetvli	zero,zero,e16,m8,tu,mu
   130be:	0a8c2c57          	vredor.vs	v24,v8,v24
   130c2:	43802557          	vmv.x.s	a0,v24
   130c6:	157d                	addi	a0,a0,-1
   130c8:	1542                	slli	a0,a0,0x30
   130ca:	9116                	add	sp,sp,t0
   130cc:	60a6                	ld	ra,72(sp)
   130ce:	9141                	srli	a0,a0,0x30
   130d0:	00f5551b          	srliw	a0,a0,0xf
   130d4:	00154513          	xori	a0,a0,1
   130d8:	6406                	ld	s0,64(sp)
   130da:	74e2                	ld	s1,56(sp)
   130dc:	7942                	ld	s2,48(sp)
   130de:	79a2                	ld	s3,40(sp)
   130e0:	7a02                	ld	s4,32(sp)
   130e2:	6ae2                	ld	s5,24(sp)
   130e4:	6b42                	ld	s6,16(sp)
   130e6:	2501                	sext.w	a0,a0
   130e8:	6161                	addi	sp,sp,80
   130ea:	8082                	ret

00000000000130ec <_ZL8syndromePhPKhS_>:
   130ec:	7101                	addi	sp,sp,-512
   130ee:	fba2                	sd	s0,496(sp)
   130f0:	f7a6                	sd	s1,488(sp)
   130f2:	842e                	mv	s0,a1
   130f4:	84b2                	mv	s1,a2
   130f6:	4581                	li	a1,0
   130f8:	06000613          	li	a2,96
   130fc:	f3ca                	sd	s2,480(sp)
   130fe:	efce                	sd	s3,472(sp)
   13100:	ebd2                	sd	s4,464(sp)
   13102:	e7d6                	sd	s5,456(sp)
   13104:	e3da                	sd	s6,448(sp)
   13106:	ff86                	sd	ra,504(sp)
   13108:	892a                	mv	s2,a0
   1310a:	4b01                	li	s6,0
   1310c:	082040ef          	jal	ra,1718e <memset>
   13110:	1bc10a93          	addi	s5,sp,444
   13114:	4a05                	li	s4,1
   13116:	30000993          	li	s3,768
   1311a:	1b400613          	li	a2,436
   1311e:	4581                	li	a1,0
   13120:	0028                	addi	a0,sp,8
   13122:	06c040ef          	jal	ra,1718e <memset>
   13126:	15400613          	li	a2,340
   1312a:	85a2                	mv	a1,s0
   1312c:	10a8                	addi	a0,sp,104
   1312e:	643030ef          	jal	ra,16f70 <memcpy>
   13132:	403b5513          	srai	a0,s6,0x3
   13136:	007b7813          	andi	a6,s6,7
   1313a:	1c050793          	addi	a5,a0,448
   1313e:	978a                	add	a5,a5,sp
   13140:	010a173b          	sllw	a4,s4,a6
   13144:	e4e78423          	sb	a4,-440(a5)
   13148:	86a6                	mv	a3,s1
   1314a:	003c                	addi	a5,sp,8
   1314c:	4601                	li	a2,0
   1314e:	0007c703          	lbu	a4,0(a5)
   13152:	0006c583          	lbu	a1,0(a3)
   13156:	0785                	addi	a5,a5,1
   13158:	0685                	addi	a3,a3,1
   1315a:	8f6d                	and	a4,a4,a1
   1315c:	8e39                	xor	a2,a2,a4
   1315e:	ff5798e3          	bne	a5,s5,1314e <_ZL8syndromePhPKhS_+0x62>
   13162:	0046579b          	srliw	a5,a2,0x4
   13166:	8fb1                	xor	a5,a5,a2
   13168:	0ff7f793          	zext.b	a5,a5
   1316c:	0027d713          	srli	a4,a5,0x2
   13170:	8f3d                	xor	a4,a4,a5
   13172:	954a                	add	a0,a0,s2
   13174:	00175793          	srli	a5,a4,0x1
   13178:	00054683          	lbu	a3,0(a0)
   1317c:	8fb9                	xor	a5,a5,a4
   1317e:	8b85                	andi	a5,a5,1
   13180:	010797bb          	sllw	a5,a5,a6
   13184:	8fd5                	or	a5,a5,a3
   13186:	00f50023          	sb	a5,0(a0)
   1318a:	2b05                	addiw	s6,s6,1
   1318c:	15440413          	addi	s0,s0,340
   13190:	f93b15e3          	bne	s6,s3,1311a <_ZL8syndromePhPKhS_+0x2e>
   13194:	70fe                	ld	ra,504(sp)
   13196:	745e                	ld	s0,496(sp)
   13198:	74be                	ld	s1,488(sp)
   1319a:	791e                	ld	s2,480(sp)
   1319c:	69fe                	ld	s3,472(sp)
   1319e:	6a5e                	ld	s4,464(sp)
   131a0:	6abe                	ld	s5,456(sp)
   131a2:	6b1e                	ld	s6,448(sp)
   131a4:	20010113          	addi	sp,sp,512
   131a8:	8082                	ret

00000000000131aa <_ZL5gen_ePh>:
   131aa:	df010113          	addi	sp,sp,-528
   131ae:	20813023          	sd	s0,512(sp)
   131b2:	842a                	mv	s0,a0
   131b4:	4501                	li	a0,0
   131b6:	20113423          	sd	ra,520(sp)
   131ba:	e7de                	sd	s7,456(sp)
   131bc:	ffa6                	sd	s1,504(sp)
   131be:	fbca                	sd	s2,496(sp)
   131c0:	f7ce                	sd	s3,488(sp)
   131c2:	f3d2                	sd	s4,480(sp)
   131c4:	efd6                	sd	s5,472(sp)
   131c6:	ebda                	sd	s6,464(sp)
   131c8:	e3e2                	sd	s8,448(sp)
   131ca:	1fc040ef          	jal	ra,173c6 <time>
   131ce:	2501                	sext.w	a0,a0
   131d0:	140040ef          	jal	ra,17310 <srand>
   131d4:	0c010b93          	addi	s7,sp,192
   131d8:	875e                	mv	a4,s7
   131da:	4781                	li	a5,0
   131dc:	08000693          	li	a3,128
   131e0:	00f71023          	sh	a5,0(a4)
   131e4:	2785                	addiw	a5,a5,1
   131e6:	0709                	addi	a4,a4,2
   131e8:	fed79ce3          	bne	a5,a3,131e0 <_ZL5gen_ePh+0x36>
   131ec:	7a7d                	lui	s4,0xfffff
   131ee:	6985                	lui	s3,0x1
   131f0:	100b8913          	addi	s2,s7,256
   131f4:	0feb8a93          	addi	s5,s7,254
   131f8:	260a0a1b          	addiw	s4,s4,608 # fffffffffffff260 <__BSS_END__+0xfffffffffffd78f0>
   131fc:	da098993          	addi	s3,s3,-608 # da0 <exit-0xf348>
   13200:	04000b13          	li	s6,64
   13204:	7c61                	lui	s8,0xffff8
   13206:	10000693          	li	a3,256
   1320a:	865e                	mv	a2,s7
   1320c:	10000593          	li	a1,256
   13210:	855e                	mv	a0,s7
   13212:	869ff0ef          	jal	ra,12a7a <_Z8shake256PhmPKhm>
   13216:	84de                	mv	s1,s7
   13218:	8526                	mv	a0,s1
   1321a:	6fe030ef          	jal	ra,16918 <_Z7load_gfPKh>
   1321e:	00a49023          	sh	a0,0(s1)
   13222:	0489                	addi	s1,s1,2
   13224:	fe991ae3          	bne	s2,s1,13218 <_ZL5gen_ePh+0x6e>
   13228:	865e                	mv	a2,s7
   1322a:	4501                	li	a0,0
   1322c:	00065683          	lhu	a3,0(a2)
   13230:	00151793          	slli	a5,a0,0x1
   13234:	1c078793          	addi	a5,a5,448
   13238:	002785b3          	add	a1,a5,sp
   1323c:	014687bb          	addw	a5,a3,s4
   13240:	17c2                	slli	a5,a5,0x30
   13242:	93c1                	srli	a5,a5,0x30
   13244:	00f6c733          	xor	a4,a3,a5
   13248:	01874733          	xor	a4,a4,s8
   1324c:	0136c833          	xor	a6,a3,s3
   13250:	01077733          	and	a4,a4,a6
   13254:	8fb9                	xor	a5,a5,a4
   13256:	03079713          	slli	a4,a5,0x30
   1325a:	00074663          	bltz	a4,13266 <_ZL5gen_ePh+0xbc>
   1325e:	0cca8163          	beq	s5,a2,13320 <_ZL5gen_ePh+0x176>
   13262:	0609                	addi	a2,a2,2
   13264:	b7e1                	j	1322c <_ZL5gen_ePh+0x82>
   13266:	e8d59023          	sh	a3,-384(a1)
   1326a:	2505                	addiw	a0,a0,1
   1326c:	0aca8a63          	beq	s5,a2,13320 <_ZL5gen_ePh+0x176>
   13270:	0609                	addi	a2,a2,2
   13272:	fb651de3          	bne	a0,s6,1322c <_ZL5gen_ePh+0x82>
   13276:	04210693          	addi	a3,sp,66
   1327a:	4501                	li	a0,0
   1327c:	55fd                	li	a1,-1
   1327e:	0006d603          	lhu	a2,0(a3)
   13282:	0098                	addi	a4,sp,64
   13284:	00075783          	lhu	a5,0(a4)
   13288:	0709                	addi	a4,a4,2
   1328a:	8fb1                	xor	a5,a5,a2
   1328c:	40f007bb          	negw	a5,a5
   13290:	41f7d79b          	sraiw	a5,a5,0x1f
   13294:	00b78363          	beq	a5,a1,1329a <_ZL5gen_ePh+0xf0>
   13298:	4505                	li	a0,1
   1329a:	fee695e3          	bne	a3,a4,13284 <_ZL5gen_ePh+0xda>
   1329e:	0689                	addi	a3,a3,2
   132a0:	fcdb9fe3          	bne	s7,a3,1327e <_ZL5gen_ePh+0xd4>
   132a4:	f125                	bnez	a0,13204 <_ZL5gen_ePh+0x5a>
   132a6:	868a                	mv	a3,sp
   132a8:	0098                	addi	a4,sp,64
   132aa:	4605                	li	a2,1
   132ac:	00075783          	lhu	a5,0(a4)
   132b0:	0685                	addi	a3,a3,1
   132b2:	0709                	addi	a4,a4,2
   132b4:	8b9d                	andi	a5,a5,7
   132b6:	00f617bb          	sllw	a5,a2,a5
   132ba:	fef68fa3          	sb	a5,-1(a3)
   132be:	feeb97e3          	bne	s7,a4,132ac <_ZL5gen_ePh+0x102>
   132c2:	4801                	li	a6,0
   132c4:	1b400893          	li	a7,436
   132c8:	03081613          	slli	a2,a6,0x30
   132cc:	9241                	srli	a2,a2,0x30
   132ce:	858a                	mv	a1,sp
   132d0:	0098                	addi	a4,sp,64
   132d2:	4501                	li	a0,0
   132d4:	00075783          	lhu	a5,0(a4)
   132d8:	0005c683          	lbu	a3,0(a1)
   132dc:	0709                	addi	a4,a4,2
   132de:	0037d79b          	srliw	a5,a5,0x3
   132e2:	8fb1                	xor	a5,a5,a2
   132e4:	37fd                	addiw	a5,a5,-1
   132e6:	41f7d79b          	sraiw	a5,a5,0x1f
   132ea:	8ff5                	and	a5,a5,a3
   132ec:	8d5d                	or	a0,a0,a5
   132ee:	0585                	addi	a1,a1,1
   132f0:	feeb92e3          	bne	s7,a4,132d4 <_ZL5gen_ePh+0x12a>
   132f4:	010407b3          	add	a5,s0,a6
   132f8:	00a78023          	sb	a0,0(a5)
   132fc:	0805                	addi	a6,a6,1
   132fe:	fd1815e3          	bne	a6,a7,132c8 <_ZL5gen_ePh+0x11e>
   13302:	20813083          	ld	ra,520(sp)
   13306:	20013403          	ld	s0,512(sp)
   1330a:	74fe                	ld	s1,504(sp)
   1330c:	795e                	ld	s2,496(sp)
   1330e:	79be                	ld	s3,488(sp)
   13310:	7a1e                	ld	s4,480(sp)
   13312:	6afe                	ld	s5,472(sp)
   13314:	6b5e                	ld	s6,464(sp)
   13316:	6bbe                	ld	s7,456(sp)
   13318:	6c1e                	ld	s8,448(sp)
   1331a:	21010113          	addi	sp,sp,528
   1331e:	8082                	ret
   13320:	ef6513e3          	bne	a0,s6,13206 <_ZL5gen_ePh+0x5c>
   13324:	bf89                	j	13276 <_ZL5gen_ePh+0xcc>

0000000000013326 <_Z7encryptPhPKhS_>:
   13326:	1101                	addi	sp,sp,-32
   13328:	e426                	sd	s1,8(sp)
   1332a:	84aa                	mv	s1,a0
   1332c:	8532                	mv	a0,a2
   1332e:	e822                	sd	s0,16(sp)
   13330:	e04a                	sd	s2,0(sp)
   13332:	ec06                	sd	ra,24(sp)
   13334:	8432                	mv	s0,a2
   13336:	892e                	mv	s2,a1
   13338:	e73ff0ef          	jal	ra,131aa <_ZL5gen_ePh>
   1333c:	8622                	mv	a2,s0
   1333e:	6442                	ld	s0,16(sp)
   13340:	60e2                	ld	ra,24(sp)
   13342:	85ca                	mv	a1,s2
   13344:	8526                	mv	a0,s1
   13346:	6902                	ld	s2,0(sp)
   13348:	64a2                	ld	s1,8(sp)
   1334a:	6105                	addi	sp,sp,32
   1334c:	b345                	j	130ec <_ZL8syndromePhPKhS_>

000000000001334e <_ZL12gen_e_customPh>:
   1334e:	7121                	addi	sp,sp,-448
   13350:	f34a                	sd	s2,416(sp)
   13352:	ff06                	sd	ra,440(sp)
   13354:	fb22                	sd	s0,432(sp)
   13356:	f726                	sd	s1,424(sp)
   13358:	ef4e                	sd	s3,408(sp)
   1335a:	eb52                	sd	s4,400(sp)
   1335c:	e756                	sd	s5,392(sp)
   1335e:	892a                	mv	s2,a0
   13360:	4781                	li	a5,0
   13362:	00f1e7db          	pqccsrrw	a5,a5,3
   13366:	4501                	li	a0,0
   13368:	05e040ef          	jal	ra,173c6 <time>
   1336c:	2501                	sext.w	a0,a0
   1336e:	7a3030ef          	jal	ra,17310 <srand>
   13372:	0100                	addi	s0,sp,128
   13374:	8722                	mv	a4,s0
   13376:	4781                	li	a5,0
   13378:	08000693          	li	a3,128
   1337c:	00f71023          	sh	a5,0(a4)
   13380:	2785                	addiw	a5,a5,1
   13382:	0709                	addi	a4,a4,2
   13384:	fed79ce3          	bne	a5,a3,1337c <_ZL12gen_e_customPh+0x2e>
   13388:	6985                	lui	s3,0x1
   1338a:	fff98a9b          	addiw	s5,s3,-1 # fff <exit-0xf0e9>
   1338e:	4a01                	li	s4,0
   13390:	da09899b          	addiw	s3,s3,-608
   13394:	04000493          	li	s1,64
   13398:	10000693          	li	a3,256
   1339c:	8622                	mv	a2,s0
   1339e:	10000593          	li	a1,256
   133a2:	8522                	mv	a0,s0
   133a4:	843ff0ef          	jal	ra,12be6 <_Z15shake256_customPhmPKhm>
   133a8:	86a2                	mv	a3,s0
   133aa:	08000793          	li	a5,128
   133ae:	0487f757          	vsetvli	a4,a5,e16,m1,ta,mu
   133b2:	0206dc07          	vle16.v	v24,(a3)
   133b6:	00171613          	slli	a2,a4,0x1
   133ba:	278acc57          	vand.vx	v24,v24,s5
   133be:	8f99                	sub	a5,a5,a4
   133c0:	0206dc27          	vse16.v	v24,(a3)
   133c4:	96b2                	add	a3,a3,a2
   133c6:	f7e5                	bnez	a5,133ae <_ZL12gen_e_customPh+0x60>
   133c8:	8822                	mv	a6,s0
   133ca:	08000693          	li	a3,128
   133ce:	0486f5d7          	vsetvli	a1,a3,e16,m1,ta,mu
   133d2:	02085c07          	vle16.v	v24,(a6)
   133d6:	1b89ac2b          	sample.rej.vx	v24,v24,s3
   133da:	0141e75b          	pqccsrrw	a4,s4,3
   133de:	1702                	slli	a4,a4,0x20
   133e0:	9301                	srli	a4,a4,0x20
   133e2:	00179513          	slli	a0,a5,0x1
   133e6:	863e                	mv	a2,a5
   133e8:	97ba                	add	a5,a5,a4
   133ea:	950a                	add	a0,a0,sp
   133ec:	00159893          	slli	a7,a1,0x1
   133f0:	8e8d                	sub	a3,a3,a1
   133f2:	04877057          	vsetvli	zero,a4,e16,m1,ta,mu
   133f6:	06f4fc63          	bgeu	s1,a5,1346e <_ZL12gen_e_customPh+0x120>
   133fa:	40c48633          	sub	a2,s1,a2
   133fe:	04867057          	vsetvli	zero,a2,e16,m1,ta,mu
   13402:	02055c27          	vse16.v	v24,(a0)
   13406:	00210693          	addi	a3,sp,2
   1340a:	860a                	mv	a2,sp
   1340c:	4801                	li	a6,0
   1340e:	557d                	li	a0,-1
   13410:	0006d583          	lhu	a1,0(a3)
   13414:	870a                	mv	a4,sp
   13416:	00075783          	lhu	a5,0(a4)
   1341a:	0709                	addi	a4,a4,2
   1341c:	8fad                	xor	a5,a5,a1
   1341e:	40f007bb          	negw	a5,a5
   13422:	41f7d79b          	sraiw	a5,a5,0x1f
   13426:	00a78363          	beq	a5,a0,1342c <_ZL12gen_e_customPh+0xde>
   1342a:	4805                	li	a6,1
   1342c:	fee695e3          	bne	a3,a4,13416 <_ZL12gen_e_customPh+0xc8>
   13430:	0689                	addi	a3,a3,2
   13432:	fcd41fe3          	bne	s0,a3,13410 <_ZL12gen_e_customPh+0xc2>
   13436:	f60811e3          	bnez	a6,13398 <_ZL12gen_e_customPh+0x4a>
   1343a:	4585                	li	a1,1
   1343c:	00065783          	lhu	a5,0(a2)
   13440:	0609                	addi	a2,a2,2
   13442:	0037d713          	srli	a4,a5,0x3
   13446:	974a                	add	a4,a4,s2
   13448:	00074683          	lbu	a3,0(a4)
   1344c:	8b9d                	andi	a5,a5,7
   1344e:	00f597bb          	sllw	a5,a1,a5
   13452:	8fd5                	or	a5,a5,a3
   13454:	00f70023          	sb	a5,0(a4)
   13458:	fec412e3          	bne	s0,a2,1343c <_ZL12gen_e_customPh+0xee>
   1345c:	70fa                	ld	ra,440(sp)
   1345e:	745a                	ld	s0,432(sp)
   13460:	74ba                	ld	s1,424(sp)
   13462:	791a                	ld	s2,416(sp)
   13464:	69fa                	ld	s3,408(sp)
   13466:	6a5a                	ld	s4,400(sp)
   13468:	6aba                	ld	s5,392(sp)
   1346a:	6139                	addi	sp,sp,448
   1346c:	8082                	ret
   1346e:	02055c27          	vse16.v	v24,(a0)
   13472:	9846                	add	a6,a6,a7
   13474:	c681                	beqz	a3,1347c <_ZL12gen_e_customPh+0x12e>
   13476:	f4979ce3          	bne	a5,s1,133ce <_ZL12gen_e_customPh+0x80>
   1347a:	b771                	j	13406 <_ZL12gen_e_customPh+0xb8>
   1347c:	f0979ee3          	bne	a5,s1,13398 <_ZL12gen_e_customPh+0x4a>
   13480:	b759                	j	13406 <_ZL12gen_e_customPh+0xb8>

0000000000013482 <_ZL20gen_e_custom_fortestPh>:
   13482:	7125                	addi	sp,sp,-416
   13484:	e726                	sd	s1,392(sp)
   13486:	ef06                	sd	ra,408(sp)
   13488:	eb22                	sd	s0,400(sp)
   1348a:	84aa                	mv	s1,a0
   1348c:	4781                	li	a5,0
   1348e:	00f1e7db          	pqccsrrw	a5,a5,3
   13492:	4501                	li	a0,0
   13494:	733030ef          	jal	ra,173c6 <time>
   13498:	2501                	sext.w	a0,a0
   1349a:	677030ef          	jal	ra,17310 <srand>
   1349e:	0100                	addi	s0,sp,128
   134a0:	8722                	mv	a4,s0
   134a2:	4781                	li	a5,0
   134a4:	08000693          	li	a3,128
   134a8:	00f71023          	sh	a5,0(a4)
   134ac:	2785                	addiw	a5,a5,1
   134ae:	0709                	addi	a4,a4,2
   134b0:	fed79ce3          	bne	a5,a3,134a8 <_ZL20gen_e_custom_fortestPh+0x26>
   134b4:	10000693          	li	a3,256
   134b8:	10000593          	li	a1,256
   134bc:	8622                	mv	a2,s0
   134be:	8522                	mv	a0,s0
   134c0:	f26ff0ef          	jal	ra,12be6 <_Z15shake256_customPhmPKhm>
   134c4:	6585                	lui	a1,0x1
   134c6:	86a2                	mv	a3,s0
   134c8:	08000793          	li	a5,128
   134cc:	35fd                	addiw	a1,a1,-1 # fff <exit-0xf0e9>
   134ce:	0487f757          	vsetvli	a4,a5,e16,m1,ta,mu
   134d2:	0206dc07          	vle16.v	v24,(a3)
   134d6:	00171613          	slli	a2,a4,0x1
   134da:	2785cc57          	vand.vx	v24,v24,a1
   134de:	8f99                	sub	a5,a5,a4
   134e0:	0206dc27          	vse16.v	v24,(a3)
   134e4:	96b2                	add	a3,a3,a2
   134e6:	f7e5                	bnez	a5,134ce <_ZL20gen_e_custom_fortestPh+0x4c>
   134e8:	6e05                	lui	t3,0x1
   134ea:	88a2                	mv	a7,s0
   134ec:	08000693          	li	a3,128
   134f0:	da0e0e1b          	addiw	t3,t3,-608 # da0 <exit-0xf348>
   134f4:	4e81                	li	t4,0
   134f6:	04000513          	li	a0,64
   134fa:	0486f657          	vsetvli	a2,a3,e16,m1,ta,mu
   134fe:	0208dc07          	vle16.v	v24,(a7)
   13502:	1b8e2c2b          	sample.rej.vx	v24,v24,t3
   13506:	01d1e75b          	pqccsrrw	a4,t4,3
   1350a:	1702                	slli	a4,a4,0x20
   1350c:	9301                	srli	a4,a4,0x20
   1350e:	00179593          	slli	a1,a5,0x1
   13512:	883e                	mv	a6,a5
   13514:	97ba                	add	a5,a5,a4
   13516:	958a                	add	a1,a1,sp
   13518:	00161313          	slli	t1,a2,0x1
   1351c:	8e91                	sub	a3,a3,a2
   1351e:	04877057          	vsetvli	zero,a4,e16,m1,ta,mu
   13522:	02f57f63          	bgeu	a0,a5,13560 <_ZL20gen_e_custom_fortestPh+0xde>
   13526:	41050533          	sub	a0,a0,a6
   1352a:	04857057          	vsetvli	zero,a0,e16,m1,ta,mu
   1352e:	0205dc27          	vse16.v	v24,(a1)
   13532:	868a                	mv	a3,sp
   13534:	4605                	li	a2,1
   13536:	0006d783          	lhu	a5,0(a3)
   1353a:	0689                	addi	a3,a3,2
   1353c:	0037d713          	srli	a4,a5,0x3
   13540:	9726                	add	a4,a4,s1
   13542:	00074583          	lbu	a1,0(a4)
   13546:	8b9d                	andi	a5,a5,7
   13548:	00f617bb          	sllw	a5,a2,a5
   1354c:	8fcd                	or	a5,a5,a1
   1354e:	00f70023          	sb	a5,0(a4)
   13552:	fed412e3          	bne	s0,a3,13536 <_ZL20gen_e_custom_fortestPh+0xb4>
   13556:	60fa                	ld	ra,408(sp)
   13558:	645a                	ld	s0,400(sp)
   1355a:	64ba                	ld	s1,392(sp)
   1355c:	611d                	addi	sp,sp,416
   1355e:	8082                	ret
   13560:	0205dc27          	vse16.v	v24,(a1)
   13564:	989a                	add	a7,a7,t1
   13566:	d6f1                	beqz	a3,13532 <_ZL20gen_e_custom_fortestPh+0xb0>
   13568:	f8a799e3          	bne	a5,a0,134fa <_ZL20gen_e_custom_fortestPh+0x78>
   1356c:	b7d9                	j	13532 <_ZL20gen_e_custom_fortestPh+0xb0>

000000000001356e <_ZL19syndrome_custom_asmPhPKhS_>:
   1356e:	1101                	addi	sp,sp,-32
   13570:	e822                	sd	s0,16(sp)
   13572:	e426                	sd	s1,8(sp)
   13574:	842e                	mv	s0,a1
   13576:	84b2                	mv	s1,a2
   13578:	4581                	li	a1,0
   1357a:	06000613          	li	a2,96
   1357e:	e04a                	sd	s2,0(sp)
   13580:	ec06                	sd	ra,24(sp)
   13582:	892a                	mv	s2,a0
   13584:	40b030ef          	jal	ra,1718e <memset>
   13588:	00848713          	addi	a4,s1,8
   1358c:	01048693          	addi	a3,s1,16
   13590:	01848613          	addi	a2,s1,24
   13594:	02048593          	addi	a1,s1,32
   13598:	02848513          	addi	a0,s1,40
   1359c:	03048813          	addi	a6,s1,48
   135a0:	03848893          	addi	a7,s1,56
   135a4:	04048313          	addi	t1,s1,64
   135a8:	04848e13          	addi	t3,s1,72
   135ac:	05048e93          	addi	t4,s1,80
   135b0:	05848f13          	addi	t5,s1,88
   135b4:	47a1                	li	a5,8
   135b6:	04000f93          	li	t6,64
   135ba:	4285                	li	t0,1
   135bc:	0407f057          	vsetvli	zero,a5,e8,m1,ta,mu
   135c0:	02048107          	vle8.v	v2,(s1)
   135c4:	02070187          	vle8.v	v3,(a4)
   135c8:	02068207          	vle8.v	v4,(a3)
   135cc:	02060287          	vle8.v	v5,(a2)
   135d0:	02058307          	vle8.v	v6,(a1)
   135d4:	02050387          	vle8.v	v7,(a0)
   135d8:	02080407          	vle8.v	v8,(a6)
   135dc:	02088487          	vle8.v	v9,(a7)
   135e0:	02030507          	vle8.v	v10,(t1)
   135e4:	020e0587          	vle8.v	v11,(t3)
   135e8:	020e8607          	vle8.v	v12,(t4)
   135ec:	020f0687          	vle8.v	v13,(t5)
   135f0:	040ff057          	vsetvli	zero,t6,e8,m1,ta,mu
   135f4:	2222a12b          	unpack.vx	v2,v2,t0
   135f8:	2232a1ab          	unpack.vx	v3,v3,t0
   135fc:	2242a22b          	unpack.vx	v4,v4,t0
   13600:	2252a2ab          	unpack.vx	v5,v5,t0
   13604:	2262a32b          	unpack.vx	v6,v6,t0
   13608:	2272a3ab          	unpack.vx	v7,v7,t0
   1360c:	2282a42b          	unpack.vx	v8,v8,t0
   13610:	2292a4ab          	unpack.vx	v9,v9,t0
   13614:	22a2a52b          	unpack.vx	v10,v10,t0
   13618:	22b2a5ab          	unpack.vx	v11,v11,t0
   1361c:	22c2a62b          	unpack.vx	v12,v12,t0
   13620:	22d2a6ab          	unpack.vx	v13,v13,t0
   13624:	6ead                	lui	t4,0xb
   13626:	6e55                	lui	t3,0x15
   13628:	00020337          	lui	t1,0x20
   1362c:	0002b8b7          	lui	a7,0x2b
   13630:	00035837          	lui	a6,0x35
   13634:	85a2                	mv	a1,s0
   13636:	06048693          	addi	a3,s1,96
   1363a:	15440513          	addi	a0,s0,340
   1363e:	08000f13          	li	t5,128
   13642:	15400713          	li	a4,340
   13646:	a00e8e93          	addi	t4,t4,-1536 # aa00 <exit-0x56e8>
   1364a:	400e0e13          	addi	t3,t3,1024 # 15400 <_Z6pk_genPhS_PjPs+0x44c>
   1364e:	e0030313          	addi	t1,t1,-512 # 1fe00 <_vfiprintf_r+0x396>
   13652:	80088893          	addi	a7,a7,-2048 # 2a800 <__BSS_END__+0x2e90>
   13656:	20080813          	addi	a6,a6,512 # 35200 <__BSS_END__+0xd890>
   1365a:	0006c783          	lbu	a5,0(a3)
   1365e:	041f7057          	vsetvli	zero,t5,e8,m2,ta,mu
   13662:	0ae58707          	vlse8.v	v14,(a1),a4
   13666:	26e7c757          	vand.vx	v14,v14,a5
   1366a:	2e270157          	vxor.vv	v2,v2,v14
   1366e:	01d58633          	add	a2,a1,t4
   13672:	0ae60707          	vlse8.v	v14,(a2),a4
   13676:	26e7c757          	vand.vx	v14,v14,a5
   1367a:	2e470257          	vxor.vv	v4,v4,v14
   1367e:	01c58633          	add	a2,a1,t3
   13682:	0ae60707          	vlse8.v	v14,(a2),a4
   13686:	26e7c757          	vand.vx	v14,v14,a5
   1368a:	2e670357          	vxor.vv	v6,v6,v14
   1368e:	00658633          	add	a2,a1,t1
   13692:	0ae60707          	vlse8.v	v14,(a2),a4
   13696:	26e7c757          	vand.vx	v14,v14,a5
   1369a:	2e870457          	vxor.vv	v8,v8,v14
   1369e:	01158633          	add	a2,a1,a7
   136a2:	0ae60707          	vlse8.v	v14,(a2),a4
   136a6:	26e7c757          	vand.vx	v14,v14,a5
   136aa:	2ea70557          	vxor.vv	v10,v10,v14
   136ae:	01058633          	add	a2,a1,a6
   136b2:	0ae60707          	vlse8.v	v14,(a2),a4
   136b6:	26e7c757          	vand.vx	v14,v14,a5
   136ba:	2ec70657          	vxor.vv	v12,v12,v14
   136be:	0585                	addi	a1,a1,1
   136c0:	0685                	addi	a3,a3,1
   136c2:	f8a59ce3          	bne	a1,a0,1365a <_ZL19syndrome_custom_asmPhPKhS_+0xec>
   136c6:	a2223757          	vsrl.vi	v14,v2,4
   136ca:	2e270157          	vxor.vv	v2,v2,v14
   136ce:	a2213757          	vsrl.vi	v14,v2,2
   136d2:	2e270157          	vxor.vv	v2,v2,v14
   136d6:	a220b757          	vsrl.vi	v14,v2,1
   136da:	2e270157          	vxor.vv	v2,v2,v14
   136de:	2620b157          	vand.vi	v2,v2,1
   136e2:	a2423757          	vsrl.vi	v14,v4,4
   136e6:	2e470257          	vxor.vv	v4,v4,v14
   136ea:	a2413757          	vsrl.vi	v14,v4,2
   136ee:	2e470257          	vxor.vv	v4,v4,v14
   136f2:	a240b757          	vsrl.vi	v14,v4,1
   136f6:	2e470257          	vxor.vv	v4,v4,v14
   136fa:	2640b257          	vand.vi	v4,v4,1
   136fe:	a2623757          	vsrl.vi	v14,v6,4
   13702:	2e670357          	vxor.vv	v6,v6,v14
   13706:	a2613757          	vsrl.vi	v14,v6,2
   1370a:	2e670357          	vxor.vv	v6,v6,v14
   1370e:	a260b757          	vsrl.vi	v14,v6,1
   13712:	2e670357          	vxor.vv	v6,v6,v14
   13716:	2660b357          	vand.vi	v6,v6,1
   1371a:	a2823757          	vsrl.vi	v14,v8,4
   1371e:	2e870457          	vxor.vv	v8,v8,v14
   13722:	a2813757          	vsrl.vi	v14,v8,2
   13726:	2e870457          	vxor.vv	v8,v8,v14
   1372a:	a280b757          	vsrl.vi	v14,v8,1
   1372e:	2e870457          	vxor.vv	v8,v8,v14
   13732:	2680b457          	vand.vi	v8,v8,1
   13736:	a2a23757          	vsrl.vi	v14,v10,4
   1373a:	2ea70557          	vxor.vv	v10,v10,v14
   1373e:	a2a13757          	vsrl.vi	v14,v10,2
   13742:	2ea70557          	vxor.vv	v10,v10,v14
   13746:	a2a0b757          	vsrl.vi	v14,v10,1
   1374a:	2ea70557          	vxor.vv	v10,v10,v14
   1374e:	26a0b557          	vand.vi	v10,v10,1
   13752:	a2c23757          	vsrl.vi	v14,v12,4
   13756:	2ec70657          	vxor.vv	v12,v12,v14
   1375a:	a2c13757          	vsrl.vi	v14,v12,2
   1375e:	2ec70657          	vxor.vv	v12,v12,v14
   13762:	a2c0b757          	vsrl.vi	v14,v12,1
   13766:	2ec70657          	vxor.vv	v12,v12,v14
   1376a:	26c0b657          	vand.vi	v12,v12,1
   1376e:	04000793          	li	a5,64
   13772:	4705                	li	a4,1
   13774:	0407f057          	vsetvli	zero,a5,e8,m1,ta,mu
   13778:	1e27212b          	pack.vx	v2,v2,a4
   1377c:	1e3721ab          	pack.vx	v3,v3,a4
   13780:	1e47222b          	pack.vx	v4,v4,a4
   13784:	1e5722ab          	pack.vx	v5,v5,a4
   13788:	1e67232b          	pack.vx	v6,v6,a4
   1378c:	1e7723ab          	pack.vx	v7,v7,a4
   13790:	1e87242b          	pack.vx	v8,v8,a4
   13794:	1e9724ab          	pack.vx	v9,v9,a4
   13798:	1ea7252b          	pack.vx	v10,v10,a4
   1379c:	1eb725ab          	pack.vx	v11,v11,a4
   137a0:	1ec7262b          	pack.vx	v12,v12,a4
   137a4:	1ed726ab          	pack.vx	v13,v13,a4
   137a8:	47a1                	li	a5,8
   137aa:	00890713          	addi	a4,s2,8
   137ae:	01090693          	addi	a3,s2,16
   137b2:	01890613          	addi	a2,s2,24
   137b6:	02090593          	addi	a1,s2,32
   137ba:	02890513          	addi	a0,s2,40
   137be:	03090813          	addi	a6,s2,48
   137c2:	03890893          	addi	a7,s2,56
   137c6:	04090313          	addi	t1,s2,64
   137ca:	04890e13          	addi	t3,s2,72
   137ce:	05090e93          	addi	t4,s2,80
   137d2:	05890f13          	addi	t5,s2,88
   137d6:	0407f057          	vsetvli	zero,a5,e8,m1,ta,mu
   137da:	02090127          	vse8.v	v2,(s2)
   137de:	020701a7          	vse8.v	v3,(a4)
   137e2:	02068227          	vse8.v	v4,(a3)
   137e6:	020602a7          	vse8.v	v5,(a2)
   137ea:	02058327          	vse8.v	v6,(a1)
   137ee:	020503a7          	vse8.v	v7,(a0)
   137f2:	02080427          	vse8.v	v8,(a6)
   137f6:	020884a7          	vse8.v	v9,(a7)
   137fa:	02030527          	vse8.v	v10,(t1)
   137fe:	020e05a7          	vse8.v	v11,(t3)
   13802:	020e8627          	vse8.v	v12,(t4)
   13806:	020f06a7          	vse8.v	v13,(t5)
   1380a:	60e2                	ld	ra,24(sp)
   1380c:	6442                	ld	s0,16(sp)
   1380e:	64a2                	ld	s1,8(sp)
   13810:	6902                	ld	s2,0(sp)
   13812:	6105                	addi	sp,sp,32
   13814:	8082                	ret

0000000000013816 <_Z14encrypt_customPhPKhS_>:
   13816:	c22022f3          	csrr	t0,vlenb
   1381a:	1101                	addi	sp,sp,-32
   1381c:	40500333          	neg	t1,t0
   13820:	ec06                	sd	ra,24(sp)
   13822:	e822                	sd	s0,16(sp)
   13824:	e426                	sd	s1,8(sp)
   13826:	e04a                	sd	s2,0(sp)
   13828:	84aa                	mv	s1,a0
   1382a:	911a                	add	sp,sp,t1
   1382c:	8532                	mv	a0,a2
   1382e:	8932                	mv	s2,a2
   13830:	02810c27          	vs1r.v	v24,(sp)
   13834:	842e                	mv	s0,a1
   13836:	b19ff0ef          	jal	ra,1334e <_ZL12gen_e_customPh>
   1383a:	06000613          	li	a2,96
   1383e:	4581                	li	a1,0
   13840:	8526                	mv	a0,s1
   13842:	14d030ef          	jal	ra,1718e <memset>
   13846:	06090893          	addi	a7,s2,96
   1384a:	4301                	li	t1,0
   1384c:	4681                	li	a3,0
   1384e:	4805                	li	a6,1
   13850:	30000513          	li	a0,768
   13854:	02810c07          	vl1r.v	v24,(sp)
   13858:	85c6                	mv	a1,a7
   1385a:	8622                	mv	a2,s0
   1385c:	15400793          	li	a5,340
   13860:	c000f757          	vsetivli	a4,1,e8,m1,tu,mu
   13864:	42006c57          	vmv.s.x	v24,zero
   13868:	0437f757          	vsetvli	a4,a5,e8,m8,ta,mu
   1386c:	8f99                	sub	a5,a5,a4
   1386e:	02060407          	vle8.v	v8,(a2)
   13872:	02058807          	vle8.v	v16,(a1)
   13876:	963a                	add	a2,a2,a4
   13878:	26880457          	vand.vv	v8,v8,v16
   1387c:	95ba                	add	a1,a1,a4
   1387e:	00307057          	vsetvli	zero,zero,e8,m8,tu,mu
   13882:	0e8c2c57          	vredxor.vs	v24,v8,v24
   13886:	f3ed                	bnez	a5,13868 <_Z14encrypt_customPhPKhS_+0x52>
   13888:	4036d713          	srai	a4,a3,0x3
   1388c:	00e907b3          	add	a5,s2,a4
   13890:	0007c603          	lbu	a2,0(a5)
   13894:	0076f593          	andi	a1,a3,7
   13898:	00b817bb          	sllw	a5,a6,a1
   1389c:	8e7d                	and	a2,a2,a5
   1389e:	438027d7          	vmv.x.s	a5,v24
   138a2:	0ff7f793          	zext.b	a5,a5
   138a6:	8fb1                	xor	a5,a5,a2
   138a8:	0047d613          	srli	a2,a5,0x4
   138ac:	8fb1                	xor	a5,a5,a2
   138ae:	0027d613          	srli	a2,a5,0x2
   138b2:	8fb1                	xor	a5,a5,a2
   138b4:	0017d613          	srli	a2,a5,0x1
   138b8:	8fb1                	xor	a5,a5,a2
   138ba:	8b85                	andi	a5,a5,1
   138bc:	00b797bb          	sllw	a5,a5,a1
   138c0:	00e48633          	add	a2,s1,a4
   138c4:	00f367b3          	or	a5,t1,a5
   138c8:	2685                	addiw	a3,a3,1
   138ca:	00f60023          	sb	a5,0(a2)
   138ce:	15440413          	addi	s0,s0,340
   138d2:	00a68863          	beq	a3,a0,138e2 <_Z14encrypt_customPhPKhS_+0xcc>
   138d6:	4036d71b          	sraiw	a4,a3,0x3
   138da:	9726                	add	a4,a4,s1
   138dc:	00074303          	lbu	t1,0(a4)
   138e0:	bfa5                	j	13858 <_Z14encrypt_customPhPKhS_+0x42>
   138e2:	c22022f3          	csrr	t0,vlenb
   138e6:	9116                	add	sp,sp,t0
   138e8:	60e2                	ld	ra,24(sp)
   138ea:	6442                	ld	s0,16(sp)
   138ec:	64a2                	ld	s1,8(sp)
   138ee:	6902                	ld	s2,0(sp)
   138f0:	6105                	addi	sp,sp,32
   138f2:	8082                	ret

00000000000138f4 <_Z18encrypt_custom_asmPhPKhS_>:
   138f4:	1101                	addi	sp,sp,-32
   138f6:	e426                	sd	s1,8(sp)
   138f8:	84aa                	mv	s1,a0
   138fa:	8532                	mv	a0,a2
   138fc:	e822                	sd	s0,16(sp)
   138fe:	e04a                	sd	s2,0(sp)
   13900:	ec06                	sd	ra,24(sp)
   13902:	8432                	mv	s0,a2
   13904:	892e                	mv	s2,a1
   13906:	a49ff0ef          	jal	ra,1334e <_ZL12gen_e_customPh>
   1390a:	8622                	mv	a2,s0
   1390c:	6442                	ld	s0,16(sp)
   1390e:	60e2                	ld	ra,24(sp)
   13910:	85ca                	mv	a1,s2
   13912:	8526                	mv	a0,s1
   13914:	6902                	ld	s2,0(sp)
   13916:	64a2                	ld	s1,8(sp)
   13918:	6105                	addi	sp,sp,32
   1391a:	b991                	j	1356e <_ZL19syndrome_custom_asmPhPKhS_>

000000000001391c <_Z22encrypt_custom_fortestPhPKhS_>:
   1391c:	7179                	addi	sp,sp,-48
   1391e:	f022                	sd	s0,32(sp)
   13920:	ec26                	sd	s1,24(sp)
   13922:	e84a                	sd	s2,16(sp)
   13924:	f406                	sd	ra,40(sp)
   13926:	e44e                	sd	s3,8(sp)
   13928:	84aa                	mv	s1,a0
   1392a:	892e                	mv	s2,a1
   1392c:	8432                	mv	s0,a2
   1392e:	c00029f3          	rdcycle	s3
   13932:	8532                	mv	a0,a2
   13934:	b4fff0ef          	jal	ra,13482 <_ZL20gen_e_custom_fortestPh>
   13938:	c00025f3          	rdcycle	a1
   1393c:	00023537          	lui	a0,0x23
   13940:	413585b3          	sub	a1,a1,s3
   13944:	7c050513          	addi	a0,a0,1984 # 237c0 <_ZL22KeccakF_RoundConstants+0xc0>
   13948:	113030ef          	jal	ra,1725a <printf>
   1394c:	c00029f3          	rdcycle	s3
   13950:	8622                	mv	a2,s0
   13952:	85ca                	mv	a1,s2
   13954:	8526                	mv	a0,s1
   13956:	c19ff0ef          	jal	ra,1356e <_ZL19syndrome_custom_asmPhPKhS_>
   1395a:	c00025f3          	rdcycle	a1
   1395e:	7402                	ld	s0,32(sp)
   13960:	70a2                	ld	ra,40(sp)
   13962:	64e2                	ld	s1,24(sp)
   13964:	6942                	ld	s2,16(sp)
   13966:	413585b3          	sub	a1,a1,s3
   1396a:	69a2                	ld	s3,8(sp)
   1396c:	00023537          	lui	a0,0x23
   13970:	7f050513          	addi	a0,a0,2032 # 237f0 <_ZL22KeccakF_RoundConstants+0xf0>
   13974:	6145                	addi	sp,sp,48
   13976:	0e50306f          	j	1725a <printf>

000000000001397a <_Z9gf_iszerot>:
   1397a:	357d                	addiw	a0,a0,-1
   1397c:	0135551b          	srliw	a0,a0,0x13
   13980:	8082                	ret

0000000000013982 <_Z6gf_addtt>:
   13982:	8d2d                	xor	a0,a0,a1
   13984:	8082                	ret

0000000000013986 <_Z6gf_multt>:
   13986:	87aa                	mv	a5,a0
   13988:	0015f293          	andi	t0,a1,1
   1398c:	0025f513          	andi	a0,a1,2
   13990:	02f282bb          	mulw	t0,t0,a5
   13994:	0045ff93          	andi	t6,a1,4
   13998:	0085ff13          	andi	t5,a1,8
   1399c:	0105fe93          	andi	t4,a1,16
   139a0:	0205fe13          	andi	t3,a1,32
   139a4:	0405f313          	andi	t1,a1,64
   139a8:	0805f893          	andi	a7,a1,128
   139ac:	1005f813          	andi	a6,a1,256
   139b0:	2005f613          	andi	a2,a1,512
   139b4:	6705                	lui	a4,0x1
   139b6:	02f5053b          	mulw	a0,a0,a5
   139ba:	80070393          	addi	t2,a4,-2048 # 800 <exit-0xf8e8>
   139be:	4005f693          	andi	a3,a1,1024
   139c2:	0075f5b3          	and	a1,a1,t2
   139c6:	177d                	addi	a4,a4,-1
   139c8:	02ff8fbb          	mulw	t6,t6,a5
   139cc:	00554533          	xor	a0,a0,t0
   139d0:	2501                	sext.w	a0,a0
   139d2:	02ff0f3b          	mulw	t5,t5,a5
   139d6:	01f54533          	xor	a0,a0,t6
   139da:	2501                	sext.w	a0,a0
   139dc:	02fe8ebb          	mulw	t4,t4,a5
   139e0:	01e54533          	xor	a0,a0,t5
   139e4:	2501                	sext.w	a0,a0
   139e6:	02fe0e3b          	mulw	t3,t3,a5
   139ea:	01d54533          	xor	a0,a0,t4
   139ee:	2501                	sext.w	a0,a0
   139f0:	02f3033b          	mulw	t1,t1,a5
   139f4:	01c54533          	xor	a0,a0,t3
   139f8:	2501                	sext.w	a0,a0
   139fa:	02f888bb          	mulw	a7,a7,a5
   139fe:	00654533          	xor	a0,a0,t1
   13a02:	2501                	sext.w	a0,a0
   13a04:	02f8083b          	mulw	a6,a6,a5
   13a08:	01154533          	xor	a0,a0,a7
   13a0c:	2501                	sext.w	a0,a0
   13a0e:	02f6063b          	mulw	a2,a2,a5
   13a12:	01054533          	xor	a0,a0,a6
   13a16:	2501                	sext.w	a0,a0
   13a18:	02f686bb          	mulw	a3,a3,a5
   13a1c:	8d31                	xor	a0,a0,a2
   13a1e:	2501                	sext.w	a0,a0
   13a20:	02f585bb          	mulw	a1,a1,a5
   13a24:	8d35                	xor	a0,a0,a3
   13a26:	007fc7b7          	lui	a5,0x7fc
   13a2a:	8d2d                	xor	a0,a0,a1
   13a2c:	2501                	sext.w	a0,a0
   13a2e:	8fe9                	and	a5,a5,a0
   13a30:	0097d69b          	srliw	a3,a5,0x9
   13a34:	00c7d79b          	srliw	a5,a5,0xc
   13a38:	8fb5                	xor	a5,a5,a3
   13a3a:	8d3d                	xor	a0,a0,a5
   13a3c:	2501                	sext.w	a0,a0
   13a3e:	678d                	lui	a5,0x3
   13a40:	8fe9                	and	a5,a5,a0
   13a42:	0097d69b          	srliw	a3,a5,0x9
   13a46:	00c7d79b          	srliw	a5,a5,0xc
   13a4a:	8fb5                	xor	a5,a5,a3
   13a4c:	8d3d                	xor	a0,a0,a5
   13a4e:	8d79                	and	a0,a0,a4
   13a50:	1542                	slli	a0,a0,0x30
   13a52:	9141                	srli	a0,a0,0x30
   13a54:	8082                	ret

0000000000013a56 <_Z6gf_invt>:
   13a56:	00851793          	slli	a5,a0,0x8
   13a5a:	00ff0f37          	lui	t5,0xff0
   13a5e:	0fff0f13          	addi	t5,t5,255 # ff00ff <__BSS_END__+0xfc878f>
   13a62:	8fc9                	or	a5,a5,a0
   13a64:	01e7f7b3          	and	a5,a5,t5
   13a68:	00479713          	slli	a4,a5,0x4
   13a6c:	0f0f1eb7          	lui	t4,0xf0f1
   13a70:	f0fe8e93          	addi	t4,t4,-241 # f0f0f0f <__BSS_END__+0xf0c959f>
   13a74:	8f5d                	or	a4,a4,a5
   13a76:	01d77733          	and	a4,a4,t4
   13a7a:	00271793          	slli	a5,a4,0x2
   13a7e:	33333e37          	lui	t3,0x33333
   13a82:	333e0e13          	addi	t3,t3,819 # 33333333 <__BSS_END__+0x3330b9c3>
   13a86:	8fd9                	or	a5,a5,a4
   13a88:	01c7f7b3          	and	a5,a5,t3
   13a8c:	00179713          	slli	a4,a5,0x1
   13a90:	005548b7          	lui	a7,0x554
   13a94:	8f5d                	or	a4,a4,a5
   13a96:	011776b3          	and	a3,a4,a7
   13a9a:	55555337          	lui	t1,0x55555
   13a9e:	55530313          	addi	t1,t1,1365 # 55555555 <__BSS_END__+0x5552dbe5>
   13aa2:	0096d79b          	srliw	a5,a3,0x9
   13aa6:	00c6d69b          	srliw	a3,a3,0xc
   13aaa:	00677733          	and	a4,a4,t1
   13aae:	8fb5                	xor	a5,a5,a3
   13ab0:	8fb9                	xor	a5,a5,a4
   13ab2:	658d                	lui	a1,0x3
   13ab4:	2781                	sext.w	a5,a5
   13ab6:	00b7f733          	and	a4,a5,a1
   13aba:	0097569b          	srliw	a3,a4,0x9
   13abe:	00c7571b          	srliw	a4,a4,0xc
   13ac2:	8f35                	xor	a4,a4,a3
   13ac4:	6f85                	lui	t6,0x1
   13ac6:	ffff8813          	addi	a6,t6,-1 # fff <exit-0xf0e9>
   13aca:	8fb9                	xor	a5,a5,a4
   13acc:	0107f7b3          	and	a5,a5,a6
   13ad0:	0107979b          	slliw	a5,a5,0x10
   13ad4:	7171                	addi	sp,sp,-176
   13ad6:	0107d79b          	srliw	a5,a5,0x10
   13ada:	00157713          	andi	a4,a0,1
   13ade:	00257613          	andi	a2,a0,2
   13ae2:	ed4a                	sd	s2,152(sp)
   13ae4:	02e786bb          	mulw	a3,a5,a4
   13ae8:	f522                	sd	s0,168(sp)
   13aea:	00457413          	andi	s0,a0,4
   13aee:	c23a                	sw	a4,4(sp)
   13af0:	f126                	sd	s1,160(sp)
   13af2:	00857493          	andi	s1,a0,8
   13af6:	01057293          	andi	t0,a0,16
   13afa:	02057393          	andi	t2,a0,32
   13afe:	e94e                	sd	s3,144(sp)
   13b00:	04057993          	andi	s3,a0,64
   13b04:	02c7893b          	mulw	s2,a5,a2
   13b08:	e552                	sd	s4,136(sp)
   13b0a:	08057a13          	andi	s4,a0,128
   13b0e:	e156                	sd	s5,128(sp)
   13b10:	10057a93          	andi	s5,a0,256
   13b14:	fcda                	sd	s6,120(sp)
   13b16:	20057b13          	andi	s6,a0,512
   13b1a:	800f8f93          	addi	t6,t6,-2048
   13b1e:	f8de                	sd	s7,112(sp)
   13b20:	40057b93          	andi	s7,a0,1024
   13b24:	0287873b          	mulw	a4,a5,s0
   13b28:	00d94933          	xor	s2,s2,a3
   13b2c:	2901                	sext.w	s2,s2
   13b2e:	01f57533          	and	a0,a0,t6
   13b32:	f4e2                	sd	s8,104(sp)
   13b34:	8c2a                	mv	s8,a0
   13b36:	007fc537          	lui	a0,0x7fc
   13b3a:	ce4e                	sw	s3,28(sp)
   13b3c:	c826                	sw	s1,16(sp)
   13b3e:	d052                	sw	s4,32(sp)
   13b40:	029786bb          	mulw	a3,a5,s1
   13b44:	00e94933          	xor	s2,s2,a4
   13b48:	2901                	sext.w	s2,s2
   13b4a:	c432                	sw	a2,8(sp)
   13b4c:	d256                	sw	s5,36(sp)
   13b4e:	f0e6                	sd	s9,96(sp)
   13b50:	ecea                	sd	s10,88(sp)
   13b52:	e8ee                	sd	s11,80(sp)
   13b54:	c622                	sw	s0,12(sp)
   13b56:	ca16                	sw	t0,20(sp)
   13b58:	0257873b          	mulw	a4,a5,t0
   13b5c:	00d94933          	xor	s2,s2,a3
   13b60:	2901                	sext.w	s2,s2
   13b62:	cc1e                	sw	t2,24(sp)
   13b64:	d45a                	sw	s6,40(sp)
   13b66:	d862                	sw	s8,48(sp)
   13b68:	d65e                	sw	s7,44(sp)
   13b6a:	027786bb          	mulw	a3,a5,t2
   13b6e:	00e94933          	xor	s2,s2,a4
   13b72:	2901                	sext.w	s2,s2
   13b74:	0337873b          	mulw	a4,a5,s3
   13b78:	00d94933          	xor	s2,s2,a3
   13b7c:	2901                	sext.w	s2,s2
   13b7e:	034786bb          	mulw	a3,a5,s4
   13b82:	00e94933          	xor	s2,s2,a4
   13b86:	2901                	sext.w	s2,s2
   13b88:	0357873b          	mulw	a4,a5,s5
   13b8c:	00d94933          	xor	s2,s2,a3
   13b90:	2901                	sext.w	s2,s2
   13b92:	036786bb          	mulw	a3,a5,s6
   13b96:	00e94933          	xor	s2,s2,a4
   13b9a:	2901                	sext.w	s2,s2
   13b9c:	0377873b          	mulw	a4,a5,s7
   13ba0:	00d94933          	xor	s2,s2,a3
   13ba4:	2901                	sext.w	s2,s2
   13ba6:	038787bb          	mulw	a5,a5,s8
   13baa:	00e94933          	xor	s2,s2,a4
   13bae:	00f94933          	xor	s2,s2,a5
   13bb2:	2901                	sext.w	s2,s2
   13bb4:	00a977b3          	and	a5,s2,a0
   13bb8:	0097d71b          	srliw	a4,a5,0x9
   13bbc:	00c7d79b          	srliw	a5,a5,0xc
   13bc0:	8fb9                	xor	a5,a5,a4
   13bc2:	00f94933          	xor	s2,s2,a5
   13bc6:	2901                	sext.w	s2,s2
   13bc8:	00b977b3          	and	a5,s2,a1
   13bcc:	0097d71b          	srliw	a4,a5,0x9
   13bd0:	00c7d79b          	srliw	a5,a5,0xc
   13bd4:	8fb9                	xor	a5,a5,a4
   13bd6:	00f94933          	xor	s2,s2,a5
   13bda:	1942                	slli	s2,s2,0x30
   13bdc:	03095913          	srli	s2,s2,0x30
   13be0:	01097733          	and	a4,s2,a6
   13be4:	0087179b          	slliw	a5,a4,0x8
   13be8:	8fd9                	or	a5,a5,a4
   13bea:	2781                	sext.w	a5,a5
   13bec:	01e7f7b3          	and	a5,a5,t5
   13bf0:	00479713          	slli	a4,a5,0x4
   13bf4:	8f5d                	or	a4,a4,a5
   13bf6:	01d77733          	and	a4,a4,t4
   13bfa:	00271793          	slli	a5,a4,0x2
   13bfe:	8fd9                	or	a5,a5,a4
   13c00:	01c7f7b3          	and	a5,a5,t3
   13c04:	00179713          	slli	a4,a5,0x1
   13c08:	8f5d                	or	a4,a4,a5
   13c0a:	011776b3          	and	a3,a4,a7
   13c0e:	0096d79b          	srliw	a5,a3,0x9
   13c12:	00c6d69b          	srliw	a3,a3,0xc
   13c16:	00677733          	and	a4,a4,t1
   13c1a:	8fb5                	xor	a5,a5,a3
   13c1c:	8fb9                	xor	a5,a5,a4
   13c1e:	2781                	sext.w	a5,a5
   13c20:	00b7f733          	and	a4,a5,a1
   13c24:	0097569b          	srliw	a3,a4,0x9
   13c28:	00c7571b          	srliw	a4,a4,0xc
   13c2c:	8f35                	xor	a4,a4,a3
   13c2e:	8fb9                	xor	a5,a5,a4
   13c30:	0107f7b3          	and	a5,a5,a6
   13c34:	0107979b          	slliw	a5,a5,0x10
   13c38:	0107d79b          	srliw	a5,a5,0x10
   13c3c:	0087971b          	slliw	a4,a5,0x8
   13c40:	8fd9                	or	a5,a5,a4
   13c42:	2781                	sext.w	a5,a5
   13c44:	01e7f7b3          	and	a5,a5,t5
   13c48:	00479713          	slli	a4,a5,0x4
   13c4c:	8fd9                	or	a5,a5,a4
   13c4e:	01d7f7b3          	and	a5,a5,t4
   13c52:	00279713          	slli	a4,a5,0x2
   13c56:	8f5d                	or	a4,a4,a5
   13c58:	01c77733          	and	a4,a4,t3
   13c5c:	00171793          	slli	a5,a4,0x1
   13c60:	8fd9                	or	a5,a5,a4
   13c62:	0117f733          	and	a4,a5,a7
   13c66:	0097569b          	srliw	a3,a4,0x9
   13c6a:	00c7571b          	srliw	a4,a4,0xc
   13c6e:	0067f7b3          	and	a5,a5,t1
   13c72:	8eb9                	xor	a3,a3,a4
   13c74:	8ebd                	xor	a3,a3,a5
   13c76:	2681                	sext.w	a3,a3
   13c78:	00b6f7b3          	and	a5,a3,a1
   13c7c:	0097d71b          	srliw	a4,a5,0x9
   13c80:	00c7d79b          	srliw	a5,a5,0xc
   13c84:	8fb9                	xor	a5,a5,a4
   13c86:	8ebd                	xor	a3,a3,a5
   13c88:	0106f6b3          	and	a3,a3,a6
   13c8c:	10097793          	andi	a5,s2,256
   13c90:	89be                	mv	s3,a5
   13c92:	0106969b          	slliw	a3,a3,0x10
   13c96:	20097793          	andi	a5,s2,512
   13c9a:	0106d69b          	srliw	a3,a3,0x10
   13c9e:	8a3e                	mv	s4,a5
   13ca0:	00197493          	andi	s1,s2,1
   13ca4:	00297713          	andi	a4,s2,2
   13ca8:	40097793          	andi	a5,s2,1024
   13cac:	0296863b          	mulw	a2,a3,s1
   13cb0:	8abe                	mv	s5,a5
   13cb2:	02097c93          	andi	s9,s2,32
   13cb6:	04097d13          	andi	s10,s2,64
   13cba:	08097d93          	andi	s11,s2,128
   13cbe:	00497413          	andi	s0,s2,4
   13cc2:	00897393          	andi	t2,s2,8
   13cc6:	01097293          	andi	t0,s2,16
   13cca:	01f97933          	and	s2,s2,t6
   13cce:	8b4a                	mv	s6,s2
   13cd0:	02e687bb          	mulw	a5,a3,a4
   13cd4:	de6e                	sw	s11,60(sp)
   13cd6:	dc6a                	sw	s10,56(sp)
   13cd8:	da66                	sw	s9,52(sp)
   13cda:	c6da                	sw	s6,76(sp)
   13cdc:	c4d6                	sw	s5,72(sp)
   13cde:	c2d2                	sw	s4,68(sp)
   13ce0:	c0ce                	sw	s3,64(sp)
   13ce2:	0286893b          	mulw	s2,a3,s0
   13ce6:	8fb1                	xor	a5,a5,a2
   13ce8:	2781                	sext.w	a5,a5
   13cea:	0276863b          	mulw	a2,a3,t2
   13cee:	0127c7b3          	xor	a5,a5,s2
   13cf2:	2781                	sext.w	a5,a5
   13cf4:	0256893b          	mulw	s2,a3,t0
   13cf8:	8fb1                	xor	a5,a5,a2
   13cfa:	2781                	sext.w	a5,a5
   13cfc:	0396863b          	mulw	a2,a3,s9
   13d00:	0127c7b3          	xor	a5,a5,s2
   13d04:	2781                	sext.w	a5,a5
   13d06:	03a6893b          	mulw	s2,a3,s10
   13d0a:	8fb1                	xor	a5,a5,a2
   13d0c:	2781                	sext.w	a5,a5
   13d0e:	03b6863b          	mulw	a2,a3,s11
   13d12:	0127c7b3          	xor	a5,a5,s2
   13d16:	2781                	sext.w	a5,a5
   13d18:	0336893b          	mulw	s2,a3,s3
   13d1c:	8fb1                	xor	a5,a5,a2
   13d1e:	2781                	sext.w	a5,a5
   13d20:	0346863b          	mulw	a2,a3,s4
   13d24:	0127c7b3          	xor	a5,a5,s2
   13d28:	2781                	sext.w	a5,a5
   13d2a:	0356893b          	mulw	s2,a3,s5
   13d2e:	8fb1                	xor	a5,a5,a2
   13d30:	2781                	sext.w	a5,a5
   13d32:	036686bb          	mulw	a3,a3,s6
   13d36:	0127c7b3          	xor	a5,a5,s2
   13d3a:	8fb5                	xor	a5,a5,a3
   13d3c:	2781                	sext.w	a5,a5
   13d3e:	00a7f6b3          	and	a3,a5,a0
   13d42:	0096d61b          	srliw	a2,a3,0x9
   13d46:	00c6d69b          	srliw	a3,a3,0xc
   13d4a:	8e35                	xor	a2,a2,a3
   13d4c:	8fb1                	xor	a5,a5,a2
   13d4e:	2781                	sext.w	a5,a5
   13d50:	00b7f6b3          	and	a3,a5,a1
   13d54:	0096d61b          	srliw	a2,a3,0x9
   13d58:	00c6d69b          	srliw	a3,a3,0xc
   13d5c:	8e35                	xor	a2,a2,a3
   13d5e:	8fb1                	xor	a5,a5,a2
   13d60:	17c2                	slli	a5,a5,0x30
   13d62:	93c1                	srli	a5,a5,0x30
   13d64:	0107f633          	and	a2,a5,a6
   13d68:	0086169b          	slliw	a3,a2,0x8
   13d6c:	8ed1                	or	a3,a3,a2
   13d6e:	2681                	sext.w	a3,a3
   13d70:	01e6f6b3          	and	a3,a3,t5
   13d74:	00469613          	slli	a2,a3,0x4
   13d78:	8e55                	or	a2,a2,a3
   13d7a:	01d67633          	and	a2,a2,t4
   13d7e:	00261693          	slli	a3,a2,0x2
   13d82:	8ed1                	or	a3,a3,a2
   13d84:	01c6f6b3          	and	a3,a3,t3
   13d88:	00169613          	slli	a2,a3,0x1
   13d8c:	8e55                	or	a2,a2,a3
   13d8e:	01167933          	and	s2,a2,a7
   13d92:	0099569b          	srliw	a3,s2,0x9
   13d96:	00c9591b          	srliw	s2,s2,0xc
   13d9a:	00667633          	and	a2,a2,t1
   13d9e:	0126c6b3          	xor	a3,a3,s2
   13da2:	8eb1                	xor	a3,a3,a2
   13da4:	2681                	sext.w	a3,a3
   13da6:	00b6f633          	and	a2,a3,a1
   13daa:	0096591b          	srliw	s2,a2,0x9
   13dae:	00c6561b          	srliw	a2,a2,0xc
   13db2:	00c94933          	xor	s2,s2,a2
   13db6:	0126c6b3          	xor	a3,a3,s2
   13dba:	0106f6b3          	and	a3,a3,a6
   13dbe:	0106969b          	slliw	a3,a3,0x10
   13dc2:	0106d69b          	srliw	a3,a3,0x10
   13dc6:	0086961b          	slliw	a2,a3,0x8
   13dca:	8ed1                	or	a3,a3,a2
   13dcc:	2681                	sext.w	a3,a3
   13dce:	01e6f6b3          	and	a3,a3,t5
   13dd2:	00469613          	slli	a2,a3,0x4
   13dd6:	8e55                	or	a2,a2,a3
   13dd8:	01d67633          	and	a2,a2,t4
   13ddc:	00261693          	slli	a3,a2,0x2
   13de0:	8ed1                	or	a3,a3,a2
   13de2:	01c6f6b3          	and	a3,a3,t3
   13de6:	00169613          	slli	a2,a3,0x1
   13dea:	8e55                	or	a2,a2,a3
   13dec:	01167933          	and	s2,a2,a7
   13df0:	0099569b          	srliw	a3,s2,0x9
   13df4:	00c9591b          	srliw	s2,s2,0xc
   13df8:	00667633          	and	a2,a2,t1
   13dfc:	0126c6b3          	xor	a3,a3,s2
   13e00:	8eb1                	xor	a3,a3,a2
   13e02:	2681                	sext.w	a3,a3
   13e04:	00b6f633          	and	a2,a3,a1
   13e08:	0096591b          	srliw	s2,a2,0x9
   13e0c:	00c6561b          	srliw	a2,a2,0xc
   13e10:	00c94933          	xor	s2,s2,a2
   13e14:	0126c6b3          	xor	a3,a3,s2
   13e18:	0106f6b3          	and	a3,a3,a6
   13e1c:	0106969b          	slliw	a3,a3,0x10
   13e20:	0106d69b          	srliw	a3,a3,0x10
   13e24:	0086961b          	slliw	a2,a3,0x8
   13e28:	8ed1                	or	a3,a3,a2
   13e2a:	2681                	sext.w	a3,a3
   13e2c:	01e6f6b3          	and	a3,a3,t5
   13e30:	00469613          	slli	a2,a3,0x4
   13e34:	8e55                	or	a2,a2,a3
   13e36:	01d67633          	and	a2,a2,t4
   13e3a:	00261693          	slli	a3,a2,0x2
   13e3e:	8ed1                	or	a3,a3,a2
   13e40:	01c6f6b3          	and	a3,a3,t3
   13e44:	00169613          	slli	a2,a3,0x1
   13e48:	8e55                	or	a2,a2,a3
   13e4a:	01167933          	and	s2,a2,a7
   13e4e:	0099569b          	srliw	a3,s2,0x9
   13e52:	00c9591b          	srliw	s2,s2,0xc
   13e56:	00667633          	and	a2,a2,t1
   13e5a:	0126c6b3          	xor	a3,a3,s2
   13e5e:	8eb1                	xor	a3,a3,a2
   13e60:	2681                	sext.w	a3,a3
   13e62:	00b6f633          	and	a2,a3,a1
   13e66:	0096591b          	srliw	s2,a2,0x9
   13e6a:	00c6561b          	srliw	a2,a2,0xc
   13e6e:	00c94933          	xor	s2,s2,a2
   13e72:	0126c6b3          	xor	a3,a3,s2
   13e76:	0106f6b3          	and	a3,a3,a6
   13e7a:	0106969b          	slliw	a3,a3,0x10
   13e7e:	0106d69b          	srliw	a3,a3,0x10
   13e82:	0086961b          	slliw	a2,a3,0x8
   13e86:	8ed1                	or	a3,a3,a2
   13e88:	2681                	sext.w	a3,a3
   13e8a:	01e6f6b3          	and	a3,a3,t5
   13e8e:	00469613          	slli	a2,a3,0x4
   13e92:	8ed1                	or	a3,a3,a2
   13e94:	01d6f6b3          	and	a3,a3,t4
   13e98:	00269613          	slli	a2,a3,0x2
   13e9c:	8e55                	or	a2,a2,a3
   13e9e:	01c67633          	and	a2,a2,t3
   13ea2:	00161693          	slli	a3,a2,0x1
   13ea6:	8ed1                	or	a3,a3,a2
   13ea8:	0116f933          	and	s2,a3,a7
   13eac:	0099561b          	srliw	a2,s2,0x9
   13eb0:	00c9591b          	srliw	s2,s2,0xc
   13eb4:	0066f6b3          	and	a3,a3,t1
   13eb8:	01264633          	xor	a2,a2,s2
   13ebc:	8e35                	xor	a2,a2,a3
   13ebe:	2601                	sext.w	a2,a2
   13ec0:	00b676b3          	and	a3,a2,a1
   13ec4:	0096d91b          	srliw	s2,a3,0x9
   13ec8:	00c6d69b          	srliw	a3,a3,0xc
   13ecc:	00d94933          	xor	s2,s2,a3
   13ed0:	01264633          	xor	a2,a2,s2
   13ed4:	01067633          	and	a2,a2,a6
   13ed8:	0106161b          	slliw	a2,a2,0x10
   13edc:	0106561b          	srliw	a2,a2,0x10
   13ee0:	0017fd93          	andi	s11,a5,1
   13ee4:	0027f693          	andi	a3,a5,2
   13ee8:	02cd8dbb          	mulw	s11,s11,a2
   13eec:	0047fd13          	andi	s10,a5,4
   13ef0:	0087fc93          	andi	s9,a5,8
   13ef4:	0107fc13          	andi	s8,a5,16
   13ef8:	0207fb93          	andi	s7,a5,32
   13efc:	0407fb13          	andi	s6,a5,64
   13f00:	0807fa93          	andi	s5,a5,128
   13f04:	1007fa13          	andi	s4,a5,256
   13f08:	2007f993          	andi	s3,a5,512
   13f0c:	4007f913          	andi	s2,a5,1024
   13f10:	02c686bb          	mulw	a3,a3,a2
   13f14:	01f7f7b3          	and	a5,a5,t6
   13f18:	02cd0d3b          	mulw	s10,s10,a2
   13f1c:	01b6c6b3          	xor	a3,a3,s11
   13f20:	2681                	sext.w	a3,a3
   13f22:	02cc8cbb          	mulw	s9,s9,a2
   13f26:	01a6c6b3          	xor	a3,a3,s10
   13f2a:	2681                	sext.w	a3,a3
   13f2c:	02cc0c3b          	mulw	s8,s8,a2
   13f30:	0196c6b3          	xor	a3,a3,s9
   13f34:	2681                	sext.w	a3,a3
   13f36:	5cd2                	lw	s9,52(sp)
   13f38:	5d62                	lw	s10,56(sp)
   13f3a:	5df2                	lw	s11,60(sp)
   13f3c:	02cb8bbb          	mulw	s7,s7,a2
   13f40:	0186c6b3          	xor	a3,a3,s8
   13f44:	2681                	sext.w	a3,a3
   13f46:	5c42                	lw	s8,48(sp)
   13f48:	02cb0b3b          	mulw	s6,s6,a2
   13f4c:	0176c6b3          	xor	a3,a3,s7
   13f50:	2681                	sext.w	a3,a3
   13f52:	5bb2                	lw	s7,44(sp)
   13f54:	02ca8abb          	mulw	s5,s5,a2
   13f58:	0166c6b3          	xor	a3,a3,s6
   13f5c:	2681                	sext.w	a3,a3
   13f5e:	5b22                	lw	s6,40(sp)
   13f60:	02ca0a3b          	mulw	s4,s4,a2
   13f64:	0156c6b3          	xor	a3,a3,s5
   13f68:	2681                	sext.w	a3,a3
   13f6a:	5a92                	lw	s5,36(sp)
   13f6c:	02c989bb          	mulw	s3,s3,a2
   13f70:	0146c6b3          	xor	a3,a3,s4
   13f74:	2681                	sext.w	a3,a3
   13f76:	5a02                	lw	s4,32(sp)
   13f78:	02c9093b          	mulw	s2,s2,a2
   13f7c:	0136c6b3          	xor	a3,a3,s3
   13f80:	2681                	sext.w	a3,a3
   13f82:	49f2                	lw	s3,28(sp)
   13f84:	02c787bb          	mulw	a5,a5,a2
   13f88:	0126c6b3          	xor	a3,a3,s2
   13f8c:	4906                	lw	s2,64(sp)
   13f8e:	8ebd                	xor	a3,a3,a5
   13f90:	0006879b          	sext.w	a5,a3
   13f94:	00a7f6b3          	and	a3,a5,a0
   13f98:	0096d61b          	srliw	a2,a3,0x9
   13f9c:	00c6d69b          	srliw	a3,a3,0xc
   13fa0:	8e35                	xor	a2,a2,a3
   13fa2:	8fb1                	xor	a5,a5,a2
   13fa4:	2781                	sext.w	a5,a5
   13fa6:	00b7f6b3          	and	a3,a5,a1
   13faa:	0096d61b          	srliw	a2,a3,0x9
   13fae:	00c6d69b          	srliw	a3,a3,0xc
   13fb2:	8e35                	xor	a2,a2,a3
   13fb4:	8fb1                	xor	a5,a5,a2
   13fb6:	0107f7b3          	and	a5,a5,a6
   13fba:	0107979b          	slliw	a5,a5,0x10
   13fbe:	0107d79b          	srliw	a5,a5,0x10
   13fc2:	0087969b          	slliw	a3,a5,0x8
   13fc6:	8fd5                	or	a5,a5,a3
   13fc8:	2781                	sext.w	a5,a5
   13fca:	01e7f7b3          	and	a5,a5,t5
   13fce:	00479693          	slli	a3,a5,0x4
   13fd2:	8edd                	or	a3,a3,a5
   13fd4:	01d6f6b3          	and	a3,a3,t4
   13fd8:	00269793          	slli	a5,a3,0x2
   13fdc:	8fd5                	or	a5,a5,a3
   13fde:	01c7f7b3          	and	a5,a5,t3
   13fe2:	00179693          	slli	a3,a5,0x1
   13fe6:	8edd                	or	a3,a3,a5
   13fe8:	0116f633          	and	a2,a3,a7
   13fec:	0096579b          	srliw	a5,a2,0x9
   13ff0:	00c6561b          	srliw	a2,a2,0xc
   13ff4:	0066f6b3          	and	a3,a3,t1
   13ff8:	8fb1                	xor	a5,a5,a2
   13ffa:	8fb5                	xor	a5,a5,a3
   13ffc:	2781                	sext.w	a5,a5
   13ffe:	00b7f6b3          	and	a3,a5,a1
   14002:	0096d61b          	srliw	a2,a3,0x9
   14006:	00c6d69b          	srliw	a3,a3,0xc
   1400a:	8e35                	xor	a2,a2,a3
   1400c:	8fb1                	xor	a5,a5,a2
   1400e:	0107f7b3          	and	a5,a5,a6
   14012:	0107979b          	slliw	a5,a5,0x10
   14016:	0107d79b          	srliw	a5,a5,0x10
   1401a:	0087969b          	slliw	a3,a5,0x8
   1401e:	8fd5                	or	a5,a5,a3
   14020:	2781                	sext.w	a5,a5
   14022:	01e7f7b3          	and	a5,a5,t5
   14026:	00479693          	slli	a3,a5,0x4
   1402a:	8edd                	or	a3,a3,a5
   1402c:	01d6f6b3          	and	a3,a3,t4
   14030:	00269793          	slli	a5,a3,0x2
   14034:	8fd5                	or	a5,a5,a3
   14036:	01c7f7b3          	and	a5,a5,t3
   1403a:	00179693          	slli	a3,a5,0x1
   1403e:	8edd                	or	a3,a3,a5
   14040:	0116f633          	and	a2,a3,a7
   14044:	0096579b          	srliw	a5,a2,0x9
