
test_ntt.riscv:     file format elf64-littleriscv


Disassembly of section .text:

00000000000100b0 <main>:
   100b0:	1141                	addi	sp,sp,-16
   100b2:	e406                	sd	ra,8(sp)
   100b4:	6cf100ef          	jal	ra,20f82 <test_ntt_reorder_asm>
   100b8:	60a2                	ld	ra,8(sp)
   100ba:	4501                	li	a0,0
   100bc:	0141                	addi	sp,sp,16
   100be:	8082                	ret

00000000000100c0 <register_fini>:
   100c0:	00000793          	li	a5,0
   100c4:	c799                	beqz	a5,100d2 <register_fini+0x12>
   100c6:	00024537          	lui	a0,0x24
   100ca:	a4050513          	addi	a0,a0,-1472 # 23a40 <__libc_fini_array>
   100ce:	3051a06f          	j	2abd2 <atexit>
   100d2:	8082                	ret

00000000000100d4 <_start>:
   100d4:	00021197          	auipc	gp,0x21
   100d8:	54418193          	addi	gp,gp,1348 # 31618 <__global_pointer$>
   100dc:	72818513          	addi	a0,gp,1832 # 31d40 <_PathLocale>
   100e0:	00022617          	auipc	a2,0x22
   100e4:	d3860613          	addi	a2,a2,-712 # 31e18 <__BSS_END__>
   100e8:	8e09                	sub	a2,a2,a0
   100ea:	4581                	li	a1,0
   100ec:	2a4110ef          	jal	ra,21390 <memset>
   100f0:	0001b517          	auipc	a0,0x1b
   100f4:	ae250513          	addi	a0,a0,-1310 # 2abd2 <atexit>
   100f8:	c519                	beqz	a0,10106 <_start+0x32>
   100fa:	00014517          	auipc	a0,0x14
   100fe:	94650513          	addi	a0,a0,-1722 # 23a40 <__libc_fini_array>
   10102:	2d11a0ef          	jal	ra,2abd2 <atexit>
   10106:	158110ef          	jal	ra,2125e <__libc_init_array>
   1010a:	4502                	lw	a0,0(sp)
   1010c:	002c                	addi	a1,sp,8
   1010e:	4601                	li	a2,0
   10110:	fa1ff0ef          	jal	ra,100b0 <main>
   10114:	12c1106f          	j	21240 <exit>

0000000000010118 <__do_global_dtors_aux>:
   10118:	7a01c703          	lbu	a4,1952(gp) # 31db8 <completed.1>
   1011c:	e71d                	bnez	a4,1014a <__do_global_dtors_aux+0x32>
   1011e:	1141                	addi	sp,sp,-16
   10120:	e022                	sd	s0,0(sp)
   10122:	843e                	mv	s0,a5
   10124:	e406                	sd	ra,8(sp)
   10126:	00000793          	li	a5,0
   1012a:	cb89                	beqz	a5,1013c <__do_global_dtors_aux+0x24>
   1012c:	00031537          	lui	a0,0x31
   10130:	92850513          	addi	a0,a0,-1752 # 30928 <__FRAME_END__>
   10134:	00000097          	auipc	ra,0x0
   10138:	000000e7          	jalr	zero # 0 <main-0x100b0>
   1013c:	4785                	li	a5,1
   1013e:	60a2                	ld	ra,8(sp)
   10140:	7af18023          	sb	a5,1952(gp) # 31db8 <completed.1>
   10144:	6402                	ld	s0,0(sp)
   10146:	0141                	addi	sp,sp,16
   10148:	8082                	ret
   1014a:	8082                	ret

000000000001014c <frame_dummy>:
   1014c:	00000793          	li	a5,0
   10150:	cb99                	beqz	a5,10166 <frame_dummy+0x1a>
   10152:	00031537          	lui	a0,0x31
   10156:	7a818593          	addi	a1,gp,1960 # 31dc0 <object.0>
   1015a:	92850513          	addi	a0,a0,-1752 # 30928 <__FRAME_END__>
   1015e:	00000317          	auipc	t1,0x0
   10162:	00000067          	jr	zero # 0 <main-0x100b0>
   10166:	8082                	ret

0000000000010168 <pqcrystals_kyber512_ref_cbd_eta1>:
   10168:	00249337          	lui	t1,0x249
   1016c:	0c058e13          	addi	t3,a1,192
   10170:	24930313          	addi	t1,t1,585 # 249249 <__BSS_END__+0x217431>
   10174:	0015c703          	lbu	a4,1(a1)
   10178:	0025c783          	lbu	a5,2(a1)
   1017c:	0005c683          	lbu	a3,0(a1)
   10180:	0087171b          	slliw	a4,a4,0x8
   10184:	0107979b          	slliw	a5,a5,0x10
   10188:	8f5d                	or	a4,a4,a5
   1018a:	8f55                	or	a4,a4,a3
   1018c:	2701                	sext.w	a4,a4
   1018e:	0017579b          	srliw	a5,a4,0x1
   10192:	0027569b          	srliw	a3,a4,0x2
   10196:	0066f6b3          	and	a3,a3,t1
   1019a:	0067f7b3          	and	a5,a5,t1
   1019e:	00677733          	and	a4,a4,t1
   101a2:	9fb5                	addw	a5,a5,a3
   101a4:	9fb9                	addw	a5,a5,a4
   101a6:	0037df1b          	srliw	t5,a5,0x3
   101aa:	0067d61b          	srliw	a2,a5,0x6
   101ae:	0097de9b          	srliw	t4,a5,0x9
   101b2:	00c7d69b          	srliw	a3,a5,0xc
   101b6:	00f7d89b          	srliw	a7,a5,0xf
   101ba:	0127d71b          	srliw	a4,a5,0x12
   101be:	0077f813          	andi	a6,a5,7
   101c2:	007f7f13          	andi	t5,t5,7
   101c6:	8a1d                	andi	a2,a2,7
   101c8:	007efe93          	andi	t4,t4,7
   101cc:	8a9d                	andi	a3,a3,7
   101ce:	0078f893          	andi	a7,a7,7
   101d2:	8b1d                	andi	a4,a4,7
   101d4:	0157d79b          	srliw	a5,a5,0x15
   101d8:	41e8083b          	subw	a6,a6,t5
   101dc:	41d6063b          	subw	a2,a2,t4
   101e0:	411686bb          	subw	a3,a3,a7
   101e4:	40f707bb          	subw	a5,a4,a5
   101e8:	01051023          	sh	a6,0(a0)
   101ec:	00c51123          	sh	a2,2(a0)
   101f0:	00d51223          	sh	a3,4(a0)
   101f4:	00f51323          	sh	a5,6(a0)
   101f8:	058d                	addi	a1,a1,3
   101fa:	0521                	addi	a0,a0,8
   101fc:	f6be1ce3          	bne	t3,a1,10174 <pqcrystals_kyber512_ref_cbd_eta1+0xc>
   10200:	8082                	ret

0000000000010202 <pqcrystals_kyber512_ref_cbd_eta2>:
   10202:	7179                	addi	sp,sp,-48
   10204:	55555337          	lui	t1,0x55555
   10208:	f422                	sd	s0,40(sp)
   1020a:	f026                	sd	s1,32(sp)
   1020c:	ec4a                	sd	s2,24(sp)
   1020e:	e84e                	sd	s3,16(sp)
   10210:	e452                	sd	s4,8(sp)
   10212:	20050e13          	addi	t3,a0,512
   10216:	55530313          	addi	t1,t1,1365 # 55555555 <__BSS_END__+0x5552373d>
   1021a:	0015c683          	lbu	a3,1(a1)
   1021e:	0005c603          	lbu	a2,0(a1)
   10222:	0025c703          	lbu	a4,2(a1)
   10226:	0035c783          	lbu	a5,3(a1)
   1022a:	06a2                	slli	a3,a3,0x8
   1022c:	8ed1                	or	a3,a3,a2
   1022e:	0742                	slli	a4,a4,0x10
   10230:	8f55                	or	a4,a4,a3
   10232:	07e2                	slli	a5,a5,0x18
   10234:	8fd9                	or	a5,a5,a4
   10236:	2781                	sext.w	a5,a5
   10238:	0017d71b          	srliw	a4,a5,0x1
   1023c:	00677733          	and	a4,a4,t1
   10240:	0067f7b3          	and	a5,a5,t1
   10244:	9fb9                	addw	a5,a5,a4
   10246:	0027da1b          	srliw	s4,a5,0x2
   1024a:	0047df1b          	srliw	t5,a5,0x4
   1024e:	0067d99b          	srliw	s3,a5,0x6
   10252:	0087de9b          	srliw	t4,a5,0x8
   10256:	00a7d91b          	srliw	s2,a5,0xa
   1025a:	00c7d89b          	srliw	a7,a5,0xc
   1025e:	00e7d49b          	srliw	s1,a5,0xe
   10262:	0107d81b          	srliw	a6,a5,0x10
   10266:	0127d41b          	srliw	s0,a5,0x12
   1026a:	0147d61b          	srliw	a2,a5,0x14
   1026e:	0167d39b          	srliw	t2,a5,0x16
   10272:	0187d69b          	srliw	a3,a5,0x18
   10276:	01a7d29b          	srliw	t0,a5,0x1a
   1027a:	01c7d71b          	srliw	a4,a5,0x1c
   1027e:	0037ff93          	andi	t6,a5,3
   10282:	003a7a13          	andi	s4,s4,3
   10286:	003f7f13          	andi	t5,t5,3
   1028a:	0039f993          	andi	s3,s3,3
   1028e:	003efe93          	andi	t4,t4,3
   10292:	00397913          	andi	s2,s2,3
   10296:	0038f893          	andi	a7,a7,3
   1029a:	888d                	andi	s1,s1,3
   1029c:	00387813          	andi	a6,a6,3
   102a0:	880d                	andi	s0,s0,3
   102a2:	8a0d                	andi	a2,a2,3
   102a4:	0033f393          	andi	t2,t2,3
   102a8:	8a8d                	andi	a3,a3,3
   102aa:	0032f293          	andi	t0,t0,3
   102ae:	8b0d                	andi	a4,a4,3
   102b0:	01e7d79b          	srliw	a5,a5,0x1e
   102b4:	414f8fbb          	subw	t6,t6,s4
   102b8:	413f0f3b          	subw	t5,t5,s3
   102bc:	412e8ebb          	subw	t4,t4,s2
   102c0:	409888bb          	subw	a7,a7,s1
   102c4:	4088083b          	subw	a6,a6,s0
   102c8:	4076063b          	subw	a2,a2,t2
   102cc:	405686bb          	subw	a3,a3,t0
   102d0:	40f707bb          	subw	a5,a4,a5
   102d4:	01f51023          	sh	t6,0(a0)
   102d8:	01e51123          	sh	t5,2(a0)
   102dc:	01d51223          	sh	t4,4(a0)
   102e0:	01151323          	sh	a7,6(a0)
   102e4:	01051423          	sh	a6,8(a0)
   102e8:	00c51523          	sh	a2,10(a0)
   102ec:	00d51623          	sh	a3,12(a0)
   102f0:	00f51723          	sh	a5,14(a0)
   102f4:	0541                	addi	a0,a0,16
   102f6:	0591                	addi	a1,a1,4
   102f8:	f3c511e3          	bne	a0,t3,1021a <pqcrystals_kyber512_ref_cbd_eta2+0x18>
   102fc:	7422                	ld	s0,40(sp)
   102fe:	7482                	ld	s1,32(sp)
   10300:	6962                	ld	s2,24(sp)
   10302:	69c2                	ld	s3,16(sp)
   10304:	6a22                	ld	s4,8(sp)
   10306:	6145                	addi	sp,sp,48
   10308:	8082                	ret

000000000001030a <KeccakF1600_StatePermute>:
   1030a:	6118                	ld	a4,0(a0)
   1030c:	714d                	addi	sp,sp,-336
   1030e:	05053283          	ld	t0,80(a0)
   10312:	fd3a                	sd	a4,184(sp)
   10314:	6918                	ld	a4,16(a0)
   10316:	06053383          	ld	t2,96(a0)
   1031a:	e6a2                	sd	s0,328(sp)
   1031c:	f53a                	sd	a4,168(sp)
   1031e:	7118                	ld	a4,32(a0)
   10320:	6d00                	ld	s0,24(a0)
   10322:	fe4a                	sd	s2,312(sp)
   10324:	e43a                	sd	a4,8(sp)
   10326:	7518                	ld	a4,40(a0)
   10328:	fa4e                	sd	s3,304(sp)
   1032a:	f652                	sd	s4,296(sp)
   1032c:	e13a                	sd	a4,128(sp)
   1032e:	6138                	ld	a4,64(a0)
   10330:	03853983          	ld	s3,56(a0)
   10334:	f256                	sd	s5,288(sp)
   10336:	e53a                	sd	a4,136(sp)
   10338:	6d38                	ld	a4,88(a0)
   1033a:	ee5a                	sd	s6,280(sp)
   1033c:	ea5e                	sd	s7,272(sp)
   1033e:	e662                	sd	s8,264(sp)
   10340:	e266                	sd	s9,256(sp)
   10342:	04853c03          	ld	s8,72(a0)
   10346:	03053c83          	ld	s9,48(a0)
   1034a:	f9ee                	sd	s11,240(sp)
   1034c:	f5aa                	sd	a0,232(sp)
   1034e:	00853d83          	ld	s11,8(a0)
   10352:	e93a                	sd	a4,144(sp)
   10354:	e2a6                	sd	s1,320(sp)
   10356:	fdea                	sd	s10,248(sp)
   10358:	06853d03          	ld	s10,104(a0)
   1035c:	7938                	ld	a4,112(a0)
   1035e:	0002e7b7          	lui	a5,0x2e
   10362:	a2078793          	addi	a5,a5,-1504 # 2da20 <KeccakF_RoundConstants>
   10366:	ed3a                	sd	a4,152(sp)
   10368:	7558                	ld	a4,168(a0)
   1036a:	07853b83          	ld	s7,120(a0)
   1036e:	08053f03          	ld	t5,128(a0)
   10372:	e0ba                	sd	a4,64(sp)
   10374:	7d58                	ld	a4,184(a0)
   10376:	08853b03          	ld	s6,136(a0)
   1037a:	09053a03          	ld	s4,144(a0)
   1037e:	e4ba                	sd	a4,72(sp)
   10380:	01078713          	addi	a4,a5,16
   10384:	0c078793          	addi	a5,a5,192
   10388:	f1be                	sd	a5,224(sp)
   1038a:	67a1                	lui	a5,0x8
   1038c:	08278793          	addi	a5,a5,130 # 8082 <main-0x802e>
   10390:	e9be                	sd	a5,208(sp)
   10392:	4785                	li	a5,1
   10394:	09853e03          	ld	t3,152(a0)
   10398:	0a053883          	ld	a7,160(a0)
   1039c:	0b053903          	ld	s2,176(a0)
   103a0:	0c053a83          	ld	s5,192(a0)
   103a4:	636a                	ld	t1,152(sp)
   103a6:	650a                	ld	a0,128(sp)
   103a8:	edba                	sd	a4,216(sp)
   103aa:	f13e                	sd	a5,160(sp)
   103ac:	f94e                	sd	s3,176(sp)
   103ae:	a811                	j	103c2 <KeccakF1600_StatePermute+0xb8>
   103b0:	6398                	ld	a4,0(a5)
   103b2:	07c1                	addi	a5,a5,16
   103b4:	8526                	mv	a0,s1
   103b6:	f13a                	sd	a4,160(sp)
   103b8:	ff87b703          	ld	a4,-8(a5)
   103bc:	8332                	mv	t1,a2
   103be:	edbe                	sd	a5,216(sp)
   103c0:	e9ba                	sd	a4,208(sp)
   103c2:	66a2                	ld	a3,8(sp)
   103c4:	77aa                	ld	a5,168(sp)
   103c6:	774a                	ld	a4,176(sp)
   103c8:	766a                	ld	a2,184(sp)
   103ca:	0186c5b3          	xor	a1,a3,s8
   103ce:	682a                	ld	a6,136(sp)
   103d0:	6eca                	ld	t4,144(sp)
   103d2:	0065c5b3          	xor	a1,a1,t1
   103d6:	01c5c5b3          	xor	a1,a1,t3
   103da:	8f3d                	xor	a4,a4,a5
   103dc:	0155c333          	xor	t1,a1,s5
   103e0:	00a647b3          	xor	a5,a2,a0
   103e4:	6586                	ld	a1,64(sp)
   103e6:	019dc6b3          	xor	a3,s11,s9
   103ea:	00774733          	xor	a4,a4,t2
   103ee:	69a6                	ld	s3,72(sp)
   103f0:	01044633          	xor	a2,s0,a6
   103f4:	01674733          	xor	a4,a4,s6
   103f8:	0057c7b3          	xor	a5,a5,t0
   103fc:	01d6c6b3          	xor	a3,a3,t4
   10400:	0177c7b3          	xor	a5,a5,s7
   10404:	01274eb3          	xor	t4,a4,s2
   10408:	01e6c6b3          	xor	a3,a3,t5
   1040c:	01a64633          	xor	a2,a2,s10
   10410:	0117cfb3          	xor	t6,a5,a7
   10414:	00b6c833          	xor	a6,a3,a1
   10418:	01464633          	xor	a2,a2,s4
   1041c:	001e9693          	slli	a3,t4,0x1
   10420:	03fed793          	srli	a5,t4,0x3f
   10424:	01364533          	xor	a0,a2,s3
   10428:	03f35713          	srli	a4,t1,0x3f
   1042c:	00131613          	slli	a2,t1,0x1
   10430:	8fd5                	or	a5,a5,a3
   10432:	01f7c7b3          	xor	a5,a5,t6
   10436:	03ffd493          	srli	s1,t6,0x3f
   1043a:	03f85593          	srli	a1,a6,0x3f
   1043e:	8f51                	or	a4,a4,a2
   10440:	001f9613          	slli	a2,t6,0x1
   10444:	00181f93          	slli	t6,a6,0x1
   10448:	00151993          	slli	s3,a0,0x1
   1044c:	03f55693          	srli	a3,a0,0x3f
   10450:	00bfe5b3          	or	a1,t6,a1
   10454:	01d74733          	xor	a4,a4,t4
   10458:	0065c5b3          	xor	a1,a1,t1
   1045c:	0197ccb3          	xor	s9,a5,s9
   10460:	00d9e6b3          	or	a3,s3,a3
   10464:	8e45                	or	a2,a2,s1
   10466:	0106c6b3          	xor	a3,a3,a6
   1046a:	8e29                	xor	a2,a2,a0
   1046c:	01474a33          	xor	s4,a4,s4
   10470:	01e7cf33          	xor	t5,a5,t5
   10474:	0055c333          	xor	t1,a1,t0
   10478:	014cd513          	srli	a0,s9,0x14
   1047c:	02cc9293          	slli	t0,s9,0x2c
   10480:	0076ceb3          	xor	t4,a3,t2
   10484:	8c39                	xor	s0,s0,a4
   10486:	0126c933          	xor	s2,a3,s2
   1048a:	00a2e4b3          	or	s1,t0,a0
   1048e:	01b7cdb3          	xor	s11,a5,s11
   10492:	015a1813          	slli	a6,s4,0x15
   10496:	02ba5393          	srli	t2,s4,0x2b
   1049a:	013f5f93          	srli	t6,t5,0x13
   1049e:	02df1a13          	slli	s4,t5,0x2d
   104a2:	7f4a                	ld	t5,176(sp)
   104a4:	e8a6                	sd	s1,80(sp)
   104a6:	01c41293          	slli	t0,s0,0x1c
   104aa:	0166c4b3          	xor	s1,a3,s6
   104ae:	00395993          	srli	s3,s2,0x3
   104b2:	02445b13          	srli	s6,s0,0x24
   104b6:	03d91c93          	slli	s9,s2,0x3d
   104ba:	00331413          	slli	s0,t1,0x3
   104be:	001d9913          	slli	s2,s11,0x1
   104c2:	03d35313          	srli	t1,t1,0x3d
   104c6:	03fddd93          	srli	s11,s11,0x3f
   104ca:	012dedb3          	or	s11,s11,s2
   104ce:	00836333          	or	t1,t1,s0
   104d2:	6922                	ld	s2,8(sp)
   104d4:	6446                	ld	s0,80(sp)
   104d6:	01564ab3          	xor	s5,a2,s5
   104da:	01864c33          	xor	s8,a2,s8
   104de:	01c64e33          	xor	t3,a2,t3
   104e2:	0103e533          	or	a0,t2,a6
   104e6:	01fa6833          	or	a6,s4,t6
   104ea:	014c1393          	slli	t2,s8,0x14
   104ee:	01e6cfb3          	xor	t6,a3,t5
   104f2:	02cc5c13          	srli	s8,s8,0x2c
   104f6:	00ea9f13          	slli	t5,s5,0xe
   104fa:	032ada93          	srli	s5,s5,0x32
   104fe:	e82a                	sd	a0,16(sp)
   10500:	008e1a13          	slli	s4,t3,0x8
   10504:	01a74533          	xor	a0,a4,s10
   10508:	007c63b3          	or	t2,s8,t2
   1050c:	038e5d13          	srli	s10,t3,0x38
   10510:	01eaee33          	or	t3,s5,t5
   10514:	005b6f33          	or	t5,s6,t0
   10518:	f07a                	sd	t5,32(sp)
   1051a:	013ce2b3          	or	t0,s9,s3
   1051e:	f41e                	sd	t2,40(sp)
   10520:	01264cb3          	xor	s9,a2,s2
   10524:	00f49393          	slli	t2,s1,0xf
   10528:	690a                	ld	s2,128(sp)
   1052a:	fff44f13          	not	t5,s0
   1052e:	0314d413          	srli	s0,s1,0x31
   10532:	74ea                	ld	s1,184(sp)
   10534:	0125cc33          	xor	s8,a1,s2
   10538:	f842                	sd	a6,48(sp)
   1053a:	0175cbb3          	xor	s7,a1,s7
   1053e:	0115c833          	xor	a6,a1,a7
   10542:	8da5                	xor	a1,a1,s1
   10544:	007464b3          	or	s1,s0,t2
   10548:	742a                	ld	s0,168(sp)
   1054a:	69a6                	ld	s3,72(sp)
   1054c:	015ed893          	srli	a7,t4,0x15
   10550:	8ea1                	xor	a3,a3,s0
   10552:	642a                	ld	s0,136(sp)
   10554:	1eae                	slli	t4,t4,0x2b
   10556:	011eeeb3          	or	t4,t4,a7
   1055a:	68c2                	ld	a7,16(sp)
   1055c:	01374b33          	xor	s6,a4,s3
   10560:	8f21                	xor	a4,a4,s0
   10562:	646a                	ld	s0,152(sp)
   10564:	ec72                	sd	t3,24(sp)
   10566:	fff8ca93          	not	s5,a7
   1056a:	03afd993          	srli	s3,t6,0x3a
   1056e:	006f9893          	slli	a7,t6,0x6
   10572:	01951f93          	slli	t6,a0,0x19
   10576:	911d                	srli	a0,a0,0x27
   10578:	01f56533          	or	a0,a0,t6
   1057c:	694a                	ld	s2,144(sp)
   1057e:	6fe2                	ld	t6,24(sp)
   10580:	8e21                	xor	a2,a2,s0
   10582:	fc16                	sd	t0,56(sp)
   10584:	6406                	ld	s0,64(sp)
   10586:	72c2                	ld	t0,48(sp)
   10588:	014d6d33          	or	s10,s10,s4
   1058c:	0127ce33          	xor	t3,a5,s2
   10590:	fff2ca13          	not	s4,t0
   10594:	8fa1                	xor	a5,a5,s0
   10596:	01281293          	slli	t0,a6,0x12
   1059a:	fffec413          	not	s0,t4
   1059e:	e4a6                	sd	s1,72(sp)
   105a0:	02e85813          	srli	a6,a6,0x2e
   105a4:	ffffc493          	not	s1,t6
   105a8:	00586833          	or	a6,a6,t0
   105ac:	f8a2                	sd	s0,112(sp)
   105ae:	fca6                	sd	s1,120(sp)
   105b0:	73a2                	ld	t2,40(sp)
   105b2:	72e2                	ld	t0,56(sp)
   105b4:	025cd913          	srli	s2,s9,0x25
   105b8:	fff3c493          	not	s1,t2
   105bc:	005a7a33          	and	s4,s4,t0
   105c0:	fff2c393          	not	t2,t0
   105c4:	01bc9293          	slli	t0,s9,0x1b
   105c8:	01cc5c93          	srli	s9,s8,0x1c
   105cc:	1c12                	slli	s8,s8,0x24
   105ce:	ec96                	sd	t0,88(sp)
   105d0:	e0e2                	sd	s8,64(sp)
   105d2:	038b1293          	slli	t0,s6,0x38
   105d6:	008b5c13          	srli	s8,s6,0x8
   105da:	017bdb13          	srli	s6,s7,0x17
   105de:	1ba6                	slli	s7,s7,0x29
   105e0:	e45e                	sd	s7,8(sp)
   105e2:	6be6                	ld	s7,88(sp)
   105e4:	f0e6                	sd	s9,96(sp)
   105e6:	01fafab3          	and	s5,s5,t6
   105ea:	01796bb3          	or	s7,s2,s7
   105ee:	f4de                	sd	s7,104(sp)
   105f0:	7906                	ld	s2,96(sp)
   105f2:	6b86                	ld	s7,64(sp)
   105f4:	01df7f33          	and	t5,t5,t4
   105f8:	01daceb3          	xor	t4,s5,t4
   105fc:	012bebb3          	or	s7,s7,s2
   10600:	6922                	ld	s2,8(sp)
   10602:	0182e2b3          	or	t0,t0,s8
   10606:	ecf6                	sd	t4,88(sp)
   10608:	01696c33          	or	s8,s2,s6
   1060c:	6ec2                	ld	t4,16(sp)
   1060e:	7b46                	ld	s6,112(sp)
   10610:	0119e9b3          	or	s3,s3,a7
   10614:	7882                	ld	a7,32(sp)
   10616:	01db7933          	and	s2,s6,t4
   1061a:	7b66                	ld	s6,120(sp)
   1061c:	006a4a33          	xor	s4,s4,t1
   10620:	fff34413          	not	s0,t1
   10624:	fff8c893          	not	a7,a7
   10628:	0064f333          	and	t1,s1,t1
   1062c:	64a6                	ld	s1,72(sp)
   1062e:	e146                	sd	a7,128(sp)
   10630:	00ae1c93          	slli	s9,t3,0xa
   10634:	00bb7b33          	and	s6,s6,a1
   10638:	036e5e13          	srli	t3,t3,0x36
   1063c:	019e6e33          	or	t3,t3,s9
   10640:	f8da                	sd	s6,112(sp)
   10642:	6c8a                	ld	s9,128(sp)
   10644:	7b22                	ld	s6,40(sp)
   10646:	fff4ce93          	not	t4,s1
   1064a:	0026d493          	srli	s1,a3,0x2
   1064e:	16fa                	slli	a3,a3,0x3e
   10650:	8ec5                	or	a3,a3,s1
   10652:	748a                	ld	s1,160(sp)
   10654:	016cfcb3          	and	s9,s9,s6
   10658:	00bf4f33          	xor	t5,t5,a1
   1065c:	fce6                	sd	s9,120(sp)
   1065e:	00279c93          	slli	s9,a5,0x2
   10662:	93f9                	srli	a5,a5,0x3e
   10664:	0197e7b3          	or	a5,a5,s9
   10668:	009f4cb3          	xor	s9,t5,s1
   1066c:	64c6                	ld	s1,80(sp)
   1066e:	e462                	sd	s8,8(sp)
   10670:	01965c13          	srli	s8,a2,0x19
   10674:	161e                	slli	a2,a2,0x27
   10676:	01866633          	or	a2,a2,s8
   1067a:	00994c33          	xor	s8,s2,s1
   1067e:	7a82                	ld	s5,32(sp)
   10680:	7946                	ld	s2,112(sp)
   10682:	e0de                	sd	s7,64(sp)
   10684:	f0d2                	sd	s4,96(sp)
   10686:	fd66                	sd	s9,184(sp)
   10688:	7a42                	ld	s4,48(sp)
   1068a:	e8e2                	sd	s8,80(sp)
   1068c:	6f42                	ld	t5,16(sp)
   1068e:	fffdcf93          	not	t6,s11
   10692:	013fffb3          	and	t6,t6,s3
   10696:	01e94cb3          	xor	s9,s2,t5
   1069a:	7f02                	ld	t5,32(sp)
   1069c:	fffd4893          	not	a7,s10
   106a0:	0153f3b3          	and	t2,t2,s5
   106a4:	01e34f33          	xor	t5,t1,t5
   106a8:	7342                	ld	t1,48(sp)
   106aa:	f07a                	sd	t5,32(sp)
   106ac:	7f22                	ld	t5,40(sp)
   106ae:	7966                	ld	s2,120(sp)
   106b0:	0108f8b3          	and	a7,a7,a6
   106b4:	0063c3b3          	xor	t2,t2,t1
   106b8:	01447433          	and	s0,s0,s4
   106bc:	7362                	ld	t1,56(sp)
   106be:	fff84a13          	not	s4,a6
   106c2:	010fc833          	xor	a6,t6,a6
   106c6:	6fe2                	ld	t6,24(sp)
   106c8:	fff9ca93          	not	s5,s3
   106cc:	fff5c593          	not	a1,a1
   106d0:	fff54b13          	not	s6,a0
   106d4:	01e44433          	xor	s0,s0,t5
   106d8:	8de5                	and	a1,a1,s1
   106da:	00a8cf33          	xor	t5,a7,a0
   106de:	00aaf533          	and	a0,s5,a0
   106e2:	7aa6                	ld	s5,104(sp)
   106e4:	00694333          	xor	t1,s2,t1
   106e8:	01f5cfb3          	xor	t6,a1,t6
   106ec:	6906                	ld	s2,64(sp)
   106ee:	65a6                	ld	a1,72(sp)
   106f0:	fc7a                	sd	t5,56(sp)
   106f2:	88c2                	mv	a7,a6
   106f4:	fffacf13          	not	t5,s5
   106f8:	01ab7833          	and	a6,s6,s10
   106fc:	01ba7a33          	and	s4,s4,s11
   10700:	fffe4493          	not	s1,t3
   10704:	01b54533          	xor	a0,a0,s11
   10708:	01aa4a33          	xor	s4,s4,s10
   1070c:	01384db3          	xor	s11,a6,s3
   10710:	012f7d33          	and	s10,t5,s2
   10714:	7982                	ld	s3,32(sp)
   10716:	6f46                	ld	t5,80(sp)
   10718:	8ced                	and	s1,s1,a1
   1071a:	75ea                	ld	a1,184(sp)
   1071c:	00975b93          	srli	s7,a4,0x9
   10720:	175e                	slli	a4,a4,0x37
   10722:	01776733          	or	a4,a4,s7
   10726:	f41e                	sd	t2,40(sp)
   10728:	7b86                	ld	s7,96(sp)
   1072a:	63e6                	ld	t2,88(sp)
   1072c:	e866                	sd	s9,16(sp)
   1072e:	0135ccb3          	xor	s9,a1,s3
   10732:	008f49b3          	xor	s3,t5,s0
   10736:	7f62                	ld	t5,56(sp)
   10738:	0173c3b3          	xor	t2,t2,s7
   1073c:	6c22                	ld	s8,8(sp)
   1073e:	65c2                	ld	a1,16(sp)
   10740:	01e3c3b3          	xor	t2,t2,t5
   10744:	7f22                	ld	t5,40(sp)
   10746:	f81a                	sd	t1,48(sp)
   10748:	005efeb3          	and	t4,t4,t0
   1074c:	fff94313          	not	t1,s2
   10750:	01e5c5b3          	xor	a1,a1,t5
   10754:	fffc4c13          	not	s8,s8
   10758:	7f42                	ld	t5,48(sp)
   1075a:	ec6e                	sd	s11,24(sp)
   1075c:	01ceceb3          	xor	t4,t4,t3
   10760:	fff2cb13          	not	s6,t0
   10764:	01c37e33          	and	t3,t1,t3
   10768:	00fc7c33          	and	s8,s8,a5
   1076c:	fff74313          	not	t1,a4
   10770:	8dd6                	mv	s11,s5
   10772:	005d4d33          	xor	s10,s10,t0
   10776:	00cc4c33          	xor	s8,s8,a2
   1077a:	62e2                	ld	t0,24(sp)
   1077c:	015b7b33          	and	s6,s6,s5
   10780:	fff64a93          	not	s5,a2
   10784:	00c37633          	and	a2,t1,a2
   10788:	6322                	ld	t1,8(sp)
   1078a:	e0c6                	sd	a7,64(sp)
   1078c:	011f4f33          	xor	t5,t5,a7
   10790:	68a6                	ld	a7,72(sp)
   10792:	01be4e33          	xor	t3,t3,s11
   10796:	0124c4b3          	xor	s1,s1,s2
   1079a:	006afab3          	and	s5,s5,t1
   1079e:	fff7cb93          	not	s7,a5
   107a2:	fff6c813          	not	a6,a3
   107a6:	00acccb3          	xor	s9,s9,a0
   107aa:	0059c9b3          	xor	s3,s3,t0
   107ae:	01d3c3b3          	xor	t2,t2,t4
   107b2:	0183c3b3          	xor	t2,t2,s8
   107b6:	011b4b33          	xor	s6,s6,a7
   107ba:	00e87833          	and	a6,a6,a4
   107be:	0145c5b3          	xor	a1,a1,s4
   107c2:	00eac733          	xor	a4,s5,a4
   107c6:	00dbfbb3          	and	s7,s7,a3
   107ca:	01ff4f33          	xor	t5,t5,t6
   107ce:	8eb1                	xor	a3,a3,a2
   107d0:	01ccccb3          	xor	s9,s9,t3
   107d4:	0099c9b3          	xor	s3,s3,s1
   107d8:	00e9c9b3          	xor	s3,s3,a4
   107dc:	00dcccb3          	xor	s9,s9,a3
   107e0:	006bcbb3          	xor	s7,s7,t1
   107e4:	00f847b3          	xor	a5,a6,a5
   107e8:	0165c633          	xor	a2,a1,s6
   107ec:	00139313          	slli	t1,t2,0x1
   107f0:	01af4f33          	xor	t5,t5,s10
   107f4:	03f3d813          	srli	a6,t2,0x3f
   107f8:	00ff4f33          	xor	t5,t5,a5
   107fc:	01764633          	xor	a2,a2,s7
   10800:	03f9da93          	srli	s5,s3,0x3f
   10804:	01036833          	or	a6,t1,a6
   10808:	00199593          	slli	a1,s3,0x1
   1080c:	03fcd313          	srli	t1,s9,0x3f
   10810:	001c9913          	slli	s2,s9,0x1
   10814:	03f65893          	srli	a7,a2,0x3f
   10818:	01984cb3          	xor	s9,a6,s9
   1081c:	00696933          	or	s2,s2,t1
   10820:	7862                	ld	a6,56(sp)
   10822:	6342                	ld	t1,16(sp)
   10824:	00161293          	slli	t0,a2,0x1
   10828:	001f1d93          	slli	s11,t5,0x1
   1082c:	0155e5b3          	or	a1,a1,s5
   10830:	03ff5a93          	srli	s5,t5,0x3f
   10834:	0112e2b3          	or	t0,t0,a7
   10838:	015dedb3          	or	s11,s11,s5
   1083c:	0132c2b3          	xor	t0,t0,s3
   10840:	007dcdb3          	xor	s11,s11,t2
   10844:	00c94633          	xor	a2,s2,a2
   10848:	005848b3          	xor	a7,a6,t0
   1084c:	01b34933          	xor	s2,t1,s11
   10850:	7342                	ld	t1,48(sp)
   10852:	63e6                	ld	t2,88(sp)
   10854:	7806                	ld	a6,96(sp)
   10856:	01e5c5b3          	xor	a1,a1,t5
   1085a:	7982                	ld	s3,32(sp)
   1085c:	6f46                	ld	t5,80(sp)
   1085e:	005c4c33          	xor	s8,s8,t0
   10862:	00584833          	xor	a6,a6,t0
   10866:	005eceb3          	xor	t4,t4,t0
   1086a:	0053c2b3          	xor	t0,t2,t0
   1086e:	73a2                	ld	t2,40(sp)
   10870:	00c34ab3          	xor	s5,t1,a2
   10874:	019f4333          	xor	t1,t5,s9
   10878:	00b9cf33          	xor	t5,s3,a1
   1087c:	69e2                	ld	s3,24(sp)
   1087e:	01bb4b33          	xor	s6,s6,s11
   10882:	01ba4a33          	xor	s4,s4,s11
   10886:	01bbcbb3          	xor	s7,s7,s11
   1088a:	01b3cdb3          	xor	s11,t2,s11
   1088e:	6386                	ld	t2,64(sp)
   10890:	00cd4d33          	xor	s10,s10,a2
   10894:	01944433          	xor	s0,s0,s9
   10898:	0194c4b3          	xor	s1,s1,s9
   1089c:	8ead                	xor	a3,a3,a1
   1089e:	0199c9b3          	xor	s3,s3,s9
   108a2:	01974733          	xor	a4,a4,s9
   108a6:	038d5c93          	srli	s9,s10,0x38
   108aa:	8fb1                	xor	a5,a5,a2
   108ac:	00cfcfb3          	xor	t6,t6,a2
   108b0:	f166                	sd	s9,160(sp)
   108b2:	00c3c633          	xor	a2,t2,a2
   108b6:	01269c93          	slli	s9,a3,0x12
   108ba:	01445393          	srli	t2,s0,0x14
   108be:	92b9                	srli	a3,a3,0x2e
   108c0:	1432                	slli	s0,s0,0x2c
   108c2:	00746433          	or	s0,s0,t2
   108c6:	fc36                	sd	a3,56(sp)
   108c8:	0158d393          	srli	t2,a7,0x15
   108cc:	01bf9693          	slli	a3,t6,0x1b
   108d0:	18ae                	slli	a7,a7,0x2b
   108d2:	025fdf93          	srli	t6,t6,0x25
   108d6:	f946                	sd	a7,176(sp)
   108d8:	e0fe                	sd	t6,64(sp)
   108da:	015b1893          	slli	a7,s6,0x15
   108de:	01cf5f93          	srli	t6,t5,0x1c
   108e2:	02bb5b13          	srli	s6,s6,0x2b
   108e6:	1f12                	slli	t5,t5,0x24
   108e8:	e15a                	sd	s6,128(sp)
   108ea:	e4fa                	sd	t5,72(sp)
   108ec:	003c5b13          	srli	s6,s8,0x3
   108f0:	00a99f13          	slli	t5,s3,0xa
   108f4:	1c76                	slli	s8,s8,0x3d
   108f6:	0369d993          	srli	s3,s3,0x36
   108fa:	ed62                	sd	s8,152(sp)
   108fc:	e8ce                	sd	s3,80(sp)
   108fe:	00131c13          	slli	s8,t1,0x1
   10902:	00fe9993          	slli	s3,t4,0xf
   10906:	03f35313          	srli	t1,t1,0x3f
   1090a:	031ede93          	srli	t4,t4,0x31
   1090e:	f01a                	sd	t1,32(sp)
   10910:	ecf6                	sd	t4,88(sp)
   10912:	00681313          	slli	t1,a6,0x6
   10916:	008bde93          	srli	t4,s7,0x8
   1091a:	03a85813          	srli	a6,a6,0x3a
   1091e:	1be2                	slli	s7,s7,0x38
   10920:	f442                	sd	a6,40(sp)
   10922:	f0de                	sd	s7,96(sp)
   10924:	019a1813          	slli	a6,s4,0x19
   10928:	0022db93          	srli	s7,t0,0x2
   1092c:	027a5a13          	srli	s4,s4,0x27
   10930:	12fa                	slli	t0,t0,0x3e
   10932:	f852                	sd	s4,48(sp)
   10934:	f496                	sd	t0,104(sp)
   10936:	008d1a13          	slli	s4,s10,0x8
   1093a:	009dd293          	srli	t0,s11,0x9
   1093e:	037d9d13          	slli	s10,s11,0x37
   10942:	7dea                	ld	s11,184(sp)
   10944:	f522                	sd	s0,168(sp)
   10946:	00e79413          	slli	s0,a5,0xe
   1094a:	93c9                	srli	a5,a5,0x32
   1094c:	e43e                	sd	a5,8(sp)
   1094e:	01c91793          	slli	a5,s2,0x1c
   10952:	02495913          	srli	s2,s2,0x24
   10956:	8d2d                	xor	a0,a0,a1
   10958:	00be4e33          	xor	t3,t3,a1
   1095c:	e84a                	sd	s2,16(sp)
   1095e:	00bdc5b3          	xor	a1,s11,a1
   10962:	014a9913          	slli	s2,s5,0x14
   10966:	7dca                	ld	s11,176(sp)
   10968:	02cada93          	srli	s5,s5,0x2c
   1096c:	e556                	sd	s5,136(sp)
   1096e:	00351a93          	slli	s5,a0,0x3
   10972:	9175                	srli	a0,a0,0x3d
   10974:	e92a                	sd	a0,144(sp)
   10976:	f8ea                	sd	s10,112(sp)
   10978:	0134d513          	srli	a0,s1,0x13
   1097c:	01965d13          	srli	s10,a2,0x19
   10980:	14b6                	slli	s1,s1,0x2d
   10982:	161e                	slli	a2,a2,0x27
   10984:	007de3b3          	or	t2,s11,t2
   10988:	ec26                	sd	s1,24(sp)
   1098a:	fcb2                	sd	a2,120(sp)
   1098c:	6d8a                	ld	s11,128(sp)
   1098e:	017e5613          	srli	a2,t3,0x17
   10992:	1e26                	slli	t3,t3,0x29
   10994:	011de8b3          	or	a7,s11,a7
   10998:	6da2                	ld	s11,8(sp)
   1099a:	84f2                	mv	s1,t3
   1099c:	8e45                	or	a2,a2,s1
   1099e:	008dedb3          	or	s11,s11,s0
   109a2:	e46e                	sd	s11,8(sp)
   109a4:	6dc2                	ld	s11,16(sp)
   109a6:	84b2                	mv	s1,a2
   109a8:	00271e13          	slli	t3,a4,0x2
   109ac:	00fde7b3          	or	a5,s11,a5
   109b0:	e83e                	sd	a5,16(sp)
   109b2:	67e2                	ld	a5,24(sp)
   109b4:	6daa                	ld	s11,136(sp)
   109b6:	9379                	srli	a4,a4,0x3e
   109b8:	8fc9                	or	a5,a5,a0
   109ba:	656a                	ld	a0,152(sp)
   109bc:	ec3e                	sd	a5,24(sp)
   109be:	012de933          	or	s2,s11,s2
   109c2:	01656b33          	or	s6,a0,s6
   109c6:	7502                	ld	a0,32(sp)
   109c8:	6dca                	ld	s11,144(sp)
   109ca:	01c76733          	or	a4,a4,t3
   109ce:	01856533          	or	a0,a0,s8
   109d2:	7c22                	ld	s8,40(sp)
   109d4:	f02a                	sd	a0,32(sp)
   109d6:	fff5c513          	not	a0,a1
   109da:	006c6333          	or	t1,s8,t1
   109de:	7c42                	ld	s8,48(sp)
   109e0:	f41a                	sd	t1,40(sp)
   109e2:	fff94313          	not	t1,s2
   109e6:	010c6833          	or	a6,s8,a6
   109ea:	7c0a                	ld	s8,160(sp)
   109ec:	f842                	sd	a6,48(sp)
   109ee:	015deab3          	or	s5,s11,s5
   109f2:	014c6a33          	or	s4,s8,s4
   109f6:	7c62                	ld	s8,56(sp)
   109f8:	fff3cd93          	not	s11,t2
   109fc:	019c6c33          	or	s8,s8,s9
   10a00:	6c86                	ld	s9,64(sp)
   10a02:	fc62                	sd	s8,56(sp)
   10a04:	00dce6b3          	or	a3,s9,a3
   10a08:	6ca6                	ld	s9,72(sp)
   10a0a:	e0b6                	sd	a3,64(sp)
   10a0c:	fffb4693          	not	a3,s6
   10a10:	01fcefb3          	or	t6,s9,t6
   10a14:	6cc6                	ld	s9,80(sp)
   10a16:	e4fe                	sd	t6,72(sp)
   10a18:	01ececb3          	or	s9,s9,t5
   10a1c:	6f66                	ld	t5,88(sp)
   10a1e:	e8e6                	sd	s9,80(sp)
   10a20:	fffacc93          	not	s9,s5
   10a24:	013f6f33          	or	t5,t5,s3
   10a28:	7986                	ld	s3,96(sp)
   10a2a:	ecfa                	sd	t5,88(sp)
   10a2c:	01d9eeb3          	or	t4,s3,t4
   10a30:	79a6                	ld	s3,104(sp)
   10a32:	f0f6                	sd	t4,96(sp)
   10a34:	fff8ce93          	not	t4,a7
   10a38:	0179ebb3          	or	s7,s3,s7
   10a3c:	79c6                	ld	s3,112(sp)
   10a3e:	f4de                	sd	s7,104(sp)
   10a40:	0059e2b3          	or	t0,s3,t0
   10a44:	f896                	sd	t0,112(sp)
   10a46:	742a                	ld	s0,168(sp)
   10a48:	67a2                	ld	a5,8(sp)
   10a4a:	79e6                	ld	s3,120(sp)
   10a4c:	fff44f93          	not	t6,s0
   10a50:	fff7c413          	not	s0,a5
   10a54:	67e2                	ld	a5,24(sp)
   10a56:	01a9ed33          	or	s10,s3,s10
   10a5a:	fcea                	sd	s10,120(sp)
   10a5c:	e54a                	sd	s2,136(sp)
   10a5e:	fff7c813          	not	a6,a5
   10a62:	7966                	ld	s2,120(sp)
   10a64:	67e6                	ld	a5,88(sp)
   10a66:	007fffb3          	and	t6,t6,t2
   10a6a:	ed5a                	sd	s6,152(sp)
   10a6c:	e1a6                	sd	s1,192(sp)
   10a6e:	fff7cb13          	not	s6,a5
   10a72:	fff94793          	not	a5,s2
   10a76:	fff4c913          	not	s2,s1
   10a7a:	74a6                	ld	s1,104(sp)
   10a7c:	00bfcfb3          	xor	t6,t6,a1
   10a80:	8c6d                	and	s0,s0,a1
   10a82:	75aa                	ld	a1,168(sp)
   10a84:	e146                	sd	a7,128(sp)
   10a86:	e956                	sd	s5,144(sp)
   10a88:	fff4ca93          	not	s5,s1
   10a8c:	6642                	ld	a2,16(sp)
   10a8e:	7e02                	ld	t3,32(sp)
   10a90:	8d6d                	and	a0,a0,a1
   10a92:	e5d6                	sd	s5,200(sp)
   10a94:	65ca                	ld	a1,144(sp)
   10a96:	6a8a                	ld	s5,128(sp)
   10a98:	79c2                	ld	s3,48(sp)
   10a9a:	7f22                	ld	t5,40(sp)
   10a9c:	fff64c13          	not	s8,a2
   10aa0:	015dfdb3          	and	s11,s11,s5
   10aa4:	fffe4613          	not	a2,t3
   10aa8:	6aa2                	ld	s5,8(sp)
   10aaa:	7e06                	ld	t3,96(sp)
   10aac:	00b37333          	and	t1,t1,a1
   10ab0:	65e2                	ld	a1,24(sp)
   10ab2:	fff9cd13          	not	s10,s3
   10ab6:	7be2                	ld	s7,56(sp)
   10ab8:	69c6                	ld	s3,80(sp)
   10aba:	015efeb3          	and	t4,t4,s5
   10abe:	78c6                	ld	a7,112(sp)
   10ac0:	f91e                	sd	t2,176(sp)
   10ac2:	ffff4293          	not	t0,t5
   10ac6:	fd6a                	sd	s10,184(sp)
   10ac8:	6f26                	ld	t5,72(sp)
   10aca:	f152                	sd	s4,160(sp)
   10acc:	fffa4393          	not	t2,s4
   10ad0:	00bcfcb3          	and	s9,s9,a1
   10ad4:	fffe4a13          	not	s4,t3
   10ad8:	6e06                	ld	t3,64(sp)
   10ada:	6aea                	ld	s5,152(sp)
   10adc:	65c2                	ld	a1,16(sp)
   10ade:	fffbcd13          	not	s10,s7
   10ae2:	01587833          	and	a6,a6,s5
   10ae6:	8eed                	and	a3,a3,a1
   10ae8:	7ac2                	ld	s5,48(sp)
   10aea:	65aa                	ld	a1,136(sp)
   10aec:	ffff4b93          	not	s7,t5
   10af0:	0152f2b3          	and	t0,t0,s5
   10af4:	00bc7c33          	and	s8,s8,a1
   10af8:	7aea                	ld	s5,184(sp)
   10afa:	758a                	ld	a1,160(sp)
   10afc:	fff9cf13          	not	t5,s3
   10b00:	fffe4e13          	not	t3,t3
   10b04:	00baf5b3          	and	a1,s5,a1
   10b08:	7ae2                	ld	s5,56(sp)
   10b0a:	fff8c893          	not	a7,a7
   10b0e:	fff74993          	not	s3,a4
   10b12:	0153f3b3          	and	t2,t2,s5
   10b16:	7a82                	ld	s5,32(sp)
   10b18:	0099f9b3          	and	s3,s3,s1
   10b1c:	64ae                	ld	s1,200(sp)
   10b1e:	015d7d33          	and	s10,s10,s5
   10b22:	7aa2                	ld	s5,40(sp)
   10b24:	00e97933          	and	s2,s2,a4
   10b28:	01567633          	and	a2,a2,s5
   10b2c:	6ac6                	ld	s5,80(sp)
   10b2e:	015bfbb3          	and	s7,s7,s5
   10b32:	6ae6                	ld	s5,88(sp)
   10b34:	015f7f33          	and	t5,t5,s5
   10b38:	7a86                	ld	s5,96(sp)
   10b3a:	015b7b33          	and	s6,s6,s5
   10b3e:	6a86                	ld	s5,64(sp)
   10b40:	015a7a33          	and	s4,s4,s5
   10b44:	6aa6                	ld	s5,72(sp)
   10b46:	015e7e33          	and	t3,t3,s5
   10b4a:	7ae6                	ld	s5,120(sp)
   10b4c:	0158f8b3          	and	a7,a7,s5
   10b50:	6a8e                	ld	s5,192(sp)
   10b52:	0157f7b3          	and	a5,a5,s5
   10b56:	7ac6                	ld	s5,112(sp)
   10b58:	0154fab3          	and	s5,s1,s5
   10b5c:	64ce                	ld	s1,208(sp)
   10b5e:	00eacab3          	xor	s5,s5,a4
   10b62:	009fcfb3          	xor	t6,t6,s1
   10b66:	fd7e                	sd	t6,184(sp)
   10b68:	7faa                	ld	t6,168(sp)
   10b6a:	01fdcdb3          	xor	s11,s11,t6
   10b6e:	7fca                	ld	t6,176(sp)
   10b70:	01fec4b3          	xor	s1,t4,t6
   10b74:	6e8a                	ld	t4,128(sp)
   10b76:	f526                	sd	s1,168(sp)
   10b78:	01d44433          	xor	s0,s0,t4
   10b7c:	6ea2                	ld	t4,8(sp)
   10b7e:	01d544b3          	xor	s1,a0,t4
   10b82:	6542                	ld	a0,16(sp)
   10b84:	e426                	sd	s1,8(sp)
   10b86:	00a344b3          	xor	s1,t1,a0
   10b8a:	652a                	ld	a0,136(sp)
   10b8c:	e126                	sd	s1,128(sp)
   10b8e:	00acccb3          	xor	s9,s9,a0
   10b92:	654a                	ld	a0,144(sp)
   10b94:	00a84533          	xor	a0,a6,a0
   10b98:	f92a                	sd	a0,176(sp)
   10b9a:	6562                	ld	a0,24(sp)
   10b9c:	8d35                	xor	a0,a0,a3
   10b9e:	e52a                	sd	a0,136(sp)
   10ba0:	66ea                	ld	a3,152(sp)
   10ba2:	770e                	ld	a4,224(sp)
   10ba4:	00dc4c33          	xor	s8,s8,a3
   10ba8:	7682                	ld	a3,32(sp)
   10baa:	00d2c2b3          	xor	t0,t0,a3
   10bae:	76a2                	ld	a3,40(sp)
   10bb0:	00d5c533          	xor	a0,a1,a3
   10bb4:	76c2                	ld	a3,48(sp)
   10bb6:	758a                	ld	a1,160(sp)
   10bb8:	e92a                	sd	a0,144(sp)
   10bba:	00d3c3b3          	xor	t2,t2,a3
   10bbe:	76e2                	ld	a3,56(sp)
   10bc0:	00bd4d33          	xor	s10,s10,a1
   10bc4:	8e35                	xor	a2,a2,a3
   10bc6:	6686                	ld	a3,64(sp)
   10bc8:	ed32                	sd	a2,152(sp)
   10bca:	00dbcbb3          	xor	s7,s7,a3
   10bce:	66a6                	ld	a3,72(sp)
   10bd0:	00df4f33          	xor	t5,t5,a3
   10bd4:	66c6                	ld	a3,80(sp)
   10bd6:	00db4b33          	xor	s6,s6,a3
   10bda:	66e6                	ld	a3,88(sp)
   10bdc:	00da4a33          	xor	s4,s4,a3
   10be0:	7686                	ld	a3,96(sp)
   10be2:	00de4e33          	xor	t3,t3,a3
   10be6:	76a6                	ld	a3,104(sp)
   10be8:	00d8c8b3          	xor	a7,a7,a3
   10bec:	76c6                	ld	a3,112(sp)
   10bee:	8ebd                	xor	a3,a3,a5
   10bf0:	77e6                	ld	a5,120(sp)
   10bf2:	e0b6                	sd	a3,64(sp)
   10bf4:	00f94933          	xor	s2,s2,a5
   10bf8:	678e                	ld	a5,192(sp)
   10bfa:	00f9c7b3          	xor	a5,s3,a5
   10bfe:	e4be                	sd	a5,72(sp)
   10c00:	67ee                	ld	a5,216(sp)
   10c02:	faf71763          	bne	a4,a5,103b0 <KeccakF1600_StatePermute+0xa6>
   10c06:	77ae                	ld	a5,232(sp)
   10c08:	776a                	ld	a4,184(sp)
   10c0a:	79ca                	ld	s3,176(sp)
   10c0c:	01b7b423          	sd	s11,8(a5)
   10c10:	e398                	sd	a4,0(a5)
   10c12:	772a                	ld	a4,168(sp)
   10c14:	ef80                	sd	s0,24(a5)
   10c16:	0397b823          	sd	s9,48(a5)
   10c1a:	eb98                	sd	a4,16(a5)
   10c1c:	6722                	ld	a4,8(sp)
   10c1e:	0337bc23          	sd	s3,56(a5)
   10c22:	0587b423          	sd	s8,72(a5)
   10c26:	f398                	sd	a4,32(a5)
   10c28:	670a                	ld	a4,128(sp)
   10c2a:	07a7b423          	sd	s10,104(a5)
   10c2e:	0777bc23          	sd	s7,120(a5)
   10c32:	f798                	sd	a4,40(a5)
   10c34:	672a                	ld	a4,136(sp)
   10c36:	0967b423          	sd	s6,136(a5)
   10c3a:	0947b823          	sd	s4,144(a5)
   10c3e:	e3b8                	sd	a4,64(a5)
   10c40:	674a                	ld	a4,144(sp)
   10c42:	0457b823          	sd	t0,80(a5)
   10c46:	0677b023          	sd	t2,96(a5)
   10c4a:	efb8                	sd	a4,88(a5)
   10c4c:	676a                	ld	a4,152(sp)
   10c4e:	09e7b023          	sd	t5,128(a5)
   10c52:	09c7bc23          	sd	t3,152(a5)
   10c56:	fbb8                	sd	a4,112(a5)
   10c58:	6706                	ld	a4,64(sp)
   10c5a:	0b17b023          	sd	a7,160(a5)
   10c5e:	f7d8                	sd	a4,168(a5)
   10c60:	0b27b823          	sd	s2,176(a5)
   10c64:	6726                	ld	a4,72(sp)
   10c66:	6436                	ld	s0,328(sp)
   10c68:	0d57b023          	sd	s5,192(a5)
   10c6c:	ffd8                	sd	a4,184(a5)
   10c6e:	6496                	ld	s1,320(sp)
   10c70:	7972                	ld	s2,312(sp)
   10c72:	79d2                	ld	s3,304(sp)
   10c74:	7a32                	ld	s4,296(sp)
   10c76:	7a92                	ld	s5,288(sp)
   10c78:	6b72                	ld	s6,280(sp)
   10c7a:	6bd2                	ld	s7,272(sp)
   10c7c:	6c32                	ld	s8,264(sp)
   10c7e:	6c92                	ld	s9,256(sp)
   10c80:	7d6e                	ld	s10,248(sp)
   10c82:	7dce                	ld	s11,240(sp)
   10c84:	6171                	addi	sp,sp,336
   10c86:	8082                	ret

0000000000010c88 <keccak_absorb.constprop.1>:
   10c88:	712d                	addi	sp,sp,-288
   10c8a:	87ae                	mv	a5,a1
   10c8c:	e24a                	sd	s2,256(sp)
   10c8e:	fdce                	sd	s3,248(sp)
   10c90:	892a                	mv	s2,a0
   10c92:	4581                	li	a1,0
   10c94:	89b2                	mv	s3,a2
   10c96:	1008                	addi	a0,sp,32
   10c98:	0c000613          	li	a2,192
   10c9c:	e43e                	sd	a5,8(sp)
   10c9e:	ee06                	sd	ra,280(sp)
   10ca0:	e626                	sd	s1,264(sp)
   10ca2:	ea22                	sd	s0,272(sp)
   10ca4:	84b6                	mv	s1,a3
   10ca6:	f9d2                	sd	s4,240(sp)
   10ca8:	f5d6                	sd	s5,232(sp)
   10caa:	ec02                	sd	zero,24(sp)
   10cac:	6e4100ef          	jal	ra,21390 <memset>
   10cb0:	0c800613          	li	a2,200
   10cb4:	4581                	li	a1,0
   10cb6:	854a                	mv	a0,s2
   10cb8:	6d8100ef          	jal	ra,21390 <memset>
   10cbc:	08700713          	li	a4,135
   10cc0:	67a2                	ld	a5,8(sp)
   10cc2:	09377363          	bgeu	a4,s3,10d48 <keccak_absorb.constprop.1+0xc0>
   10cc6:	08878a93          	addi	s5,a5,136
   10cca:	8a56                	mv	s4,s5
   10ccc:	08700413          	li	s0,135
   10cd0:	88ca                	mv	a7,s2
   10cd2:	0017c703          	lbu	a4,1(a5)
   10cd6:	0027c683          	lbu	a3,2(a5)
   10cda:	0007c303          	lbu	t1,0(a5)
   10cde:	0037c803          	lbu	a6,3(a5)
   10ce2:	0047c503          	lbu	a0,4(a5)
   10ce6:	06c2                	slli	a3,a3,0x10
   10ce8:	0722                	slli	a4,a4,0x8
   10cea:	0057c583          	lbu	a1,5(a5)
   10cee:	8f55                	or	a4,a4,a3
   10cf0:	0067c603          	lbu	a2,6(a5)
   10cf4:	00676733          	or	a4,a4,t1
   10cf8:	0862                	slli	a6,a6,0x18
   10cfa:	0077c683          	lbu	a3,7(a5)
   10cfe:	00e86833          	or	a6,a6,a4
   10d02:	02051713          	slli	a4,a0,0x20
   10d06:	01076733          	or	a4,a4,a6
   10d0a:	15a2                	slli	a1,a1,0x28
   10d0c:	0008b503          	ld	a0,0(a7)
   10d10:	8dd9                	or	a1,a1,a4
   10d12:	03061713          	slli	a4,a2,0x30
   10d16:	00b76633          	or	a2,a4,a1
   10d1a:	03869713          	slli	a4,a3,0x38
   10d1e:	8f51                	or	a4,a4,a2
   10d20:	8f29                	xor	a4,a4,a0
   10d22:	00e8b023          	sd	a4,0(a7)
   10d26:	07a1                	addi	a5,a5,8
   10d28:	08a1                	addi	a7,a7,8
   10d2a:	fafa14e3          	bne	s4,a5,10cd2 <keccak_absorb.constprop.1+0x4a>
   10d2e:	854a                	mv	a0,s2
   10d30:	ddaff0ef          	jal	ra,1030a <KeccakF1600_StatePermute>
   10d34:	f7898993          	addi	s3,s3,-136
   10d38:	87d6                	mv	a5,s5
   10d3a:	088a0a13          	addi	s4,s4,136
   10d3e:	01347563          	bgeu	s0,s3,10d48 <keccak_absorb.constprop.1+0xc0>
   10d42:	088a8a93          	addi	s5,s5,136
   10d46:	b769                	j	10cd0 <keccak_absorb.constprop.1+0x48>
   10d48:	0834                	addi	a3,sp,24
   10d4a:	00098863          	beqz	s3,10d5a <keccak_absorb.constprop.1+0xd2>
   10d4e:	8536                	mv	a0,a3
   10d50:	864e                	mv	a2,s3
   10d52:	85be                	mv	a1,a5
   10d54:	57c100ef          	jal	ra,212d0 <memcpy>
   10d58:	86aa                	mv	a3,a0
   10d5a:	119c                	addi	a5,sp,224
   10d5c:	99be                	add	s3,s3,a5
   10d5e:	f2998c23          	sb	s1,-200(s3)
   10d62:	09f14703          	lbu	a4,159(sp)
   10d66:	87b6                	mv	a5,a3
   10d68:	0a010313          	addi	t1,sp,160
   10d6c:	f8076713          	ori	a4,a4,-128
   10d70:	08e10fa3          	sb	a4,159(sp)
   10d74:	0017c703          	lbu	a4,1(a5)
   10d78:	0027c683          	lbu	a3,2(a5)
   10d7c:	0007c883          	lbu	a7,0(a5)
   10d80:	0037c803          	lbu	a6,3(a5)
   10d84:	0047c503          	lbu	a0,4(a5)
   10d88:	06c2                	slli	a3,a3,0x10
   10d8a:	0722                	slli	a4,a4,0x8
   10d8c:	0057c583          	lbu	a1,5(a5)
   10d90:	8f55                	or	a4,a4,a3
   10d92:	0067c603          	lbu	a2,6(a5)
   10d96:	01176733          	or	a4,a4,a7
   10d9a:	0862                	slli	a6,a6,0x18
   10d9c:	0077c683          	lbu	a3,7(a5)
   10da0:	00e86833          	or	a6,a6,a4
   10da4:	02051713          	slli	a4,a0,0x20
   10da8:	01076733          	or	a4,a4,a6
   10dac:	15a2                	slli	a1,a1,0x28
   10dae:	00093503          	ld	a0,0(s2)
   10db2:	8dd9                	or	a1,a1,a4
   10db4:	03061713          	slli	a4,a2,0x30
   10db8:	00b76633          	or	a2,a4,a1
   10dbc:	03869713          	slli	a4,a3,0x38
   10dc0:	8f51                	or	a4,a4,a2
   10dc2:	8f29                	xor	a4,a4,a0
   10dc4:	00e93023          	sd	a4,0(s2)
   10dc8:	07a1                	addi	a5,a5,8
   10dca:	0921                	addi	s2,s2,8
   10dcc:	faf314e3          	bne	t1,a5,10d74 <keccak_absorb.constprop.1+0xec>
   10dd0:	60f2                	ld	ra,280(sp)
   10dd2:	6452                	ld	s0,272(sp)
   10dd4:	64b2                	ld	s1,264(sp)
   10dd6:	6912                	ld	s2,256(sp)
   10dd8:	79ee                	ld	s3,248(sp)
   10dda:	7a4e                	ld	s4,240(sp)
   10ddc:	7aae                	ld	s5,232(sp)
   10dde:	6115                	addi	sp,sp,288
   10de0:	8082                	ret

0000000000010de2 <keccak_absorb.constprop.2>:
   10de2:	716d                	addi	sp,sp,-272
   10de4:	87ae                	mv	a5,a1
   10de6:	fda6                	sd	s1,248(sp)
   10de8:	f9ca                	sd	s2,240(sp)
   10dea:	84aa                	mv	s1,a0
   10dec:	4581                	li	a1,0
   10dee:	8932                	mv	s2,a2
   10df0:	1008                	addi	a0,sp,32
   10df2:	0c000613          	li	a2,192
   10df6:	e43e                	sd	a5,8(sp)
   10df8:	e606                	sd	ra,264(sp)
   10dfa:	e222                	sd	s0,256(sp)
   10dfc:	f5ce                	sd	s3,232(sp)
   10dfe:	f1d2                	sd	s4,224(sp)
   10e00:	ec02                	sd	zero,24(sp)
   10e02:	58e100ef          	jal	ra,21390 <memset>
   10e06:	0c800613          	li	a2,200
   10e0a:	4581                	li	a1,0
   10e0c:	8526                	mv	a0,s1
   10e0e:	582100ef          	jal	ra,21390 <memset>
   10e12:	0a700713          	li	a4,167
   10e16:	67a2                	ld	a5,8(sp)
   10e18:	09277363          	bgeu	a4,s2,10e9e <keccak_absorb.constprop.2+0xbc>
   10e1c:	0a878a13          	addi	s4,a5,168
   10e20:	89d2                	mv	s3,s4
   10e22:	0a700413          	li	s0,167
   10e26:	88a6                	mv	a7,s1
   10e28:	0017c703          	lbu	a4,1(a5)
   10e2c:	0027c683          	lbu	a3,2(a5)
   10e30:	0007c303          	lbu	t1,0(a5)
   10e34:	0037c803          	lbu	a6,3(a5)
   10e38:	0047c503          	lbu	a0,4(a5)
   10e3c:	06c2                	slli	a3,a3,0x10
   10e3e:	0722                	slli	a4,a4,0x8
   10e40:	0057c583          	lbu	a1,5(a5)
   10e44:	8f55                	or	a4,a4,a3
   10e46:	0067c603          	lbu	a2,6(a5)
   10e4a:	00676733          	or	a4,a4,t1
   10e4e:	0862                	slli	a6,a6,0x18
   10e50:	0077c683          	lbu	a3,7(a5)
   10e54:	00e86833          	or	a6,a6,a4
   10e58:	02051713          	slli	a4,a0,0x20
   10e5c:	01076733          	or	a4,a4,a6
   10e60:	15a2                	slli	a1,a1,0x28
   10e62:	0008b503          	ld	a0,0(a7)
   10e66:	8dd9                	or	a1,a1,a4
   10e68:	03061713          	slli	a4,a2,0x30
   10e6c:	00b76633          	or	a2,a4,a1
   10e70:	03869713          	slli	a4,a3,0x38
   10e74:	8f51                	or	a4,a4,a2
   10e76:	8f29                	xor	a4,a4,a0
   10e78:	00e8b023          	sd	a4,0(a7)
   10e7c:	07a1                	addi	a5,a5,8
   10e7e:	08a1                	addi	a7,a7,8
   10e80:	faf994e3          	bne	s3,a5,10e28 <keccak_absorb.constprop.2+0x46>
   10e84:	8526                	mv	a0,s1
   10e86:	c84ff0ef          	jal	ra,1030a <KeccakF1600_StatePermute>
   10e8a:	f5890913          	addi	s2,s2,-168
   10e8e:	87d2                	mv	a5,s4
   10e90:	0a898993          	addi	s3,s3,168
   10e94:	01247563          	bgeu	s0,s2,10e9e <keccak_absorb.constprop.2+0xbc>
   10e98:	0a8a0a13          	addi	s4,s4,168
   10e9c:	b769                	j	10e26 <keccak_absorb.constprop.2+0x44>
   10e9e:	0834                	addi	a3,sp,24
   10ea0:	00090863          	beqz	s2,10eb0 <keccak_absorb.constprop.2+0xce>
   10ea4:	8536                	mv	a0,a3
   10ea6:	864a                	mv	a2,s2
   10ea8:	85be                	mv	a1,a5
   10eaa:	426100ef          	jal	ra,212d0 <memcpy>
   10eae:	86aa                	mv	a3,a0
   10eb0:	119c                	addi	a5,sp,224
   10eb2:	993e                	add	s2,s2,a5
   10eb4:	47fd                	li	a5,31
   10eb6:	f2f90c23          	sb	a5,-200(s2)
   10eba:	0bf14703          	lbu	a4,191(sp)
   10ebe:	87b6                	mv	a5,a3
   10ec0:	0c010313          	addi	t1,sp,192
   10ec4:	f8076713          	ori	a4,a4,-128
   10ec8:	0ae10fa3          	sb	a4,191(sp)
   10ecc:	0017c703          	lbu	a4,1(a5)
   10ed0:	0027c683          	lbu	a3,2(a5)
   10ed4:	0007c883          	lbu	a7,0(a5)
   10ed8:	0037c803          	lbu	a6,3(a5)
   10edc:	0047c503          	lbu	a0,4(a5)
   10ee0:	06c2                	slli	a3,a3,0x10
   10ee2:	0722                	slli	a4,a4,0x8
   10ee4:	0057c583          	lbu	a1,5(a5)
   10ee8:	8f55                	or	a4,a4,a3
   10eea:	0067c603          	lbu	a2,6(a5)
   10eee:	01176733          	or	a4,a4,a7
   10ef2:	0862                	slli	a6,a6,0x18
   10ef4:	0077c683          	lbu	a3,7(a5)
   10ef8:	00e86833          	or	a6,a6,a4
   10efc:	02051713          	slli	a4,a0,0x20
   10f00:	01076733          	or	a4,a4,a6
   10f04:	15a2                	slli	a1,a1,0x28
   10f06:	6088                	ld	a0,0(s1)
   10f08:	8dd9                	or	a1,a1,a4
   10f0a:	03061713          	slli	a4,a2,0x30
   10f0e:	00b76633          	or	a2,a4,a1
   10f12:	03869713          	slli	a4,a3,0x38
   10f16:	8f51                	or	a4,a4,a2
   10f18:	8f29                	xor	a4,a4,a0
   10f1a:	e098                	sd	a4,0(s1)
   10f1c:	07a1                	addi	a5,a5,8
   10f1e:	04a1                	addi	s1,s1,8
   10f20:	faf316e3          	bne	t1,a5,10ecc <keccak_absorb.constprop.2+0xea>
   10f24:	60b2                	ld	ra,264(sp)
   10f26:	6412                	ld	s0,256(sp)
   10f28:	74ee                	ld	s1,248(sp)
   10f2a:	794e                	ld	s2,240(sp)
   10f2c:	79ae                	ld	s3,232(sp)
   10f2e:	7a0e                	ld	s4,224(sp)
   10f30:	6151                	addi	sp,sp,272
   10f32:	8082                	ret

0000000000010f34 <pqcrystals_fips202_ref_shake128_absorb>:
   10f34:	b57d                	j	10de2 <keccak_absorb.constprop.2>

0000000000010f36 <pqcrystals_fips202_ref_shake128_squeezeblocks>:
   10f36:	c5d9                	beqz	a1,10fc4 <pqcrystals_fips202_ref_shake128_squeezeblocks+0x8e>
   10f38:	7179                	addi	sp,sp,-48
   10f3a:	e44e                	sd	s3,8(sp)
   10f3c:	0a850993          	addi	s3,a0,168
   10f40:	f022                	sd	s0,32(sp)
   10f42:	ec26                	sd	s1,24(sp)
   10f44:	e84a                	sd	s2,16(sp)
   10f46:	e052                	sd	s4,0(sp)
   10f48:	f406                	sd	ra,40(sp)
   10f4a:	892e                	mv	s2,a1
   10f4c:	842a                	mv	s0,a0
   10f4e:	8a32                	mv	s4,a2
   10f50:	84ce                	mv	s1,s3
   10f52:	8552                	mv	a0,s4
   10f54:	bb6ff0ef          	jal	ra,1030a <KeccakF1600_StatePermute>
   10f58:	86d2                	mv	a3,s4
   10f5a:	87a2                	mv	a5,s0
   10f5c:	6298                	ld	a4,0(a3)
   10f5e:	07a1                	addi	a5,a5,8
   10f60:	06a1                	addi	a3,a3,8
   10f62:	00875e93          	srli	t4,a4,0x8
   10f66:	01075e13          	srli	t3,a4,0x10
   10f6a:	01875313          	srli	t1,a4,0x18
   10f6e:	02075893          	srli	a7,a4,0x20
   10f72:	02875813          	srli	a6,a4,0x28
   10f76:	03075593          	srli	a1,a4,0x30
   10f7a:	03875613          	srli	a2,a4,0x38
   10f7e:	ffd78ca3          	sb	t4,-7(a5)
   10f82:	ffc78d23          	sb	t3,-6(a5)
   10f86:	fe678da3          	sb	t1,-5(a5)
   10f8a:	ff178e23          	sb	a7,-4(a5)
   10f8e:	ff078ea3          	sb	a6,-3(a5)
   10f92:	feb78f23          	sb	a1,-2(a5)
   10f96:	fec78fa3          	sb	a2,-1(a5)
   10f9a:	fee78c23          	sb	a4,-8(a5)
   10f9e:	faf49fe3          	bne	s1,a5,10f5c <pqcrystals_fips202_ref_shake128_squeezeblocks+0x26>
   10fa2:	197d                	addi	s2,s2,-1
   10fa4:	844e                	mv	s0,s3
   10fa6:	0a848493          	addi	s1,s1,168
   10faa:	00090563          	beqz	s2,10fb4 <pqcrystals_fips202_ref_shake128_squeezeblocks+0x7e>
   10fae:	0a898993          	addi	s3,s3,168
   10fb2:	b745                	j	10f52 <pqcrystals_fips202_ref_shake128_squeezeblocks+0x1c>
   10fb4:	70a2                	ld	ra,40(sp)
   10fb6:	7402                	ld	s0,32(sp)
   10fb8:	64e2                	ld	s1,24(sp)
   10fba:	6942                	ld	s2,16(sp)
   10fbc:	69a2                	ld	s3,8(sp)
   10fbe:	6a02                	ld	s4,0(sp)
   10fc0:	6145                	addi	sp,sp,48
   10fc2:	8082                	ret
   10fc4:	8082                	ret

0000000000010fc6 <pqcrystals_fips202_ref_shake256_absorb>:
   10fc6:	46fd                	li	a3,31
   10fc8:	b1c1                	j	10c88 <keccak_absorb.constprop.1>

0000000000010fca <pqcrystals_fips202_ref_shake256_squeezeblocks>:
   10fca:	c5d9                	beqz	a1,11058 <pqcrystals_fips202_ref_shake256_squeezeblocks+0x8e>
   10fcc:	7179                	addi	sp,sp,-48
   10fce:	e44e                	sd	s3,8(sp)
   10fd0:	08850993          	addi	s3,a0,136
   10fd4:	f022                	sd	s0,32(sp)
   10fd6:	ec26                	sd	s1,24(sp)
   10fd8:	e84a                	sd	s2,16(sp)
   10fda:	e052                	sd	s4,0(sp)
   10fdc:	f406                	sd	ra,40(sp)
   10fde:	892e                	mv	s2,a1
   10fe0:	842a                	mv	s0,a0
   10fe2:	8a32                	mv	s4,a2
   10fe4:	84ce                	mv	s1,s3
   10fe6:	8552                	mv	a0,s4
   10fe8:	b22ff0ef          	jal	ra,1030a <KeccakF1600_StatePermute>
   10fec:	86d2                	mv	a3,s4
   10fee:	87a2                	mv	a5,s0
   10ff0:	6298                	ld	a4,0(a3)
   10ff2:	07a1                	addi	a5,a5,8
   10ff4:	06a1                	addi	a3,a3,8
   10ff6:	00875e93          	srli	t4,a4,0x8
   10ffa:	01075e13          	srli	t3,a4,0x10
   10ffe:	01875313          	srli	t1,a4,0x18
   11002:	02075893          	srli	a7,a4,0x20
   11006:	02875813          	srli	a6,a4,0x28
   1100a:	03075593          	srli	a1,a4,0x30
   1100e:	03875613          	srli	a2,a4,0x38
   11012:	ffd78ca3          	sb	t4,-7(a5)
   11016:	ffc78d23          	sb	t3,-6(a5)
   1101a:	fe678da3          	sb	t1,-5(a5)
   1101e:	ff178e23          	sb	a7,-4(a5)
   11022:	ff078ea3          	sb	a6,-3(a5)
   11026:	feb78f23          	sb	a1,-2(a5)
   1102a:	fec78fa3          	sb	a2,-1(a5)
   1102e:	fee78c23          	sb	a4,-8(a5)
   11032:	faf49fe3          	bne	s1,a5,10ff0 <pqcrystals_fips202_ref_shake256_squeezeblocks+0x26>
   11036:	197d                	addi	s2,s2,-1
   11038:	844e                	mv	s0,s3
   1103a:	08848493          	addi	s1,s1,136
   1103e:	00090563          	beqz	s2,11048 <pqcrystals_fips202_ref_shake256_squeezeblocks+0x7e>
   11042:	08898993          	addi	s3,s3,136
   11046:	b745                	j	10fe6 <pqcrystals_fips202_ref_shake256_squeezeblocks+0x1c>
   11048:	70a2                	ld	ra,40(sp)
   1104a:	7402                	ld	s0,32(sp)
   1104c:	64e2                	ld	s1,24(sp)
   1104e:	6942                	ld	s2,16(sp)
   11050:	69a2                	ld	s3,8(sp)
   11052:	6a02                	ld	s4,0(sp)
   11054:	6145                	addi	sp,sp,48
   11056:	8082                	ret
   11058:	8082                	ret

000000000001105a <pqcrystals_fips202_ref_shake128>:
   1105a:	7161                	addi	sp,sp,-432
   1105c:	87b2                	mv	a5,a2
   1105e:	fada                	sd	s6,368(sp)
   11060:	0a810b13          	addi	s6,sp,168
   11064:	f322                	sd	s0,416(sp)
   11066:	eb4a                	sd	s2,400(sp)
   11068:	842e                	mv	s0,a1
   1106a:	892a                	mv	s2,a0
   1106c:	85be                	mv	a1,a5
   1106e:	8636                	mv	a2,a3
   11070:	855a                	mv	a0,s6
   11072:	ef26                	sd	s1,408(sp)
   11074:	f706                	sd	ra,424(sp)
   11076:	e74e                	sd	s3,392(sp)
   11078:	e352                	sd	s4,384(sp)
   1107a:	fed6                	sd	s5,376(sp)
   1107c:	d67ff0ef          	jal	ra,10de2 <keccak_absorb.constprop.2>
   11080:	0a800493          	li	s1,168
   11084:	0a700793          	li	a5,167
   11088:	029454b3          	divu	s1,s0,s1
   1108c:	0687f363          	bgeu	a5,s0,110f2 <pqcrystals_fips202_ref_shake128+0x98>
   11090:	8aa6                	mv	s5,s1
   11092:	8a4a                	mv	s4,s2
   11094:	15010993          	addi	s3,sp,336
   11098:	855a                	mv	a0,s6
   1109a:	a70ff0ef          	jal	ra,1030a <KeccakF1600_StatePermute>
   1109e:	86da                	mv	a3,s6
   110a0:	87d2                	mv	a5,s4
   110a2:	6298                	ld	a4,0(a3)
   110a4:	06a1                	addi	a3,a3,8
   110a6:	07a1                	addi	a5,a5,8
   110a8:	00875e13          	srli	t3,a4,0x8
   110ac:	01075313          	srli	t1,a4,0x10
   110b0:	01875893          	srli	a7,a4,0x18
   110b4:	02075813          	srli	a6,a4,0x20
   110b8:	02875513          	srli	a0,a4,0x28
   110bc:	03075593          	srli	a1,a4,0x30
   110c0:	03875613          	srli	a2,a4,0x38
   110c4:	ffc78ca3          	sb	t3,-7(a5)
   110c8:	fe678d23          	sb	t1,-6(a5)
   110cc:	ff178da3          	sb	a7,-5(a5)
   110d0:	ff078e23          	sb	a6,-4(a5)
   110d4:	fea78ea3          	sb	a0,-3(a5)
   110d8:	feb78f23          	sb	a1,-2(a5)
   110dc:	fec78fa3          	sb	a2,-1(a5)
   110e0:	fee78c23          	sb	a4,-8(a5)
   110e4:	fad99fe3          	bne	s3,a3,110a2 <pqcrystals_fips202_ref_shake128+0x48>
   110e8:	1afd                	addi	s5,s5,-1
   110ea:	0a8a0a13          	addi	s4,s4,168
   110ee:	fa0a95e3          	bnez	s5,11098 <pqcrystals_fips202_ref_shake128+0x3e>
   110f2:	0a800793          	li	a5,168
   110f6:	02f47433          	remu	s0,s0,a5
   110fa:	e819                	bnez	s0,11110 <pqcrystals_fips202_ref_shake128+0xb6>
   110fc:	70ba                	ld	ra,424(sp)
   110fe:	741a                	ld	s0,416(sp)
   11100:	64fa                	ld	s1,408(sp)
   11102:	695a                	ld	s2,400(sp)
   11104:	69ba                	ld	s3,392(sp)
   11106:	6a1a                	ld	s4,384(sp)
   11108:	7af6                	ld	s5,376(sp)
   1110a:	7b56                	ld	s6,368(sp)
   1110c:	615d                	addi	sp,sp,432
   1110e:	8082                	ret
   11110:	855a                	mv	a0,s6
   11112:	9f8ff0ef          	jal	ra,1030a <KeccakF1600_StatePermute>
   11116:	86da                	mv	a3,s6
   11118:	878a                	mv	a5,sp
   1111a:	6298                	ld	a4,0(a3)
   1111c:	07a1                	addi	a5,a5,8
   1111e:	06a1                	addi	a3,a3,8
   11120:	00875e93          	srli	t4,a4,0x8
   11124:	01075e13          	srli	t3,a4,0x10
   11128:	01875313          	srli	t1,a4,0x18
   1112c:	02075893          	srli	a7,a4,0x20
   11130:	02875813          	srli	a6,a4,0x28
   11134:	03075513          	srli	a0,a4,0x30
   11138:	03875593          	srli	a1,a4,0x38
   1113c:	ffd78ca3          	sb	t4,-7(a5)
   11140:	ffc78d23          	sb	t3,-6(a5)
   11144:	fe678da3          	sb	t1,-5(a5)
   11148:	ff178e23          	sb	a7,-4(a5)
   1114c:	ff078ea3          	sb	a6,-3(a5)
   11150:	fea78f23          	sb	a0,-2(a5)
   11154:	feb78fa3          	sb	a1,-1(a5)
   11158:	fee78c23          	sb	a4,-8(a5)
   1115c:	fafb1fe3          	bne	s6,a5,1111a <pqcrystals_fips202_ref_shake128+0xc0>
   11160:	0a800513          	li	a0,168
   11164:	02a48533          	mul	a0,s1,a0
   11168:	8622                	mv	a2,s0
   1116a:	858a                	mv	a1,sp
   1116c:	954a                	add	a0,a0,s2
   1116e:	162100ef          	jal	ra,212d0 <memcpy>
   11172:	b769                	j	110fc <pqcrystals_fips202_ref_shake128+0xa2>

0000000000011174 <pqcrystals_fips202_ref_shake256>:
   11174:	7165                	addi	sp,sp,-400
   11176:	87b2                	mv	a5,a2
   11178:	eada                	sd	s6,336(sp)
   1117a:	08810b13          	addi	s6,sp,136
   1117e:	e322                	sd	s0,384(sp)
   11180:	faca                	sd	s2,368(sp)
   11182:	8636                	mv	a2,a3
   11184:	842e                	mv	s0,a1
   11186:	892a                	mv	s2,a0
   11188:	85be                	mv	a1,a5
   1118a:	46fd                	li	a3,31
   1118c:	855a                	mv	a0,s6
   1118e:	fea6                	sd	s1,376(sp)
   11190:	e706                	sd	ra,392(sp)
   11192:	f6ce                	sd	s3,360(sp)
   11194:	f2d2                	sd	s4,352(sp)
   11196:	eed6                	sd	s5,344(sp)
   11198:	af1ff0ef          	jal	ra,10c88 <keccak_absorb.constprop.1>
   1119c:	08800493          	li	s1,136
   111a0:	08700793          	li	a5,135
   111a4:	029454b3          	divu	s1,s0,s1
   111a8:	0687f363          	bgeu	a5,s0,1120e <pqcrystals_fips202_ref_shake256+0x9a>
   111ac:	8aa6                	mv	s5,s1
   111ae:	8a4a                	mv	s4,s2
   111b0:	11010993          	addi	s3,sp,272
   111b4:	855a                	mv	a0,s6
   111b6:	954ff0ef          	jal	ra,1030a <KeccakF1600_StatePermute>
   111ba:	86da                	mv	a3,s6
   111bc:	87d2                	mv	a5,s4
   111be:	6298                	ld	a4,0(a3)
   111c0:	06a1                	addi	a3,a3,8
   111c2:	07a1                	addi	a5,a5,8
   111c4:	00875e13          	srli	t3,a4,0x8
   111c8:	01075313          	srli	t1,a4,0x10
   111cc:	01875893          	srli	a7,a4,0x18
   111d0:	02075813          	srli	a6,a4,0x20
   111d4:	02875513          	srli	a0,a4,0x28
   111d8:	03075593          	srli	a1,a4,0x30
   111dc:	03875613          	srli	a2,a4,0x38
   111e0:	ffc78ca3          	sb	t3,-7(a5)
   111e4:	fe678d23          	sb	t1,-6(a5)
   111e8:	ff178da3          	sb	a7,-5(a5)
   111ec:	ff078e23          	sb	a6,-4(a5)
   111f0:	fea78ea3          	sb	a0,-3(a5)
   111f4:	feb78f23          	sb	a1,-2(a5)
   111f8:	fec78fa3          	sb	a2,-1(a5)
   111fc:	fee78c23          	sb	a4,-8(a5)
   11200:	fad99fe3          	bne	s3,a3,111be <pqcrystals_fips202_ref_shake256+0x4a>
   11204:	1afd                	addi	s5,s5,-1
   11206:	088a0a13          	addi	s4,s4,136
   1120a:	fa0a95e3          	bnez	s5,111b4 <pqcrystals_fips202_ref_shake256+0x40>
   1120e:	08800793          	li	a5,136
   11212:	02f47433          	remu	s0,s0,a5
   11216:	e819                	bnez	s0,1122c <pqcrystals_fips202_ref_shake256+0xb8>
   11218:	60ba                	ld	ra,392(sp)
   1121a:	641a                	ld	s0,384(sp)
   1121c:	74f6                	ld	s1,376(sp)
   1121e:	7956                	ld	s2,368(sp)
   11220:	79b6                	ld	s3,360(sp)
   11222:	7a16                	ld	s4,352(sp)
   11224:	6af6                	ld	s5,344(sp)
   11226:	6b56                	ld	s6,336(sp)
   11228:	6159                	addi	sp,sp,400
   1122a:	8082                	ret
   1122c:	855a                	mv	a0,s6
   1122e:	8dcff0ef          	jal	ra,1030a <KeccakF1600_StatePermute>
   11232:	86da                	mv	a3,s6
   11234:	878a                	mv	a5,sp
   11236:	6298                	ld	a4,0(a3)
   11238:	07a1                	addi	a5,a5,8
   1123a:	06a1                	addi	a3,a3,8
   1123c:	00875e93          	srli	t4,a4,0x8
   11240:	01075e13          	srli	t3,a4,0x10
   11244:	01875313          	srli	t1,a4,0x18
   11248:	02075893          	srli	a7,a4,0x20
   1124c:	02875813          	srli	a6,a4,0x28
   11250:	03075513          	srli	a0,a4,0x30
   11254:	03875593          	srli	a1,a4,0x38
   11258:	ffd78ca3          	sb	t4,-7(a5)
   1125c:	ffc78d23          	sb	t3,-6(a5)
   11260:	fe678da3          	sb	t1,-5(a5)
   11264:	ff178e23          	sb	a7,-4(a5)
   11268:	ff078ea3          	sb	a6,-3(a5)
   1126c:	fea78f23          	sb	a0,-2(a5)
   11270:	feb78fa3          	sb	a1,-1(a5)
   11274:	fee78c23          	sb	a4,-8(a5)
   11278:	fafb1fe3          	bne	s6,a5,11236 <pqcrystals_fips202_ref_shake256+0xc2>
   1127c:	00449513          	slli	a0,s1,0x4
   11280:	9526                	add	a0,a0,s1
   11282:	050e                	slli	a0,a0,0x3
   11284:	8622                	mv	a2,s0
   11286:	858a                	mv	a1,sp
   11288:	954a                	add	a0,a0,s2
   1128a:	046100ef          	jal	ra,212d0 <memcpy>
   1128e:	b769                	j	11218 <pqcrystals_fips202_ref_shake256+0xa4>

0000000000011290 <pqcrystals_fips202_ref_sha3_256>:
   11290:	7149                	addi	sp,sp,-368
   11292:	f2a2                	sd	s0,352(sp)
   11294:	0120                	addi	s0,sp,136
   11296:	4699                	li	a3,6
   11298:	eea6                	sd	s1,344(sp)
   1129a:	84aa                	mv	s1,a0
   1129c:	8522                	mv	a0,s0
   1129e:	f686                	sd	ra,360(sp)
   112a0:	9e9ff0ef          	jal	ra,10c88 <keccak_absorb.constprop.1>
   112a4:	8522                	mv	a0,s0
   112a6:	864ff0ef          	jal	ra,1030a <KeccakF1600_StatePermute>
   112aa:	86a2                	mv	a3,s0
   112ac:	878a                	mv	a5,sp
   112ae:	6298                	ld	a4,0(a3)
   112b0:	07a1                	addi	a5,a5,8
   112b2:	06a1                	addi	a3,a3,8
   112b4:	00875e13          	srli	t3,a4,0x8
   112b8:	01075313          	srli	t1,a4,0x10
   112bc:	01875893          	srli	a7,a4,0x18
   112c0:	02075813          	srli	a6,a4,0x20
   112c4:	02875513          	srli	a0,a4,0x28
   112c8:	03075593          	srli	a1,a4,0x30
   112cc:	03875613          	srli	a2,a4,0x38
   112d0:	ffc78ca3          	sb	t3,-7(a5)
   112d4:	fe678d23          	sb	t1,-6(a5)
   112d8:	ff178da3          	sb	a7,-5(a5)
   112dc:	ff078e23          	sb	a6,-4(a5)
   112e0:	fea78ea3          	sb	a0,-3(a5)
   112e4:	feb78f23          	sb	a1,-2(a5)
   112e8:	fec78fa3          	sb	a2,-1(a5)
   112ec:	fee78c23          	sb	a4,-8(a5)
   112f0:	faf41fe3          	bne	s0,a5,112ae <pqcrystals_fips202_ref_sha3_256+0x1e>
   112f4:	858a                	mv	a1,sp
   112f6:	8526                	mv	a0,s1
   112f8:	02000613          	li	a2,32
   112fc:	7d50f0ef          	jal	ra,212d0 <memcpy>
   11300:	70b6                	ld	ra,360(sp)
   11302:	7416                	ld	s0,352(sp)
   11304:	64f6                	ld	s1,344(sp)
   11306:	6175                	addi	sp,sp,368
   11308:	8082                	ret

000000000001130a <pqcrystals_fips202_ref_sha3_512>:
   1130a:	7145                	addi	sp,sp,-464
   1130c:	87ae                	mv	a5,a1
   1130e:	e3a2                	sd	s0,448(sp)
   11310:	fb4a                	sd	s2,432(sp)
   11312:	4581                	li	a1,0
   11314:	842a                	mv	s0,a0
   11316:	8932                	mv	s2,a2
   11318:	1188                	addi	a0,sp,224
   1131a:	0c000613          	li	a2,192
   1131e:	e43e                	sd	a5,8(sp)
   11320:	e786                	sd	ra,456(sp)
   11322:	ff26                	sd	s1,440(sp)
   11324:	f74e                	sd	s3,424(sp)
   11326:	f352                	sd	s4,416(sp)
   11328:	ed82                	sd	zero,216(sp)
   1132a:	066100ef          	jal	ra,21390 <memset>
   1132e:	0c800613          	li	a2,200
   11332:	4581                	li	a1,0
   11334:	0808                	addi	a0,sp,16
   11336:	05a100ef          	jal	ra,21390 <memset>
   1133a:	04700713          	li	a4,71
   1133e:	67a2                	ld	a5,8(sp)
   11340:	09277463          	bgeu	a4,s2,113c8 <pqcrystals_fips202_ref_sha3_512+0xbe>
   11344:	04878a13          	addi	s4,a5,72
   11348:	89d2                	mv	s3,s4
   1134a:	04700493          	li	s1,71
   1134e:	01010893          	addi	a7,sp,16
   11352:	0017c703          	lbu	a4,1(a5)
   11356:	0027c683          	lbu	a3,2(a5)
   1135a:	0007c303          	lbu	t1,0(a5)
   1135e:	0037c803          	lbu	a6,3(a5)
   11362:	0047c503          	lbu	a0,4(a5)
   11366:	06c2                	slli	a3,a3,0x10
   11368:	0722                	slli	a4,a4,0x8
   1136a:	0057c583          	lbu	a1,5(a5)
   1136e:	8f55                	or	a4,a4,a3
   11370:	0067c603          	lbu	a2,6(a5)
   11374:	00676733          	or	a4,a4,t1
   11378:	0862                	slli	a6,a6,0x18
   1137a:	0077c683          	lbu	a3,7(a5)
   1137e:	00e86833          	or	a6,a6,a4
   11382:	02051713          	slli	a4,a0,0x20
   11386:	01076733          	or	a4,a4,a6
   1138a:	15a2                	slli	a1,a1,0x28
   1138c:	0008b503          	ld	a0,0(a7)
   11390:	8dd9                	or	a1,a1,a4
   11392:	03061713          	slli	a4,a2,0x30
   11396:	00b76633          	or	a2,a4,a1
   1139a:	03869713          	slli	a4,a3,0x38
   1139e:	8f51                	or	a4,a4,a2
   113a0:	8f29                	xor	a4,a4,a0
   113a2:	00e8b023          	sd	a4,0(a7)
   113a6:	07a1                	addi	a5,a5,8
   113a8:	08a1                	addi	a7,a7,8
   113aa:	faf994e3          	bne	s3,a5,11352 <pqcrystals_fips202_ref_sha3_512+0x48>
   113ae:	0808                	addi	a0,sp,16
   113b0:	f5bfe0ef          	jal	ra,1030a <KeccakF1600_StatePermute>
   113b4:	fb890913          	addi	s2,s2,-72
   113b8:	87d2                	mv	a5,s4
   113ba:	04898993          	addi	s3,s3,72
   113be:	0124f563          	bgeu	s1,s2,113c8 <pqcrystals_fips202_ref_sha3_512+0xbe>
   113c2:	048a0a13          	addi	s4,s4,72
   113c6:	b761                	j	1134e <pqcrystals_fips202_ref_sha3_512+0x44>
   113c8:	09b4                	addi	a3,sp,216
   113ca:	00090863          	beqz	s2,113da <pqcrystals_fips202_ref_sha3_512+0xd0>
   113ce:	8536                	mv	a0,a3
   113d0:	864a                	mv	a2,s2
   113d2:	85be                	mv	a1,a5
   113d4:	6fd0f0ef          	jal	ra,212d0 <memcpy>
   113d8:	86aa                	mv	a3,a0
   113da:	131c                	addi	a5,sp,416
   113dc:	993e                	add	s2,s2,a5
   113de:	4799                	li	a5,6
   113e0:	f2f90c23          	sb	a5,-200(s2)
   113e4:	11f14703          	lbu	a4,287(sp)
   113e8:	87b6                	mv	a5,a3
   113ea:	01010893          	addi	a7,sp,16
   113ee:	f8076713          	ori	a4,a4,-128
   113f2:	10e10fa3          	sb	a4,287(sp)
   113f6:	12010e13          	addi	t3,sp,288
   113fa:	0017c703          	lbu	a4,1(a5)
   113fe:	0027c683          	lbu	a3,2(a5)
   11402:	0007c303          	lbu	t1,0(a5)
   11406:	0037c803          	lbu	a6,3(a5)
   1140a:	0047c503          	lbu	a0,4(a5)
   1140e:	06c2                	slli	a3,a3,0x10
   11410:	0722                	slli	a4,a4,0x8
   11412:	0057c583          	lbu	a1,5(a5)
   11416:	8f55                	or	a4,a4,a3
   11418:	0067c603          	lbu	a2,6(a5)
   1141c:	00676733          	or	a4,a4,t1
   11420:	0862                	slli	a6,a6,0x18
   11422:	0077c683          	lbu	a3,7(a5)
   11426:	00e86833          	or	a6,a6,a4
   1142a:	02051713          	slli	a4,a0,0x20
   1142e:	01076733          	or	a4,a4,a6
   11432:	15a2                	slli	a1,a1,0x28
   11434:	0008b503          	ld	a0,0(a7)
   11438:	8dd9                	or	a1,a1,a4
   1143a:	03061713          	slli	a4,a2,0x30
   1143e:	00b76633          	or	a2,a4,a1
   11442:	03869713          	slli	a4,a3,0x38
   11446:	8f51                	or	a4,a4,a2
   11448:	8f29                	xor	a4,a4,a0
   1144a:	00e8b023          	sd	a4,0(a7)
   1144e:	07a1                	addi	a5,a5,8
   11450:	08a1                	addi	a7,a7,8
   11452:	fbc794e3          	bne	a5,t3,113fa <pqcrystals_fips202_ref_sha3_512+0xf0>
   11456:	0808                	addi	a0,sp,16
   11458:	eb3fe0ef          	jal	ra,1030a <KeccakF1600_StatePermute>
   1145c:	6742                	ld	a4,16(sp)
   1145e:	03875793          	srli	a5,a4,0x38
   11462:	0cf10fa3          	sb	a5,223(sp)
   11466:	67e2                	ld	a5,24(sp)
   11468:	03075693          	srli	a3,a4,0x30
   1146c:	00875893          	srli	a7,a4,0x8
   11470:	f1be                	sd	a5,224(sp)
   11472:	7782                	ld	a5,32(sp)
   11474:	01075813          	srli	a6,a4,0x10
   11478:	01875513          	srli	a0,a4,0x18
   1147c:	f5be                	sd	a5,232(sp)
   1147e:	77a2                	ld	a5,40(sp)
   11480:	02075593          	srli	a1,a4,0x20
   11484:	02875613          	srli	a2,a4,0x28
   11488:	f9be                	sd	a5,240(sp)
   1148a:	77c2                	ld	a5,48(sp)
   1148c:	0cd10f23          	sb	a3,222(sp)
   11490:	0ff77713          	andi	a4,a4,255
   11494:	fdbe                	sd	a5,248(sp)
   11496:	77e2                	ld	a5,56(sp)
   11498:	0d110ca3          	sb	a7,217(sp)
   1149c:	0d010d23          	sb	a6,218(sp)
   114a0:	e23e                	sd	a5,256(sp)
   114a2:	6786                	ld	a5,64(sp)
   114a4:	0ca10da3          	sb	a0,219(sp)
   114a8:	0cb10e23          	sb	a1,220(sp)
   114ac:	e63e                	sd	a5,264(sp)
   114ae:	67a6                	ld	a5,72(sp)
   114b0:	0cc10ea3          	sb	a2,221(sp)
   114b4:	0a34                	addi	a3,sp,280
   114b6:	ea3e                	sd	a5,272(sp)
   114b8:	67c6                	ld	a5,80(sp)
   114ba:	10f10c23          	sb	a5,280(sp)
   114be:	0d910793          	addi	a5,sp,217
   114c2:	a021                	j	114ca <pqcrystals_fips202_ref_sha3_512+0x1c0>
   114c4:	0007c703          	lbu	a4,0(a5)
   114c8:	0785                	addi	a5,a5,1
   114ca:	00e40023          	sb	a4,0(s0)
   114ce:	0405                	addi	s0,s0,1
   114d0:	fef69ae3          	bne	a3,a5,114c4 <pqcrystals_fips202_ref_sha3_512+0x1ba>
   114d4:	60be                	ld	ra,456(sp)
   114d6:	641e                	ld	s0,448(sp)
   114d8:	74fa                	ld	s1,440(sp)
   114da:	795a                	ld	s2,432(sp)
   114dc:	79ba                	ld	s3,424(sp)
   114de:	7a1a                	ld	s4,416(sp)
   114e0:	6179                	addi	sp,sp,464
   114e2:	8082                	ret

00000000000114e4 <rej_uniform>:
   114e4:	8e2a                	mv	t3,a0
   114e6:	c1cd                	beqz	a1,11588 <rej_uniform+0xa4>
   114e8:	4789                	li	a5,2
   114ea:	08d7ff63          	bgeu	a5,a3,11588 <rej_uniform+0xa4>
   114ee:	6305                	lui	t1,0x1
   114f0:	fff30e93          	addi	t4,t1,-1 # fff <main-0xf0b1>
   114f4:	4801                	li	a6,0
   114f6:	4501                	li	a0,0
   114f8:	d0030313          	addi	t1,t1,-768
   114fc:	0018089b          	addiw	a7,a6,1
   11500:	1882                	slli	a7,a7,0x20
   11502:	0208d893          	srli	a7,a7,0x20
   11506:	02081793          	slli	a5,a6,0x20
   1150a:	0028071b          	addiw	a4,a6,2
   1150e:	98b2                	add	a7,a7,a2
   11510:	9381                	srli	a5,a5,0x20
   11512:	1702                	slli	a4,a4,0x20
   11514:	0008c883          	lbu	a7,0(a7)
   11518:	97b2                	add	a5,a5,a2
   1151a:	9301                	srli	a4,a4,0x20
   1151c:	0007c783          	lbu	a5,0(a5)
   11520:	9732                	add	a4,a4,a2
   11522:	00074703          	lbu	a4,0(a4)
   11526:	00889f1b          	slliw	t5,a7,0x8
   1152a:	01e7e7b3          	or	a5,a5,t5
   1152e:	01d7f7b3          	and	a5,a5,t4
   11532:	0047171b          	slliw	a4,a4,0x4
   11536:	0048d89b          	srliw	a7,a7,0x4
   1153a:	01176733          	or	a4,a4,a7
   1153e:	17c2                	slli	a5,a5,0x30
   11540:	0107171b          	slliw	a4,a4,0x10
   11544:	93c1                	srli	a5,a5,0x30
   11546:	4107571b          	sraiw	a4,a4,0x10
   1154a:	00f36d63          	bltu	t1,a5,11564 <rej_uniform+0x80>
   1154e:	02051f13          	slli	t5,a0,0x20
   11552:	01ff5893          	srli	a7,t5,0x1f
   11556:	98f2                	add	a7,a7,t3
   11558:	2505                	addiw	a0,a0,1
   1155a:	00f89023          	sh	a5,0(a7)
   1155e:	02b56763          	bltu	a0,a1,1158c <rej_uniform+0xa8>
   11562:	8082                	ret
   11564:	00e34a63          	blt	t1,a4,11578 <rej_uniform+0x94>
   11568:	02051893          	slli	a7,a0,0x20
   1156c:	01f8d793          	srli	a5,a7,0x1f
   11570:	97f2                	add	a5,a5,t3
   11572:	00e79023          	sh	a4,0(a5)
   11576:	2505                	addiw	a0,a0,1
   11578:	feb575e3          	bgeu	a0,a1,11562 <rej_uniform+0x7e>
   1157c:	0068079b          	addiw	a5,a6,6
   11580:	280d                	addiw	a6,a6,3
   11582:	f6f6fde3          	bgeu	a3,a5,114fc <rej_uniform+0x18>
   11586:	8082                	ret
   11588:	4501                	li	a0,0
   1158a:	8082                	ret
   1158c:	fce35ee3          	bge	t1,a4,11568 <rej_uniform+0x84>
   11590:	b7f5                	j	1157c <rej_uniform+0x98>

0000000000011592 <pqcrystals_kyber512_ref_gen_matrix>:
   11592:	ca010113          	addi	sp,sp,-864
   11596:	e42a                	sd	a0,8(sp)
   11598:	e802                	sd	zero,16(sp)
   1159a:	31813823          	sd	s8,784(sp)
   1159e:	31913423          	sd	s9,776(sp)
   115a2:	6c22                	ld	s8,8(sp)
   115a4:	01014c83          	lbu	s9,16(sp)
   115a8:	31a13023          	sd	s10,768(sp)
   115ac:	6d05                	lui	s10,0x1
   115ae:	34813823          	sd	s0,848(sp)
   115b2:	34913423          	sd	s1,840(sp)
   115b6:	33413823          	sd	s4,816(sp)
   115ba:	33613023          	sd	s6,800(sp)
   115be:	31713c23          	sd	s7,792(sp)
   115c2:	2fb13c23          	sd	s11,760(sp)
   115c6:	34113c23          	sd	ra,856(sp)
   115ca:	fffd0d93          	addi	s11,s10,-1 # fff <main-0xf0b1>
   115ce:	35213023          	sd	s2,832(sp)
   115d2:	33313c23          	sd	s3,824(sp)
   115d6:	33513423          	sd	s5,808(sp)
   115da:	8bae                	mv	s7,a1
   115dc:	ec32                	sd	a2,24(sp)
   115de:	2e810a13          	addi	s4,sp,744
   115e2:	d00d0d13          	addi	s10,s10,-768
   115e6:	19810b13          	addi	s6,sp,408
   115ea:	4401                	li	s0,0
   115ec:	10000493          	li	s1,256
   115f0:	67e2                	ld	a5,24(sp)
   115f2:	0ff47613          	andi	a2,s0,255
   115f6:	c3c9                	beqz	a5,11678 <pqcrystals_kyber512_ref_gen_matrix+0xe6>
   115f8:	86b2                	mv	a3,a2
   115fa:	85de                	mv	a1,s7
   115fc:	8666                	mv	a2,s9
   115fe:	1028                	addi	a0,sp,40
   11600:	5820a0ef          	jal	ra,1bb82 <pqcrystals_kyber512_ref_kyber_shake128_absorb>
   11604:	1030                	addi	a2,sp,40
   11606:	458d                	li	a1,3
   11608:	1988                	addi	a0,sp,240
   1160a:	92dff0ef          	jal	ra,10f36 <pqcrystals_fips202_ref_shake128_squeezeblocks>
   1160e:	4a81                	li	s5,0
   11610:	1998                	addi	a4,sp,240
   11612:	00174583          	lbu	a1,1(a4)
   11616:	00074783          	lbu	a5,0(a4)
   1161a:	020a9613          	slli	a2,s5,0x20
   1161e:	01f65693          	srli	a3,a2,0x1f
   11622:	0085961b          	slliw	a2,a1,0x8
   11626:	8fd1                	or	a5,a5,a2
   11628:	01b7f7b3          	and	a5,a5,s11
   1162c:	17c2                	slli	a5,a5,0x30
   1162e:	93c1                	srli	a5,a5,0x30
   11630:	00274503          	lbu	a0,2(a4)
   11634:	0045d61b          	srliw	a2,a1,0x4
   11638:	96e2                	add	a3,a3,s8
   1163a:	001a8e1b          	addiw	t3,s5,1
   1163e:	04fd6363          	bltu	s10,a5,11684 <pqcrystals_kyber512_ref_gen_matrix+0xf2>
   11642:	00f69023          	sh	a5,0(a3)
   11646:	149e1063          	bne	t3,s1,11786 <pqcrystals_kyber512_ref_gen_matrix+0x1f4>
   1164a:	200c0c13          	addi	s8,s8,512
   1164e:	0e040d63          	beqz	s0,11748 <pqcrystals_kyber512_ref_gen_matrix+0x1b6>
   11652:	67a2                	ld	a5,8(sp)
   11654:	40078793          	addi	a5,a5,1024
   11658:	e43e                	sd	a5,8(sp)
   1165a:	67c2                	ld	a5,16(sp)
   1165c:	0e878863          	beq	a5,s0,1174c <pqcrystals_kyber512_ref_gen_matrix+0x1ba>
   11660:	4785                	li	a5,1
   11662:	e83e                	sd	a5,16(sp)
   11664:	67e2                	ld	a5,24(sp)
   11666:	4401                	li	s0,0
   11668:	01014c83          	lbu	s9,16(sp)
   1166c:	6c22                	ld	s8,8(sp)
   1166e:	10000493          	li	s1,256
   11672:	0ff47613          	andi	a2,s0,255
   11676:	f3c9                	bnez	a5,115f8 <pqcrystals_kyber512_ref_gen_matrix+0x66>
   11678:	86e6                	mv	a3,s9
   1167a:	85de                	mv	a1,s7
   1167c:	1028                	addi	a0,sp,40
   1167e:	5040a0ef          	jal	ra,1bb82 <pqcrystals_kyber512_ref_kyber_shake128_absorb>
   11682:	b749                	j	11604 <pqcrystals_kyber512_ref_gen_matrix+0x72>
   11684:	0045179b          	slliw	a5,a0,0x4
   11688:	8fd1                	or	a5,a5,a2
   1168a:	86be                	mv	a3,a5
   1168c:	0107979b          	slliw	a5,a5,0x10
   11690:	4107d79b          	sraiw	a5,a5,0x10
   11694:	00dd4a63          	blt	s10,a3,116a8 <pqcrystals_kyber512_ref_gen_matrix+0x116>
   11698:	020a9613          	slli	a2,s5,0x20
   1169c:	01f65693          	srli	a3,a2,0x1f
   116a0:	96e2                	add	a3,a3,s8
   116a2:	00f69023          	sh	a5,0(a3)
   116a6:	2a85                	addiw	s5,s5,1
   116a8:	fa9a81e3          	beq	s5,s1,1164a <pqcrystals_kyber512_ref_gen_matrix+0xb8>
   116ac:	070d                	addi	a4,a4,3
   116ae:	f6ea12e3          	bne	s4,a4,11612 <pqcrystals_kyber512_ref_gen_matrix+0x80>
   116b2:	10000993          	li	s3,256
   116b6:	0ff00913          	li	s2,255
   116ba:	a839                	j	116d8 <pqcrystals_kyber512_ref_gen_matrix+0x146>
   116bc:	02061813          	slli	a6,a2,0x20
   116c0:	01f85e13          	srli	t3,a6,0x1f
   116c4:	9e2a                	add	t3,t3,a0
   116c6:	2605                	addiw	a2,a2,1
   116c8:	00fe1023          	sh	a5,0(t3)
   116cc:	0cb66b63          	bltu	a2,a1,117a2 <pqcrystals_kyber512_ref_gen_matrix+0x210>
   116d0:	01560abb          	addw	s5,a2,s5
   116d4:	f7596be3          	bltu	s2,s5,1164a <pqcrystals_kyber512_ref_gen_matrix+0xb8>
   116d8:	1030                	addi	a2,sp,40
   116da:	4585                	li	a1,1
   116dc:	1988                	addi	a0,sp,240
   116de:	859ff0ef          	jal	ra,10f36 <pqcrystals_fips202_ref_shake128_squeezeblocks>
   116e2:	020a9793          	slli	a5,s5,0x20
   116e6:	01f7d513          	srli	a0,a5,0x1f
   116ea:	9562                	add	a0,a0,s8
   116ec:	415985bb          	subw	a1,s3,s5
   116f0:	1994                	addi	a3,sp,240
   116f2:	4601                	li	a2,0
   116f4:	0016ce03          	lbu	t3,1(a3)
   116f8:	0006c783          	lbu	a5,0(a3)
   116fc:	0026c703          	lbu	a4,2(a3)
   11700:	008e1e9b          	slliw	t4,t3,0x8
   11704:	01d7e7b3          	or	a5,a5,t4
   11708:	01b7f7b3          	and	a5,a5,s11
   1170c:	0047171b          	slliw	a4,a4,0x4
   11710:	004e5e1b          	srliw	t3,t3,0x4
   11714:	01c76733          	or	a4,a4,t3
   11718:	17c2                	slli	a5,a5,0x30
   1171a:	0107171b          	slliw	a4,a4,0x10
   1171e:	93c1                	srli	a5,a5,0x30
   11720:	4107571b          	sraiw	a4,a4,0x10
   11724:	f8fd7ce3          	bgeu	s10,a5,116bc <pqcrystals_kyber512_ref_gen_matrix+0x12a>
   11728:	00ed4a63          	blt	s10,a4,1173c <pqcrystals_kyber512_ref_gen_matrix+0x1aa>
   1172c:	02061813          	slli	a6,a2,0x20
   11730:	01f85793          	srli	a5,a6,0x1f
   11734:	97aa                	add	a5,a5,a0
   11736:	00e79023          	sh	a4,0(a5)
   1173a:	2605                	addiw	a2,a2,1
   1173c:	f8b67ae3          	bgeu	a2,a1,116d0 <pqcrystals_kyber512_ref_gen_matrix+0x13e>
   11740:	068d                	addi	a3,a3,3
   11742:	fadb19e3          	bne	s6,a3,116f4 <pqcrystals_kyber512_ref_gen_matrix+0x162>
   11746:	b769                	j	116d0 <pqcrystals_kyber512_ref_gen_matrix+0x13e>
   11748:	4405                	li	s0,1
   1174a:	b55d                	j	115f0 <pqcrystals_kyber512_ref_gen_matrix+0x5e>
   1174c:	35813083          	ld	ra,856(sp)
   11750:	35013403          	ld	s0,848(sp)
   11754:	34813483          	ld	s1,840(sp)
   11758:	34013903          	ld	s2,832(sp)
   1175c:	33813983          	ld	s3,824(sp)
   11760:	33013a03          	ld	s4,816(sp)
   11764:	32813a83          	ld	s5,808(sp)
   11768:	32013b03          	ld	s6,800(sp)
   1176c:	31813b83          	ld	s7,792(sp)
   11770:	31013c03          	ld	s8,784(sp)
   11774:	30813c83          	ld	s9,776(sp)
   11778:	30013d03          	ld	s10,768(sp)
   1177c:	2f813d83          	ld	s11,760(sp)
   11780:	36010113          	addi	sp,sp,864
   11784:	8082                	ret
   11786:	0045d59b          	srliw	a1,a1,0x4
   1178a:	0045179b          	slliw	a5,a0,0x4
   1178e:	8fcd                	or	a5,a5,a1
   11790:	86be                	mv	a3,a5
   11792:	0107979b          	slliw	a5,a5,0x10
   11796:	4107d79b          	sraiw	a5,a5,0x10
   1179a:	8af2                	mv	s5,t3
   1179c:	eedd5ee3          	bge	s10,a3,11698 <pqcrystals_kyber512_ref_gen_matrix+0x106>
   117a0:	b731                	j	116ac <pqcrystals_kyber512_ref_gen_matrix+0x11a>
   117a2:	f8ed55e3          	bge	s10,a4,1172c <pqcrystals_kyber512_ref_gen_matrix+0x19a>
   117a6:	bf69                	j	11740 <pqcrystals_kyber512_ref_gen_matrix+0x1ae>

00000000000117a8 <pqcrystals_kyber512_ref_indcpa_keypair>:
   117a8:	b6010113          	addi	sp,sp,-1184
   117ac:	72fd                	lui	t0,0xfffff
   117ae:	47313c23          	sd	s3,1144(sp)
   117b2:	47613023          	sd	s6,1120(sp)
   117b6:	48113c23          	sd	ra,1176(sp)
   117ba:	48813823          	sd	s0,1168(sp)
   117be:	48913423          	sd	s1,1160(sp)
   117c2:	49213023          	sd	s2,1152(sp)
   117c6:	47413823          	sd	s4,1136(sp)
   117ca:	47513423          	sd	s5,1128(sp)
   117ce:	45713c23          	sd	s7,1112(sp)
   117d2:	6785                	lui	a5,0x1
   117d4:	9116                	add	sp,sp,t0
   117d6:	0814                	addi	a3,sp,16
   117d8:	777d                	lui	a4,0xfffff
   117da:	44078793          	addi	a5,a5,1088 # 1440 <main-0xec70>
   117de:	97b6                	add	a5,a5,a3
   117e0:	bc070713          	addi	a4,a4,-1088 # ffffffffffffebc0 <__BSS_END__+0xfffffffffffccda8>
   117e4:	973e                	add	a4,a4,a5
   117e6:	89aa                	mv	s3,a0
   117e8:	8b2e                	mv	s6,a1
   117ea:	4781                	li	a5,0
   117ec:	02000693          	li	a3,32
   117f0:	00f70023          	sb	a5,0(a4)
   117f4:	2785                	addiw	a5,a5,1
   117f6:	0705                	addi	a4,a4,1
   117f8:	fed79ce3          	bne	a5,a3,117f0 <pqcrystals_kyber512_ref_indcpa_keypair+0x48>
   117fc:	6b85                	lui	s7,0x1
   117fe:	7a7d                	lui	s4,0xfffff
   11800:	0818                	addi	a4,sp,16
   11802:	440b8793          	addi	a5,s7,1088 # 1440 <main-0xec70>
   11806:	97ba                	add	a5,a5,a4
   11808:	bc0a0493          	addi	s1,s4,-1088 # ffffffffffffebc0 <__BSS_END__+0xfffffffffffccda8>
   1180c:	94be                	add	s1,s1,a5
   1180e:	85a6                	mv	a1,s1
   11810:	8526                	mv	a0,s1
   11812:	02000613          	li	a2,32
   11816:	af5ff0ef          	jal	ra,1130a <pqcrystals_fips202_ref_sha3_512>
   1181a:	081c                	addi	a5,sp,16
   1181c:	c40b8513          	addi	a0,s7,-960
   11820:	85a6                	mv	a1,s1
   11822:	953e                	add	a0,a0,a5
   11824:	4601                	li	a2,0
   11826:	d6dff0ef          	jal	ra,11592 <pqcrystals_kyber512_ref_gen_matrix>
   1182a:	0818                	addi	a4,sp,16
   1182c:	440b8793          	addi	a5,s7,1088
   11830:	97ba                	add	a5,a5,a4
   11832:	400a0413          	addi	s0,s4,1024
   11836:	943e                	add	s0,s0,a5
   11838:	02048a93          	addi	s5,s1,32
   1183c:	85d6                	mv	a1,s5
   1183e:	8522                	mv	a0,s0
   11840:	4601                	li	a2,0
   11842:	0c2010ef          	jal	ra,12904 <pqcrystals_kyber512_ref_poly_getnoise_eta1>
   11846:	85d6                	mv	a1,s5
   11848:	20040513          	addi	a0,s0,512
   1184c:	4605                	li	a2,1
   1184e:	0b6010ef          	jal	ra,12904 <pqcrystals_kyber512_ref_poly_getnoise_eta1>
   11852:	0818                	addi	a4,sp,16
   11854:	440b8793          	addi	a5,s7,1088
   11858:	97ba                	add	a5,a5,a4
   1185a:	c00a0913          	addi	s2,s4,-1024
   1185e:	993e                	add	s2,s2,a5
   11860:	85d6                	mv	a1,s5
   11862:	854a                	mv	a0,s2
   11864:	4609                	li	a2,2
   11866:	09e010ef          	jal	ra,12904 <pqcrystals_kyber512_ref_poly_getnoise_eta1>
   1186a:	85d6                	mv	a1,s5
   1186c:	460d                	li	a2,3
   1186e:	20090513          	addi	a0,s2,512
   11872:	092010ef          	jal	ra,12904 <pqcrystals_kyber512_ref_poly_getnoise_eta1>
   11876:	8522                	mv	a0,s0
   11878:	43a010ef          	jal	ra,12cb2 <pqcrystals_kyber512_ref_polyvec_ntt>
   1187c:	0818                	addi	a4,sp,16
   1187e:	440b8793          	addi	a5,s7,1088
   11882:	97ba                	add	a5,a5,a4
   11884:	97d2                	add	a5,a5,s4
   11886:	854a                	mv	a0,s2
   11888:	e43e                	sd	a5,8(sp)
   1188a:	428010ef          	jal	ra,12cb2 <pqcrystals_kyber512_ref_polyvec_ntt>
   1188e:	6522                	ld	a0,8(sp)
   11890:	081c                	addi	a5,sp,16
   11892:	c40b8593          	addi	a1,s7,-960
   11896:	8622                	mv	a2,s0
   11898:	95be                	add	a1,a1,a5
   1189a:	448010ef          	jal	ra,12ce2 <pqcrystals_kyber512_ref_polyvec_pointwise_acc_montgomery>
   1189e:	6522                	ld	a0,8(sp)
   118a0:	158010ef          	jal	ra,129f8 <pqcrystals_kyber512_ref_poly_tomont>
   118a4:	67a2                	ld	a5,8(sp)
   118a6:	0818                	addi	a4,sp,16
   118a8:	8622                	mv	a2,s0
   118aa:	20078a13          	addi	s4,a5,512
   118ae:	040b8793          	addi	a5,s7,64
   118b2:	00f705b3          	add	a1,a4,a5
   118b6:	8552                	mv	a0,s4
   118b8:	42a010ef          	jal	ra,12ce2 <pqcrystals_kyber512_ref_polyvec_pointwise_acc_montgomery>
   118bc:	8552                	mv	a0,s4
   118be:	13a010ef          	jal	ra,129f8 <pqcrystals_kyber512_ref_poly_tomont>
   118c2:	65a2                	ld	a1,8(sp)
   118c4:	864a                	mv	a2,s2
   118c6:	852e                	mv	a0,a1
   118c8:	49c010ef          	jal	ra,12d64 <pqcrystals_kyber512_ref_polyvec_add>
   118cc:	6522                	ld	a0,8(sp)
   118ce:	466010ef          	jal	ra,12d34 <pqcrystals_kyber512_ref_polyvec_reduce>
   118d2:	85a2                	mv	a1,s0
   118d4:	855a                	mv	a0,s6
   118d6:	394010ef          	jal	ra,12c6a <pqcrystals_kyber512_ref_polyvec_tobytes>
   118da:	65a2                	ld	a1,8(sp)
   118dc:	854e                	mv	a0,s3
   118de:	38c010ef          	jal	ra,12c6a <pqcrystals_kyber512_ref_polyvec_tobytes>
   118e2:	85a6                	mv	a1,s1
   118e4:	30098513          	addi	a0,s3,768
   118e8:	02000613          	li	a2,32
   118ec:	1e50f0ef          	jal	ra,212d0 <memcpy>
   118f0:	6285                	lui	t0,0x1
   118f2:	9116                	add	sp,sp,t0
   118f4:	49813083          	ld	ra,1176(sp)
   118f8:	49013403          	ld	s0,1168(sp)
   118fc:	48813483          	ld	s1,1160(sp)
   11900:	48013903          	ld	s2,1152(sp)
   11904:	47813983          	ld	s3,1144(sp)
   11908:	47013a03          	ld	s4,1136(sp)
   1190c:	46813a83          	ld	s5,1128(sp)
   11910:	46013b03          	ld	s6,1120(sp)
   11914:	45813b83          	ld	s7,1112(sp)
   11918:	4a010113          	addi	sp,sp,1184
   1191c:	8082                	ret

000000000001191e <pqcrystals_kyber512_ref_indcpa_enc>:
   1191e:	7159                	addi	sp,sp,-112
   11920:	72f9                	lui	t0,0xffffe
   11922:	1f028293          	addi	t0,t0,496 # ffffffffffffe1f0 <__BSS_END__+0xfffffffffffcc3d8>
   11926:	f062                	sd	s8,32(sp)
   11928:	6c09                	lui	s8,0x2
   1192a:	f486                	sd	ra,104(sp)
   1192c:	f0a2                	sd	s0,96(sp)
   1192e:	eca6                	sd	s1,88(sp)
   11930:	e8ca                	sd	s2,80(sp)
   11932:	e4ce                	sd	s3,72(sp)
   11934:	e0d2                	sd	s4,64(sp)
   11936:	fc56                	sd	s5,56(sp)
   11938:	f85a                	sd	s6,48(sp)
   1193a:	f45e                	sd	s7,40(sp)
   1193c:	ec66                	sd	s9,24(sp)
   1193e:	74fd                	lui	s1,0xfffff
   11940:	9116                	add	sp,sp,t0
   11942:	e20c0793          	addi	a5,s8,-480 # 1e20 <main-0xe290>
   11946:	978a                	add	a5,a5,sp
   11948:	c0048b93          	addi	s7,s1,-1024 # ffffffffffffec00 <__BSS_END__+0xfffffffffffccde8>
   1194c:	9bbe                	add	s7,s7,a5
   1194e:	8a2a                	mv	s4,a0
   11950:	8b2e                	mv	s6,a1
   11952:	855e                	mv	a0,s7
   11954:	85b2                	mv	a1,a2
   11956:	89b6                	mv	s3,a3
   11958:	8932                	mv	s2,a2
   1195a:	334010ef          	jal	ra,12c8e <pqcrystals_kyber512_ref_polyvec_frombytes>
   1195e:	02000613          	li	a2,32
   11962:	30090593          	addi	a1,s2,768
   11966:	850a                	mv	a0,sp
   11968:	1690f0ef          	jal	ra,212d0 <memcpy>
   1196c:	7479                	lui	s0,0xffffe
   1196e:	e20c0793          	addi	a5,s8,-480
   11972:	978a                	add	a5,a5,sp
   11974:	40040a93          	addi	s5,s0,1024 # ffffffffffffe400 <__BSS_END__+0xfffffffffffcc5e8>
   11978:	9abe                	add	s5,s5,a5
   1197a:	85da                	mv	a1,s6
   1197c:	8556                	mv	a0,s5
   1197e:	57b000ef          	jal	ra,126f8 <pqcrystals_kyber512_ref_poly_frommsg>
   11982:	6c85                	lui	s9,0x1
   11984:	e20c0793          	addi	a5,s8,-480
   11988:	978a                	add	a5,a5,sp
   1198a:	1e040593          	addi	a1,s0,480
   1198e:	620c8513          	addi	a0,s9,1568 # 1620 <main-0xea90>
   11992:	95be                	add	a1,a1,a5
   11994:	950a                	add	a0,a0,sp
   11996:	4605                	li	a2,1
   11998:	bfbff0ef          	jal	ra,11592 <pqcrystals_kyber512_ref_gen_matrix>
   1199c:	e20c0793          	addi	a5,s8,-480
   119a0:	978a                	add	a5,a5,sp
   119a2:	80048913          	addi	s2,s1,-2048
   119a6:	993e                	add	s2,s2,a5
   119a8:	85ce                	mv	a1,s3
   119aa:	854a                	mv	a0,s2
   119ac:	4601                	li	a2,0
   119ae:	757000ef          	jal	ra,12904 <pqcrystals_kyber512_ref_poly_getnoise_eta1>
   119b2:	85ce                	mv	a1,s3
   119b4:	20090513          	addi	a0,s2,512
   119b8:	4605                	li	a2,1
   119ba:	74b000ef          	jal	ra,12904 <pqcrystals_kyber512_ref_poly_getnoise_eta1>
   119be:	e20c8513          	addi	a0,s9,-480
   119c2:	85ce                	mv	a1,s3
   119c4:	950a                	add	a0,a0,sp
   119c6:	4609                	li	a2,2
   119c8:	763000ef          	jal	ra,1292a <pqcrystals_kyber512_ref_poly_getnoise_eta2>
   119cc:	e20c8793          	addi	a5,s9,-480
   119d0:	978a                	add	a5,a5,sp
   119d2:	85ce                	mv	a1,s3
   119d4:	20078513          	addi	a0,a5,512
   119d8:	460d                	li	a2,3
   119da:	751000ef          	jal	ra,1292a <pqcrystals_kyber512_ref_poly_getnoise_eta2>
   119de:	e20c0793          	addi	a5,s8,-480
   119e2:	978a                	add	a5,a5,sp
   119e4:	60040b13          	addi	s6,s0,1536
   119e8:	9b3e                	add	s6,s6,a5
   119ea:	85ce                	mv	a1,s3
   119ec:	4611                	li	a2,4
   119ee:	855a                	mv	a0,s6
   119f0:	73b000ef          	jal	ra,1292a <pqcrystals_kyber512_ref_poly_getnoise_eta2>
   119f4:	854a                	mv	a0,s2
   119f6:	2bc010ef          	jal	ra,12cb2 <pqcrystals_kyber512_ref_polyvec_ntt>
   119fa:	e20c0793          	addi	a5,s8,-480
   119fe:	978a                	add	a5,a5,sp
   11a00:	40048493          	addi	s1,s1,1024
   11a04:	94be                	add	s1,s1,a5
   11a06:	620c8593          	addi	a1,s9,1568
   11a0a:	958a                	add	a1,a1,sp
   11a0c:	8526                	mv	a0,s1
   11a0e:	864a                	mv	a2,s2
   11a10:	2d2010ef          	jal	ra,12ce2 <pqcrystals_kyber512_ref_polyvec_pointwise_acc_montgomery>
   11a14:	a20c0793          	addi	a5,s8,-1504
   11a18:	00f105b3          	add	a1,sp,a5
   11a1c:	864a                	mv	a2,s2
   11a1e:	20048513          	addi	a0,s1,512
   11a22:	2c0010ef          	jal	ra,12ce2 <pqcrystals_kyber512_ref_polyvec_pointwise_acc_montgomery>
   11a26:	e20c0793          	addi	a5,s8,-480
   11a2a:	978a                	add	a5,a5,sp
   11a2c:	20040413          	addi	s0,s0,512
   11a30:	943e                	add	s0,s0,a5
   11a32:	864a                	mv	a2,s2
   11a34:	85de                	mv	a1,s7
   11a36:	8522                	mv	a0,s0
   11a38:	2aa010ef          	jal	ra,12ce2 <pqcrystals_kyber512_ref_polyvec_pointwise_acc_montgomery>
   11a3c:	8526                	mv	a0,s1
   11a3e:	28c010ef          	jal	ra,12cca <pqcrystals_kyber512_ref_polyvec_invntt_tomont>
   11a42:	8522                	mv	a0,s0
   11a44:	73b000ef          	jal	ra,1297e <pqcrystals_kyber512_ref_poly_invntt_tomont>
   11a48:	e20c8613          	addi	a2,s9,-480
   11a4c:	960a                	add	a2,a2,sp
   11a4e:	85a6                	mv	a1,s1
   11a50:	8526                	mv	a0,s1
   11a52:	312010ef          	jal	ra,12d64 <pqcrystals_kyber512_ref_polyvec_add>
   11a56:	865a                	mv	a2,s6
   11a58:	85a2                	mv	a1,s0
   11a5a:	8522                	mv	a0,s0
   11a5c:	026010ef          	jal	ra,12a82 <pqcrystals_kyber512_ref_poly_add>
   11a60:	8656                	mv	a2,s5
   11a62:	85a2                	mv	a1,s0
   11a64:	8522                	mv	a0,s0
   11a66:	01c010ef          	jal	ra,12a82 <pqcrystals_kyber512_ref_poly_add>
   11a6a:	8526                	mv	a0,s1
   11a6c:	2c8010ef          	jal	ra,12d34 <pqcrystals_kyber512_ref_polyvec_reduce>
   11a70:	8522                	mv	a0,s0
   11a72:	7bd000ef          	jal	ra,12a2e <pqcrystals_kyber512_ref_poly_reduce>
   11a76:	85a6                	mv	a1,s1
   11a78:	8552                	mv	a0,s4
   11a7a:	064010ef          	jal	ra,12ade <pqcrystals_kyber512_ref_polyvec_compress>
   11a7e:	85a2                	mv	a1,s0
   11a80:	280a0513          	addi	a0,s4,640
   11a84:	2b9000ef          	jal	ra,1253c <pqcrystals_kyber512_ref_poly_compress>
   11a88:	6289                	lui	t0,0x2
   11a8a:	e1028293          	addi	t0,t0,-496 # 1e10 <main-0xe2a0>
   11a8e:	9116                	add	sp,sp,t0
   11a90:	70a6                	ld	ra,104(sp)
   11a92:	7406                	ld	s0,96(sp)
   11a94:	64e6                	ld	s1,88(sp)
   11a96:	6946                	ld	s2,80(sp)
   11a98:	69a6                	ld	s3,72(sp)
   11a9a:	6a06                	ld	s4,64(sp)
   11a9c:	7ae2                	ld	s5,56(sp)
   11a9e:	7b42                	ld	s6,48(sp)
   11aa0:	7ba2                	ld	s7,40(sp)
   11aa2:	7c02                	ld	s8,32(sp)
   11aa4:	6ce2                	ld	s9,24(sp)
   11aa6:	6165                	addi	sp,sp,112
   11aa8:	8082                	ret

0000000000011aaa <pqcrystals_kyber512_ref_indcpa_dec>:
   11aaa:	81010113          	addi	sp,sp,-2032
   11aae:	7e113423          	sd	ra,2024(sp)
   11ab2:	7e813023          	sd	s0,2016(sp)
   11ab6:	7c913c23          	sd	s1,2008(sp)
   11aba:	7d213823          	sd	s2,2000(sp)
   11abe:	7d313423          	sd	s3,1992(sp)
   11ac2:	7d413023          	sd	s4,1984(sp)
   11ac6:	7b513c23          	sd	s5,1976(sp)
   11aca:	bb010113          	addi	sp,sp,-1104
   11ace:	892a                	mv	s2,a0
   11ad0:	40010513          	addi	a0,sp,1024
   11ad4:	89b2                	mv	s3,a2
   11ad6:	6a85                	lui	s5,0x1
   11ad8:	8a2e                	mv	s4,a1
   11ada:	0da010ef          	jal	ra,12bb4 <pqcrystals_kyber512_ref_polyvec_decompress>
   11ade:	747d                	lui	s0,0xfffff
   11ae0:	c00a8793          	addi	a5,s5,-1024 # c00 <main-0xf4b0>
   11ae4:	978a                	add	a5,a5,sp
   11ae6:	40040493          	addi	s1,s0,1024 # fffffffffffff400 <__BSS_END__+0xfffffffffffcd5e8>
   11aea:	94be                	add	s1,s1,a5
   11aec:	280a0593          	addi	a1,s4,640
   11af0:	8526                	mv	a0,s1
   11af2:	357000ef          	jal	ra,12648 <pqcrystals_kyber512_ref_poly_decompress>
   11af6:	800a8513          	addi	a0,s5,-2048
   11afa:	85ce                	mv	a1,s3
   11afc:	950a                	add	a0,a0,sp
   11afe:	190010ef          	jal	ra,12c8e <pqcrystals_kyber512_ref_polyvec_frombytes>
   11b02:	40010513          	addi	a0,sp,1024
   11b06:	1ac010ef          	jal	ra,12cb2 <pqcrystals_kyber512_ref_polyvec_ntt>
   11b0a:	c00a8793          	addi	a5,s5,-1024
   11b0e:	978a                	add	a5,a5,sp
   11b10:	60040413          	addi	s0,s0,1536
   11b14:	943e                	add	s0,s0,a5
   11b16:	800a8593          	addi	a1,s5,-2048
   11b1a:	40010613          	addi	a2,sp,1024
   11b1e:	958a                	add	a1,a1,sp
   11b20:	8522                	mv	a0,s0
   11b22:	1c0010ef          	jal	ra,12ce2 <pqcrystals_kyber512_ref_polyvec_pointwise_acc_montgomery>
   11b26:	8522                	mv	a0,s0
   11b28:	657000ef          	jal	ra,1297e <pqcrystals_kyber512_ref_poly_invntt_tomont>
   11b2c:	8622                	mv	a2,s0
   11b2e:	85a6                	mv	a1,s1
   11b30:	8522                	mv	a0,s0
   11b32:	77b000ef          	jal	ra,12aac <pqcrystals_kyber512_ref_poly_sub>
   11b36:	8522                	mv	a0,s0
   11b38:	6f7000ef          	jal	ra,12a2e <pqcrystals_kyber512_ref_poly_reduce>
   11b3c:	85a2                	mv	a1,s0
   11b3e:	854a                	mv	a0,s2
   11b40:	471000ef          	jal	ra,127b0 <pqcrystals_kyber512_ref_poly_tomsg>
   11b44:	45010113          	addi	sp,sp,1104
   11b48:	7e813083          	ld	ra,2024(sp)
   11b4c:	7e013403          	ld	s0,2016(sp)
   11b50:	7d813483          	ld	s1,2008(sp)
   11b54:	7d013903          	ld	s2,2000(sp)
   11b58:	7c813983          	ld	s3,1992(sp)
   11b5c:	7c013a03          	ld	s4,1984(sp)
   11b60:	7b813a83          	ld	s5,1976(sp)
   11b64:	7f010113          	addi	sp,sp,2032
   11b68:	8082                	ret

0000000000011b6a <pqcrystals_kyber512_ref_keypair>:
   11b6a:	1101                	addi	sp,sp,-32
   11b6c:	e822                	sd	s0,16(sp)
   11b6e:	e426                	sd	s1,8(sp)
   11b70:	842e                	mv	s0,a1
   11b72:	84aa                	mv	s1,a0
   11b74:	ec06                	sd	ra,24(sp)
   11b76:	c33ff0ef          	jal	ra,117a8 <pqcrystals_kyber512_ref_indcpa_keypair>
   11b7a:	87a6                	mv	a5,s1
   11b7c:	30040713          	addi	a4,s0,768
   11b80:	32048613          	addi	a2,s1,800
   11b84:	0007c683          	lbu	a3,0(a5)
   11b88:	0785                	addi	a5,a5,1
   11b8a:	0705                	addi	a4,a4,1
   11b8c:	fed70fa3          	sb	a3,-1(a4)
   11b90:	fef61ae3          	bne	a2,a5,11b84 <pqcrystals_kyber512_ref_keypair+0x1a>
   11b94:	85a6                	mv	a1,s1
   11b96:	62040513          	addi	a0,s0,1568
   11b9a:	32000613          	li	a2,800
   11b9e:	ef2ff0ef          	jal	ra,11290 <pqcrystals_fips202_ref_sha3_256>
   11ba2:	64040513          	addi	a0,s0,1600
   11ba6:	02000613          	li	a2,32
   11baa:	4581                	li	a1,0
   11bac:	7e40f0ef          	jal	ra,21390 <memset>
   11bb0:	60e2                	ld	ra,24(sp)
   11bb2:	6442                	ld	s0,16(sp)
   11bb4:	64a2                	ld	s1,8(sp)
   11bb6:	4501                	li	a0,0
   11bb8:	6105                	addi	sp,sp,32
   11bba:	8082                	ret

0000000000011bbc <pqcrystals_kyber512_ref_enc>:
   11bbc:	7135                	addi	sp,sp,-160
   11bbe:	e922                	sd	s0,144(sp)
   11bc0:	e526                	sd	s1,136(sp)
   11bc2:	e14a                	sd	s2,128(sp)
   11bc4:	ed06                	sd	ra,152(sp)
   11bc6:	842a                	mv	s0,a0
   11bc8:	892e                	mv	s2,a1
   11bca:	84b2                	mv	s1,a2
   11bcc:	870a                	mv	a4,sp
   11bce:	4781                	li	a5,0
   11bd0:	02000693          	li	a3,32
   11bd4:	00f70023          	sb	a5,0(a4)
   11bd8:	2785                	addiw	a5,a5,1
   11bda:	0705                	addi	a4,a4,1
   11bdc:	fed79ce3          	bne	a5,a3,11bd4 <pqcrystals_kyber512_ref_enc+0x18>
   11be0:	858a                	mv	a1,sp
   11be2:	850a                	mv	a0,sp
   11be4:	02000613          	li	a2,32
   11be8:	ea8ff0ef          	jal	ra,11290 <pqcrystals_fips202_ref_sha3_256>
   11bec:	85a6                	mv	a1,s1
   11bee:	1008                	addi	a0,sp,32
   11bf0:	32000613          	li	a2,800
   11bf4:	e9cff0ef          	jal	ra,11290 <pqcrystals_fips202_ref_sha3_256>
   11bf8:	858a                	mv	a1,sp
   11bfa:	0088                	addi	a0,sp,64
   11bfc:	04000613          	li	a2,64
   11c00:	f0aff0ef          	jal	ra,1130a <pqcrystals_fips202_ref_sha3_512>
   11c04:	1094                	addi	a3,sp,96
   11c06:	8626                	mv	a2,s1
   11c08:	858a                	mv	a1,sp
   11c0a:	8522                	mv	a0,s0
   11c0c:	d13ff0ef          	jal	ra,1191e <pqcrystals_kyber512_ref_indcpa_enc>
   11c10:	85a2                	mv	a1,s0
   11c12:	1088                	addi	a0,sp,96
   11c14:	30000613          	li	a2,768
   11c18:	e78ff0ef          	jal	ra,11290 <pqcrystals_fips202_ref_sha3_256>
   11c1c:	854a                	mv	a0,s2
   11c1e:	0090                	addi	a2,sp,64
   11c20:	04000693          	li	a3,64
   11c24:	02000593          	li	a1,32
   11c28:	d4cff0ef          	jal	ra,11174 <pqcrystals_fips202_ref_shake256>
   11c2c:	60ea                	ld	ra,152(sp)
   11c2e:	644a                	ld	s0,144(sp)
   11c30:	64aa                	ld	s1,136(sp)
   11c32:	690a                	ld	s2,128(sp)
   11c34:	4501                	li	a0,0
   11c36:	610d                	addi	sp,sp,160
   11c38:	8082                	ret

0000000000011c3a <pqcrystals_kyber512_ref_dec>:
   11c3a:	c6010113          	addi	sp,sp,-928
   11c3e:	39213023          	sd	s2,896(sp)
   11c42:	892a                	mv	s2,a0
   11c44:	850a                	mv	a0,sp
   11c46:	38113c23          	sd	ra,920(sp)
   11c4a:	38813823          	sd	s0,912(sp)
   11c4e:	38913423          	sd	s1,904(sp)
   11c52:	8432                	mv	s0,a2
   11c54:	84ae                	mv	s1,a1
   11c56:	e55ff0ef          	jal	ra,11aaa <pqcrystals_kyber512_ref_indcpa_dec>
   11c5a:	62040593          	addi	a1,s0,1568
   11c5e:	02000613          	li	a2,32
   11c62:	1008                	addi	a0,sp,32
   11c64:	66c0f0ef          	jal	ra,212d0 <memcpy>
   11c68:	858a                	mv	a1,sp
   11c6a:	0088                	addi	a0,sp,64
   11c6c:	04000613          	li	a2,64
   11c70:	e9aff0ef          	jal	ra,1130a <pqcrystals_fips202_ref_sha3_512>
   11c74:	1094                	addi	a3,sp,96
   11c76:	30040613          	addi	a2,s0,768
   11c7a:	858a                	mv	a1,sp
   11c7c:	0108                	addi	a0,sp,128
   11c7e:	ca1ff0ef          	jal	ra,1191e <pqcrystals_kyber512_ref_indcpa_enc>
   11c82:	010c                	addi	a1,sp,128
   11c84:	30000613          	li	a2,768
   11c88:	8526                	mv	a0,s1
   11c8a:	76f090ef          	jal	ra,1bbf8 <pqcrystals_kyber512_ref_verify>
   11c8e:	86aa                	mv	a3,a0
   11c90:	85a6                	mv	a1,s1
   11c92:	1088                	addi	a0,sp,96
   11c94:	30000613          	li	a2,768
   11c98:	84b6                	mv	s1,a3
   11c9a:	df6ff0ef          	jal	ra,11290 <pqcrystals_fips202_ref_sha3_256>
   11c9e:	0ff4f693          	andi	a3,s1,255
   11ca2:	64040593          	addi	a1,s0,1600
   11ca6:	0088                	addi	a0,sp,64
   11ca8:	02000613          	li	a2,32
   11cac:	775090ef          	jal	ra,1bc20 <pqcrystals_kyber512_ref_cmov>
   11cb0:	854a                	mv	a0,s2
   11cb2:	0090                	addi	a2,sp,64
   11cb4:	04000693          	li	a3,64
   11cb8:	02000593          	li	a1,32
   11cbc:	cb8ff0ef          	jal	ra,11174 <pqcrystals_fips202_ref_shake256>
   11cc0:	39813083          	ld	ra,920(sp)
   11cc4:	39013403          	ld	s0,912(sp)
   11cc8:	38813483          	ld	s1,904(sp)
   11ccc:	38013903          	ld	s2,896(sp)
   11cd0:	4501                	li	a0,0
   11cd2:	3a010113          	addi	sp,sp,928
   11cd6:	8082                	ret

0000000000011cd8 <pqcrystals_kyber512_ref_ntt>:
   11cd8:	7119                	addi	sp,sp,-128
   11cda:	f4a6                	sd	s1,104(sp)
   11cdc:	f862                	sd	s8,48(sp)
   11cde:	479d                	li	a5,7
   11ce0:	6485                	lui	s1,0x1
   11ce2:	0002ec37          	lui	s8,0x2e
   11ce6:	e8d2                	sd	s4,80(sp)
   11ce8:	e4d6                	sd	s5,72(sp)
   11cea:	e0da                	sd	s6,64(sp)
   11cec:	f06a                	sd	s10,32(sp)
   11cee:	fc86                	sd	ra,120(sp)
   11cf0:	f8a2                	sd	s0,112(sp)
   11cf2:	f0ca                	sd	s2,96(sp)
   11cf4:	ecce                	sd	s3,88(sp)
   11cf6:	fc5e                	sd	s7,56(sp)
   11cf8:	f466                	sd	s9,40(sp)
   11cfa:	ec6e                	sd	s11,24(sp)
   11cfc:	8b2a                	mv	s6,a0
   11cfe:	e43e                	sd	a5,8(sp)
   11d00:	a0b48493          	addi	s1,s1,-1525 # a0b <main-0xf6a5>
   11d04:	4a85                	li	s5,1
   11d06:	08000a13          	li	s4,128
   11d0a:	00250d13          	addi	s10,a0,2
   11d0e:	ae0c0c13          	addi	s8,s8,-1312 # 2dae0 <pqcrystals_kyber512_ref_zetas>
   11d12:	4781                	li	a5,0
   11d14:	fffa0b9b          	addiw	s7,s4,-1
   11d18:	00fa09bb          	addw	s3,s4,a5
   11d1c:	1b82                	slli	s7,s7,0x20
   11d1e:	001a891b          	addiw	s2,s5,1
   11d22:	874e                	mv	a4,s3
   11d24:	020bdb93          	srli	s7,s7,0x20
   11d28:	8aca                	mv	s5,s2
   11d2a:	06e7fd63          	bgeu	a5,a4,11da4 <pqcrystals_kyber512_ref_ntt+0xcc>
   11d2e:	1782                	slli	a5,a5,0x20
   11d30:	9381                	srli	a5,a5,0x20
   11d32:	00fb8433          	add	s0,s7,a5
   11d36:	02099693          	slli	a3,s3,0x20
   11d3a:	01f6d713          	srli	a4,a3,0x1f
   11d3e:	0786                	slli	a5,a5,0x1
   11d40:	0406                	slli	s0,s0,0x1
   11d42:	2481                	sext.w	s1,s1
   11d44:	00eb0cb3          	add	s9,s6,a4
   11d48:	00fb0db3          	add	s11,s6,a5
   11d4c:	946a                	add	s0,s0,s10
   11d4e:	000c9503          	lh	a0,0(s9)
   11d52:	0d89                	addi	s11,s11,2
   11d54:	0c89                	addi	s9,s9,2
   11d56:	0295053b          	mulw	a0,a0,s1
   11d5a:	066010ef          	jal	ra,12dc0 <pqcrystals_kyber512_ref_montgomery_reduce>
   11d5e:	ffedd683          	lhu	a3,-2(s11)
   11d62:	1542                	slli	a0,a0,0x30
   11d64:	9141                	srli	a0,a0,0x30
   11d66:	9e89                	subw	a3,a3,a0
   11d68:	fedc9f23          	sh	a3,-2(s9)
   11d6c:	ffedd683          	lhu	a3,-2(s11)
   11d70:	9d35                	addw	a0,a0,a3
   11d72:	fead9f23          	sh	a0,-2(s11)
   11d76:	fdb41ce3          	bne	s0,s11,11d4e <pqcrystals_kyber512_ref_ntt+0x76>
   11d7a:	014987bb          	addw	a5,s3,s4
   11d7e:	0ff00713          	li	a4,255
   11d82:	02f76363          	bltu	a4,a5,11da8 <pqcrystals_kyber512_ref_ntt+0xd0>
   11d86:	02091713          	slli	a4,s2,0x20
   11d8a:	01f75913          	srli	s2,a4,0x1f
   11d8e:	9962                	add	s2,s2,s8
   11d90:	00fa09bb          	addw	s3,s4,a5
   11d94:	00091483          	lh	s1,0(s2)
   11d98:	874e                	mv	a4,s3
   11d9a:	001a891b          	addiw	s2,s5,1
   11d9e:	8aca                	mv	s5,s2
   11da0:	f8e7e7e3          	bltu	a5,a4,11d2e <pqcrystals_kyber512_ref_ntt+0x56>
   11da4:	87ba                	mv	a5,a4
   11da6:	b7c5                	j	11d86 <pqcrystals_kyber512_ref_ntt+0xae>
   11da8:	67a2                	ld	a5,8(sp)
   11daa:	001a5a13          	srli	s4,s4,0x1
   11dae:	37fd                	addiw	a5,a5,-1
   11db0:	e43e                	sd	a5,8(sp)
   11db2:	cb89                	beqz	a5,11dc4 <pqcrystals_kyber512_ref_ntt+0xec>
   11db4:	020a9713          	slli	a4,s5,0x20
   11db8:	01f75793          	srli	a5,a4,0x1f
   11dbc:	97e2                	add	a5,a5,s8
   11dbe:	00079483          	lh	s1,0(a5)
   11dc2:	bf81                	j	11d12 <pqcrystals_kyber512_ref_ntt+0x3a>
   11dc4:	70e6                	ld	ra,120(sp)
   11dc6:	7446                	ld	s0,112(sp)
   11dc8:	74a6                	ld	s1,104(sp)
   11dca:	7906                	ld	s2,96(sp)
   11dcc:	69e6                	ld	s3,88(sp)
   11dce:	6a46                	ld	s4,80(sp)
   11dd0:	6aa6                	ld	s5,72(sp)
   11dd2:	6b06                	ld	s6,64(sp)
   11dd4:	7be2                	ld	s7,56(sp)
   11dd6:	7c42                	ld	s8,48(sp)
   11dd8:	7ca2                	ld	s9,40(sp)
   11dda:	7d02                	ld	s10,32(sp)
   11ddc:	6de2                	ld	s11,24(sp)
   11dde:	6109                	addi	sp,sp,128
   11de0:	8082                	ret

0000000000011de2 <pqcrystals_kyber512_ref_invntt>:
   11de2:	7119                	addi	sp,sp,-128
   11de4:	479d                	li	a5,7
   11de6:	f862                	sd	s8,48(sp)
   11de8:	e43e                	sd	a5,8(sp)
   11dea:	0002ec37          	lui	s8,0x2e
   11dee:	00250793          	addi	a5,a0,2
   11df2:	f4a6                	sd	s1,104(sp)
   11df4:	f0ca                	sd	s2,96(sp)
   11df6:	e4d6                	sd	s5,72(sp)
   11df8:	e0da                	sd	s6,64(sp)
   11dfa:	fc86                	sd	ra,120(sp)
   11dfc:	f8a2                	sd	s0,112(sp)
   11dfe:	ecce                	sd	s3,88(sp)
   11e00:	e8d2                	sd	s4,80(sp)
   11e02:	fc5e                	sd	s7,56(sp)
   11e04:	f466                	sd	s9,40(sp)
   11e06:	f06a                	sd	s10,32(sp)
   11e08:	ec6e                	sd	s11,24(sp)
   11e0a:	892a                	mv	s2,a0
   11e0c:	6a500493          	li	s1,1701
   11e10:	4b01                	li	s6,0
   11e12:	4a89                	li	s5,2
   11e14:	e03e                	sd	a5,0(sp)
   11e16:	ae0c0c13          	addi	s8,s8,-1312 # 2dae0 <pqcrystals_kyber512_ref_zetas>
   11e1a:	4681                	li	a3,0
   11e1c:	fffa8b9b          	addiw	s7,s5,-1
   11e20:	01568a3b          	addw	s4,a3,s5
   11e24:	1b82                	slli	s7,s7,0x20
   11e26:	001b099b          	addiw	s3,s6,1
   11e2a:	87d2                	mv	a5,s4
   11e2c:	020bdb93          	srli	s7,s7,0x20
   11e30:	8b4e                	mv	s6,s3
   11e32:	08f6fa63          	bgeu	a3,a5,11ec6 <pqcrystals_kyber512_ref_invntt+0xe4>
   11e36:	020a1793          	slli	a5,s4,0x20
   11e3a:	1682                	slli	a3,a3,0x20
   11e3c:	9281                	srli	a3,a3,0x20
   11e3e:	01f7d713          	srli	a4,a5,0x1f
   11e42:	6782                	ld	a5,0(sp)
   11e44:	00db8433          	add	s0,s7,a3
   11e48:	0406                	slli	s0,s0,0x1
   11e4a:	0686                	slli	a3,a3,0x1
   11e4c:	2481                	sext.w	s1,s1
   11e4e:	00d90cb3          	add	s9,s2,a3
   11e52:	00e90db3          	add	s11,s2,a4
   11e56:	943e                	add	s0,s0,a5
   11e58:	000dd503          	lhu	a0,0(s11)
   11e5c:	000cdd03          	lhu	s10,0(s9)
   11e60:	0c89                	addi	s9,s9,2
   11e62:	0d89                	addi	s11,s11,2
   11e64:	01a5053b          	addw	a0,a0,s10
   11e68:	0105151b          	slliw	a0,a0,0x10
   11e6c:	4105551b          	sraiw	a0,a0,0x10
   11e70:	77d000ef          	jal	ra,12dec <pqcrystals_kyber512_ref_barrett_reduce>
   11e74:	feac9f23          	sh	a0,-2(s9)
   11e78:	ffedd603          	lhu	a2,-2(s11)
   11e7c:	40cd07bb          	subw	a5,s10,a2
   11e80:	0107979b          	slliw	a5,a5,0x10
   11e84:	4107d79b          	sraiw	a5,a5,0x10
   11e88:	0297853b          	mulw	a0,a5,s1
   11e8c:	fefd9f23          	sh	a5,-2(s11)
   11e90:	731000ef          	jal	ra,12dc0 <pqcrystals_kyber512_ref_montgomery_reduce>
   11e94:	fead9f23          	sh	a0,-2(s11)
   11e98:	fd9410e3          	bne	s0,s9,11e58 <pqcrystals_kyber512_ref_invntt+0x76>
   11e9c:	015a06bb          	addw	a3,s4,s5
   11ea0:	0ff00793          	li	a5,255
   11ea4:	02d7e363          	bltu	a5,a3,11eca <pqcrystals_kyber512_ref_invntt+0xe8>
   11ea8:	02099793          	slli	a5,s3,0x20
   11eac:	01f7d993          	srli	s3,a5,0x1f
   11eb0:	99e2                	add	s3,s3,s8
   11eb2:	01568a3b          	addw	s4,a3,s5
   11eb6:	10099483          	lh	s1,256(s3)
   11eba:	87d2                	mv	a5,s4
   11ebc:	001b099b          	addiw	s3,s6,1
   11ec0:	8b4e                	mv	s6,s3
   11ec2:	f6f6eae3          	bltu	a3,a5,11e36 <pqcrystals_kyber512_ref_invntt+0x54>
   11ec6:	86be                	mv	a3,a5
   11ec8:	b7c5                	j	11ea8 <pqcrystals_kyber512_ref_invntt+0xc6>
   11eca:	67a2                	ld	a5,8(sp)
   11ecc:	001a9a9b          	slliw	s5,s5,0x1
   11ed0:	37fd                	addiw	a5,a5,-1
   11ed2:	e43e                	sd	a5,8(sp)
   11ed4:	cb89                	beqz	a5,11ee6 <pqcrystals_kyber512_ref_invntt+0x104>
   11ed6:	020b1713          	slli	a4,s6,0x20
   11eda:	01f75793          	srli	a5,a4,0x1f
   11ede:	97e2                	add	a5,a5,s8
   11ee0:	10079483          	lh	s1,256(a5)
   11ee4:	bf1d                	j	11e1a <pqcrystals_kyber512_ref_invntt+0x38>
   11ee6:	20090493          	addi	s1,s2,512
   11eea:	5a100413          	li	s0,1441
   11eee:	00091503          	lh	a0,0(s2)
   11ef2:	0909                	addi	s2,s2,2
   11ef4:	0285053b          	mulw	a0,a0,s0
   11ef8:	6c9000ef          	jal	ra,12dc0 <pqcrystals_kyber512_ref_montgomery_reduce>
   11efc:	fea91f23          	sh	a0,-2(s2)
   11f00:	ff2497e3          	bne	s1,s2,11eee <pqcrystals_kyber512_ref_invntt+0x10c>
   11f04:	70e6                	ld	ra,120(sp)
   11f06:	7446                	ld	s0,112(sp)
   11f08:	74a6                	ld	s1,104(sp)
   11f0a:	7906                	ld	s2,96(sp)
   11f0c:	69e6                	ld	s3,88(sp)
   11f0e:	6a46                	ld	s4,80(sp)
   11f10:	6aa6                	ld	s5,72(sp)
   11f12:	6b06                	ld	s6,64(sp)
   11f14:	7be2                	ld	s7,56(sp)
   11f16:	7c42                	ld	s8,48(sp)
   11f18:	7ca2                	ld	s9,40(sp)
   11f1a:	7d02                	ld	s10,32(sp)
   11f1c:	6de2                	ld	s11,24(sp)
   11f1e:	6109                	addi	sp,sp,128
   11f20:	8082                	ret

0000000000011f22 <pqcrystals_kyber512_ref_invntt_without_post_process>:
   11f22:	7119                	addi	sp,sp,-128
   11f24:	479d                	li	a5,7
   11f26:	f862                	sd	s8,48(sp)
   11f28:	e43e                	sd	a5,8(sp)
   11f2a:	0002ec37          	lui	s8,0x2e
   11f2e:	00250793          	addi	a5,a0,2
   11f32:	f4a6                	sd	s1,104(sp)
   11f34:	e8d2                	sd	s4,80(sp)
   11f36:	e4d6                	sd	s5,72(sp)
   11f38:	e0da                	sd	s6,64(sp)
   11f3a:	fc86                	sd	ra,120(sp)
   11f3c:	f8a2                	sd	s0,112(sp)
   11f3e:	f0ca                	sd	s2,96(sp)
   11f40:	ecce                	sd	s3,88(sp)
   11f42:	fc5e                	sd	s7,56(sp)
   11f44:	f466                	sd	s9,40(sp)
   11f46:	f06a                	sd	s10,32(sp)
   11f48:	ec6e                	sd	s11,24(sp)
   11f4a:	8b2a                	mv	s6,a0
   11f4c:	6a500493          	li	s1,1701
   11f50:	4a81                	li	s5,0
   11f52:	4a09                	li	s4,2
   11f54:	e03e                	sd	a5,0(sp)
   11f56:	ae0c0c13          	addi	s8,s8,-1312 # 2dae0 <pqcrystals_kyber512_ref_zetas>
   11f5a:	4781                	li	a5,0
   11f5c:	fffa0b9b          	addiw	s7,s4,-1
   11f60:	014789bb          	addw	s3,a5,s4
   11f64:	1b82                	slli	s7,s7,0x20
   11f66:	001a891b          	addiw	s2,s5,1
   11f6a:	874e                	mv	a4,s3
   11f6c:	020bdb93          	srli	s7,s7,0x20
   11f70:	8aca                	mv	s5,s2
   11f72:	0ae7f063          	bgeu	a5,a4,12012 <pqcrystals_kyber512_ref_invntt_without_post_process+0xf0>
   11f76:	1782                	slli	a5,a5,0x20
   11f78:	9381                	srli	a5,a5,0x20
   11f7a:	00fb8433          	add	s0,s7,a5
   11f7e:	0786                	slli	a5,a5,0x1
   11f80:	00fb0cb3          	add	s9,s6,a5
   11f84:	6782                	ld	a5,0(sp)
   11f86:	02099693          	slli	a3,s3,0x20
   11f8a:	01f6d713          	srli	a4,a3,0x1f
   11f8e:	0406                	slli	s0,s0,0x1
   11f90:	2481                	sext.w	s1,s1
   11f92:	00eb0db3          	add	s11,s6,a4
   11f96:	943e                	add	s0,s0,a5
   11f98:	000dd683          	lhu	a3,0(s11)
   11f9c:	000cd503          	lhu	a0,0(s9)
   11fa0:	0d89                	addi	s11,s11,2
   11fa2:	0c89                	addi	s9,s9,2
   11fa4:	9d35                	addw	a0,a0,a3
   11fa6:	0105151b          	slliw	a0,a0,0x10
   11faa:	4105551b          	sraiw	a0,a0,0x10
   11fae:	63f000ef          	jal	ra,12dec <pqcrystals_kyber512_ref_barrett_reduce>
   11fb2:	ffedd603          	lhu	a2,-2(s11)
   11fb6:	ffecd683          	lhu	a3,-2(s9)
   11fba:	9e91                	subw	a3,a3,a2
   11fbc:	01069d1b          	slliw	s10,a3,0x10
   11fc0:	410d5d1b          	sraiw	s10,s10,0x10
   11fc4:	675000ef          	jal	ra,12e38 <pqcrystals_kyber512_ref_mod_div2>
   11fc8:	feac9f23          	sh	a0,-2(s9)
   11fcc:	856a                	mv	a0,s10
   11fce:	66b000ef          	jal	ra,12e38 <pqcrystals_kyber512_ref_mod_div2>
   11fd2:	86aa                	mv	a3,a0
   11fd4:	0295053b          	mulw	a0,a0,s1
   11fd8:	fedd9f23          	sh	a3,-2(s11)
   11fdc:	5e5000ef          	jal	ra,12dc0 <pqcrystals_kyber512_ref_montgomery_reduce>
   11fe0:	fead9f23          	sh	a0,-2(s11)
   11fe4:	fb941ae3          	bne	s0,s9,11f98 <pqcrystals_kyber512_ref_invntt_without_post_process+0x76>
   11fe8:	014987bb          	addw	a5,s3,s4
   11fec:	0ff00713          	li	a4,255
   11ff0:	02f76363          	bltu	a4,a5,12016 <pqcrystals_kyber512_ref_invntt_without_post_process+0xf4>
   11ff4:	02091713          	slli	a4,s2,0x20
   11ff8:	01f75913          	srli	s2,a4,0x1f
   11ffc:	9962                	add	s2,s2,s8
   11ffe:	014789bb          	addw	s3,a5,s4
   12002:	10091483          	lh	s1,256(s2)
   12006:	874e                	mv	a4,s3
   12008:	001a891b          	addiw	s2,s5,1
   1200c:	8aca                	mv	s5,s2
   1200e:	f6e7e4e3          	bltu	a5,a4,11f76 <pqcrystals_kyber512_ref_invntt_without_post_process+0x54>
   12012:	87ba                	mv	a5,a4
   12014:	b7c5                	j	11ff4 <pqcrystals_kyber512_ref_invntt_without_post_process+0xd2>
   12016:	67a2                	ld	a5,8(sp)
   12018:	001a1a1b          	slliw	s4,s4,0x1
   1201c:	37fd                	addiw	a5,a5,-1
   1201e:	e43e                	sd	a5,8(sp)
   12020:	cb89                	beqz	a5,12032 <pqcrystals_kyber512_ref_invntt_without_post_process+0x110>
   12022:	020a9713          	slli	a4,s5,0x20
   12026:	01f75793          	srli	a5,a4,0x1f
   1202a:	97e2                	add	a5,a5,s8
   1202c:	10079483          	lh	s1,256(a5)
   12030:	b72d                	j	11f5a <pqcrystals_kyber512_ref_invntt_without_post_process+0x38>
   12032:	70e6                	ld	ra,120(sp)
   12034:	7446                	ld	s0,112(sp)
   12036:	74a6                	ld	s1,104(sp)
   12038:	7906                	ld	s2,96(sp)
   1203a:	69e6                	ld	s3,88(sp)
   1203c:	6a46                	ld	s4,80(sp)
   1203e:	6aa6                	ld	s5,72(sp)
   12040:	6b06                	ld	s6,64(sp)
   12042:	7be2                	ld	s7,56(sp)
   12044:	7c42                	ld	s8,48(sp)
   12046:	7ca2                	ld	s9,40(sp)
   12048:	7d02                	ld	s10,32(sp)
   1204a:	6de2                	ld	s11,24(sp)
   1204c:	6109                	addi	sp,sp,128
   1204e:	8082                	ret

0000000000012050 <pqcrystals_kyber512_ref_basemul>:
   12050:	00261783          	lh	a5,2(a2)
   12054:	00259703          	lh	a4,2(a1)
   12058:	7179                	addi	sp,sp,-48
   1205a:	f022                	sd	s0,32(sp)
   1205c:	842a                	mv	s0,a0
   1205e:	02f7053b          	mulw	a0,a4,a5
   12062:	f406                	sd	ra,40(sp)
   12064:	ec26                	sd	s1,24(sp)
   12066:	e84a                	sd	s2,16(sp)
   12068:	e44e                	sd	s3,8(sp)
   1206a:	892e                	mv	s2,a1
   1206c:	84b2                	mv	s1,a2
   1206e:	89b6                	mv	s3,a3
   12070:	551000ef          	jal	ra,12dc0 <pqcrystals_kyber512_ref_montgomery_reduce>
   12074:	87aa                	mv	a5,a0
   12076:	0335053b          	mulw	a0,a0,s3
   1207a:	00f41023          	sh	a5,0(s0)
   1207e:	543000ef          	jal	ra,12dc0 <pqcrystals_kyber512_ref_montgomery_reduce>
   12082:	00a41023          	sh	a0,0(s0)
   12086:	00049783          	lh	a5,0(s1)
   1208a:	00091503          	lh	a0,0(s2)
   1208e:	02f5053b          	mulw	a0,a0,a5
   12092:	52f000ef          	jal	ra,12dc0 <pqcrystals_kyber512_ref_montgomery_reduce>
   12096:	00045783          	lhu	a5,0(s0)
   1209a:	9fa9                	addw	a5,a5,a0
   1209c:	00f41023          	sh	a5,0(s0)
   120a0:	00249783          	lh	a5,2(s1)
   120a4:	00091503          	lh	a0,0(s2)
   120a8:	02f5053b          	mulw	a0,a0,a5
   120ac:	515000ef          	jal	ra,12dc0 <pqcrystals_kyber512_ref_montgomery_reduce>
   120b0:	00a41123          	sh	a0,2(s0)
   120b4:	00049783          	lh	a5,0(s1)
   120b8:	00291503          	lh	a0,2(s2)
   120bc:	02f5053b          	mulw	a0,a0,a5
   120c0:	501000ef          	jal	ra,12dc0 <pqcrystals_kyber512_ref_montgomery_reduce>
   120c4:	00245783          	lhu	a5,2(s0)
   120c8:	70a2                	ld	ra,40(sp)
   120ca:	64e2                	ld	s1,24(sp)
   120cc:	9fa9                	addw	a5,a5,a0
   120ce:	00f41123          	sh	a5,2(s0)
   120d2:	7402                	ld	s0,32(sp)
   120d4:	6942                	ld	s2,16(sp)
   120d6:	69a2                	ld	s3,8(sp)
   120d8:	6145                	addi	sp,sp,48
   120da:	8082                	ret

00000000000120dc <copy_array>:
   120dc:	20058713          	addi	a4,a1,512
   120e0:	00059783          	lh	a5,0(a1)
   120e4:	0589                	addi	a1,a1,2
   120e6:	0509                	addi	a0,a0,2
   120e8:	fef51f23          	sh	a5,-2(a0)
   120ec:	fee59ae3          	bne	a1,a4,120e0 <copy_array+0x4>
   120f0:	8082                	ret

00000000000120f2 <pqcrystals_kyber512_ref_ntt_CG>:
   120f2:	db010113          	addi	sp,sp,-592
   120f6:	23413023          	sd	s4,544(sp)
   120fa:	20000613          	li	a2,512
   120fe:	8a2a                	mv	s4,a0
   12100:	4581                	li	a1,0
   12102:	850a                	mv	a0,sp
   12104:	24813023          	sd	s0,576(sp)
   12108:	22913c23          	sd	s1,568(sp)
   1210c:	23213823          	sd	s2,560(sp)
   12110:	23313423          	sd	s3,552(sp)
   12114:	24113423          	sd	ra,584(sp)
   12118:	21513c23          	sd	s5,536(sp)
   1211c:	21613823          	sd	s6,528(sp)
   12120:	21713423          	sd	s7,520(sp)
   12124:	26c0f0ef          	jal	ra,21390 <memset>
   12128:	6785                	lui	a5,0x1
   1212a:	0002e4b7          	lui	s1,0x2e
   1212e:	499d                	li	s3,7
   12130:	a0b78793          	addi	a5,a5,-1525 # a0b <main-0xf6a5>
   12134:	4405                	li	s0,1
   12136:	08000913          	li	s2,128
   1213a:	ae048493          	addi	s1,s1,-1312 # 2dae0 <pqcrystals_kyber512_ref_zetas>
   1213e:	8b52                	mv	s6,s4
   12140:	8a8a                	mv	s5,sp
   12142:	4b81                	li	s7,0
   12144:	a819                	j	1215a <pqcrystals_kyber512_ref_ntt_CG+0x68>
   12146:	0287f7bb          	remuw	a5,a5,s0
   1214a:	9fa1                	addw	a5,a5,s0
   1214c:	02079713          	slli	a4,a5,0x20
   12150:	01f75793          	srli	a5,a4,0x1f
   12154:	97a6                	add	a5,a5,s1
   12156:	00079783          	lh	a5,0(a5)
   1215a:	100b1503          	lh	a0,256(s6)
   1215e:	0b09                	addi	s6,s6,2
   12160:	0a91                	addi	s5,s5,4
   12162:	02f5053b          	mulw	a0,a0,a5
   12166:	2b85                	addiw	s7,s7,1
   12168:	459000ef          	jal	ra,12dc0 <pqcrystals_kyber512_ref_montgomery_reduce>
   1216c:	ffeb5703          	lhu	a4,-2(s6)
   12170:	1542                	slli	a0,a0,0x30
   12172:	9141                	srli	a0,a0,0x30
   12174:	00a706bb          	addw	a3,a4,a0
   12178:	9f09                	subw	a4,a4,a0
   1217a:	feda9e23          	sh	a3,-4(s5)
   1217e:	feea9f23          	sh	a4,-2(s5)
   12182:	87de                	mv	a5,s7
   12184:	fd2b91e3          	bne	s7,s2,12146 <pqcrystals_kyber512_ref_ntt_CG+0x54>
   12188:	20000613          	li	a2,512
   1218c:	858a                	mv	a1,sp
   1218e:	8552                	mv	a0,s4
   12190:	1400f0ef          	jal	ra,212d0 <memcpy>
   12194:	0014179b          	slliw	a5,s0,0x1
   12198:	39fd                	addiw	s3,s3,-1
   1219a:	843e                	mv	s0,a5
   1219c:	00098863          	beqz	s3,121ac <pqcrystals_kyber512_ref_ntt_CG+0xba>
   121a0:	1782                	slli	a5,a5,0x20
   121a2:	83fd                	srli	a5,a5,0x1f
   121a4:	97a6                	add	a5,a5,s1
   121a6:	00079783          	lh	a5,0(a5)
   121aa:	bf51                	j	1213e <pqcrystals_kyber512_ref_ntt_CG+0x4c>
   121ac:	24813083          	ld	ra,584(sp)
   121b0:	24013403          	ld	s0,576(sp)
   121b4:	23813483          	ld	s1,568(sp)
   121b8:	23013903          	ld	s2,560(sp)
   121bc:	22813983          	ld	s3,552(sp)
   121c0:	22013a03          	ld	s4,544(sp)
   121c4:	21813a83          	ld	s5,536(sp)
   121c8:	21013b03          	ld	s6,528(sp)
   121cc:	20813b83          	ld	s7,520(sp)
   121d0:	25010113          	addi	sp,sp,592
   121d4:	8082                	ret

00000000000121d6 <pqcrystals_kyber512_ref_bitreverse_to_standard_all>:
   121d6:	df010113          	addi	sp,sp,-528
   121da:	20813023          	sd	s0,512(sp)
   121de:	20000613          	li	a2,512
   121e2:	842a                	mv	s0,a0
   121e4:	4581                	li	a1,0
   121e6:	850a                	mv	a0,sp
   121e8:	20113423          	sd	ra,520(sp)
   121ec:	1a40f0ef          	jal	ra,21390 <memset>
   121f0:	0002e8b7          	lui	a7,0x2e
   121f4:	85a2                	mv	a1,s0
   121f6:	4681                	li	a3,0
   121f8:	4601                	li	a2,0
   121fa:	10000313          	li	t1,256
   121fe:	ae088893          	addi	a7,a7,-1312 # 2dae0 <pqcrystals_kyber512_ref_zetas>
   12202:	a019                	j	12208 <pqcrystals_kyber512_ref_bitreverse_to_standard_all+0x32>
   12204:	20075683          	lhu	a3,512(a4)
   12208:	0016071b          	addiw	a4,a2,1
   1220c:	0017579b          	srliw	a5,a4,0x1
   12210:	0786                	slli	a5,a5,0x1
   12212:	00167813          	andi	a6,a2,1
   12216:	863a                	mv	a2,a4
   12218:	00f88733          	add	a4,a7,a5
   1221c:	00169793          	slli	a5,a3,0x1
   12220:	0016969b          	slliw	a3,a3,0x1
   12224:	00080463          	beqz	a6,1222c <pqcrystals_kyber512_ref_bitreverse_to_standard_all+0x56>
   12228:	0016879b          	addiw	a5,a3,1
   1222c:	0005d683          	lhu	a3,0(a1)
   12230:	02079513          	slli	a0,a5,0x20
   12234:	01f55793          	srli	a5,a0,0x1f
   12238:	0408                	addi	a0,sp,512
   1223a:	97aa                	add	a5,a5,a0
   1223c:	e0d79023          	sh	a3,-512(a5)
   12240:	0589                	addi	a1,a1,2
   12242:	fc6611e3          	bne	a2,t1,12204 <pqcrystals_kyber512_ref_bitreverse_to_standard_all+0x2e>
   12246:	858a                	mv	a1,sp
   12248:	8522                	mv	a0,s0
   1224a:	20000613          	li	a2,512
   1224e:	0820f0ef          	jal	ra,212d0 <memcpy>
   12252:	20813083          	ld	ra,520(sp)
   12256:	20013403          	ld	s0,512(sp)
   1225a:	21010113          	addi	sp,sp,528
   1225e:	8082                	ret

0000000000012260 <pqcrystals_kyber512_ref_bitreverse_cg_to_standard_all>:
   12260:	df010113          	addi	sp,sp,-528
   12264:	20813023          	sd	s0,512(sp)
   12268:	20000613          	li	a2,512
   1226c:	842a                	mv	s0,a0
   1226e:	4581                	li	a1,0
   12270:	850a                	mv	a0,sp
   12272:	20113423          	sd	ra,520(sp)
   12276:	11a0f0ef          	jal	ra,21390 <memset>
   1227a:	0002e837          	lui	a6,0x2e
   1227e:	ae080813          	addi	a6,a6,-1312 # 2dae0 <pqcrystals_kyber512_ref_zetas>
   12282:	20080613          	addi	a2,a6,512
   12286:	86a2                	mv	a3,s0
   12288:	4701                	li	a4,0
   1228a:	07f00893          	li	a7,127
   1228e:	10000313          	li	t1,256
   12292:	a829                	j	122ac <pqcrystals_kyber512_ref_bitreverse_cg_to_standard_all+0x4c>
   12294:	00065783          	lhu	a5,0(a2)
   12298:	0006d703          	lhu	a4,0(a3)
   1229c:	0408                	addi	a0,sp,512
   1229e:	078a                	slli	a5,a5,0x2
   122a0:	97aa                	add	a5,a5,a0
   122a2:	e0e79023          	sh	a4,-512(a5)
   122a6:	0609                	addi	a2,a2,2
   122a8:	0689                	addi	a3,a3,2
   122aa:	872e                	mv	a4,a1
   122ac:	f807079b          	addiw	a5,a4,-128
   122b0:	02079593          	slli	a1,a5,0x20
   122b4:	01f5d793          	srli	a5,a1,0x1f
   122b8:	97c2                	add	a5,a5,a6
   122ba:	0017059b          	addiw	a1,a4,1
   122be:	fce8fbe3          	bgeu	a7,a4,12294 <pqcrystals_kyber512_ref_bitreverse_cg_to_standard_all+0x34>
   122c2:	2007d783          	lhu	a5,512(a5)
   122c6:	0006d703          	lhu	a4,0(a3)
   122ca:	0408                	addi	a0,sp,512
   122cc:	0017979b          	slliw	a5,a5,0x1
   122d0:	2785                	addiw	a5,a5,1
   122d2:	1782                	slli	a5,a5,0x20
   122d4:	83fd                	srli	a5,a5,0x1f
   122d6:	97aa                	add	a5,a5,a0
   122d8:	e0e79023          	sh	a4,-512(a5)
   122dc:	fc6595e3          	bne	a1,t1,122a6 <pqcrystals_kyber512_ref_bitreverse_cg_to_standard_all+0x46>
   122e0:	858a                	mv	a1,sp
   122e2:	8522                	mv	a0,s0
   122e4:	20000613          	li	a2,512
   122e8:	7e90e0ef          	jal	ra,212d0 <memcpy>
   122ec:	20813083          	ld	ra,520(sp)
   122f0:	20013403          	ld	s0,512(sp)
   122f4:	21010113          	addi	sp,sp,528
   122f8:	8082                	ret

00000000000122fa <pqcrystals_kyber512_ref_standard_to_bitreverse_all>:
   122fa:	df010113          	addi	sp,sp,-528
   122fe:	20813023          	sd	s0,512(sp)
   12302:	4581                	li	a1,0
   12304:	842a                	mv	s0,a0
   12306:	20000613          	li	a2,512
   1230a:	850a                	mv	a0,sp
   1230c:	20113423          	sd	ra,520(sp)
   12310:	0800f0ef          	jal	ra,21390 <memset>
   12314:	0002e837          	lui	a6,0x2e
   12318:	85a2                	mv	a1,s0
   1231a:	4781                	li	a5,0
   1231c:	4681                	li	a3,0
   1231e:	10000893          	li	a7,256
   12322:	ae080813          	addi	a6,a6,-1312 # 2dae0 <pqcrystals_kyber512_ref_zetas>
   12326:	a839                	j	12344 <pqcrystals_kyber512_ref_standard_to_bitreverse_all+0x4a>
   12328:	0005d703          	lhu	a4,0(a1)
   1232c:	2685                	addiw	a3,a3,1
   1232e:	0589                	addi	a1,a1,2
   12330:	e0e79023          	sh	a4,-512(a5)
   12334:	05168063          	beq	a3,a7,12374 <pqcrystals_kyber512_ref_standard_to_bitreverse_all+0x7a>
   12338:	0016d79b          	srliw	a5,a3,0x1
   1233c:	0786                	slli	a5,a5,0x1
   1233e:	97c2                	add	a5,a5,a6
   12340:	2007d783          	lhu	a5,512(a5)
   12344:	0017979b          	slliw	a5,a5,0x1
   12348:	0017871b          	addiw	a4,a5,1
   1234c:	1702                	slli	a4,a4,0x20
   1234e:	1782                	slli	a5,a5,0x20
   12350:	9381                	srli	a5,a5,0x20
   12352:	9301                	srli	a4,a4,0x20
   12354:	0408                	addi	a0,sp,512
   12356:	0786                	slli	a5,a5,0x1
   12358:	0706                	slli	a4,a4,0x1
   1235a:	0016f613          	andi	a2,a3,1
   1235e:	97aa                	add	a5,a5,a0
   12360:	972a                	add	a4,a4,a0
   12362:	d279                	beqz	a2,12328 <pqcrystals_kyber512_ref_standard_to_bitreverse_all+0x2e>
   12364:	0005d783          	lhu	a5,0(a1)
   12368:	2685                	addiw	a3,a3,1
   1236a:	0589                	addi	a1,a1,2
   1236c:	e0f71023          	sh	a5,-512(a4)
   12370:	fd1694e3          	bne	a3,a7,12338 <pqcrystals_kyber512_ref_standard_to_bitreverse_all+0x3e>
   12374:	858a                	mv	a1,sp
   12376:	8522                	mv	a0,s0
   12378:	20000613          	li	a2,512
   1237c:	7550e0ef          	jal	ra,212d0 <memcpy>
   12380:	20813083          	ld	ra,520(sp)
   12384:	20013403          	ld	s0,512(sp)
   12388:	21010113          	addi	sp,sp,528
   1238c:	8082                	ret

000000000001238e <pqcrystals_kyber512_ref_invntt_CG>:
   1238e:	d6010113          	addi	sp,sp,-672
   12392:	27413823          	sd	s4,624(sp)
   12396:	20000613          	li	a2,512
   1239a:	8a2a                	mv	s4,a0
   1239c:	4581                	li	a1,0
   1239e:	1808                	addi	a0,sp,48
   123a0:	27513423          	sd	s5,616(sp)
   123a4:	25913423          	sd	s9,584(sp)
   123a8:	28113c23          	sd	ra,664(sp)
   123ac:	28813823          	sd	s0,656(sp)
   123b0:	28913423          	sd	s1,648(sp)
   123b4:	29213023          	sd	s2,640(sp)
   123b8:	27313c23          	sd	s3,632(sp)
   123bc:	27613023          	sd	s6,608(sp)
   123c0:	25713c23          	sd	s7,600(sp)
   123c4:	25813823          	sd	s8,592(sp)
   123c8:	25a13023          	sd	s10,576(sp)
   123cc:	23b13c23          	sd	s11,568(sp)
   123d0:	7c10e0ef          	jal	ra,21390 <memset>
   123d4:	479d                	li	a5,7
   123d6:	f03e                	sd	a5,32(sp)
   123d8:	0002ecb7          	lui	s9,0x2e
   123dc:	4789                	li	a5,2
   123de:	ec3e                	sd	a5,24(sp)
   123e0:	ae0c8793          	addi	a5,s9,-1312 # 2dae0 <pqcrystals_kyber512_ref_zetas>
   123e4:	4a81                	li	s5,0
   123e6:	e83e                	sd	a5,16(sp)
   123e8:	6762                	ld	a4,24(sp)
   123ea:	10000693          	li	a3,256
   123ee:	0017179b          	slliw	a5,a4,0x1
   123f2:	02f6d6bb          	divuw	a3,a3,a5
   123f6:	00070b1b          	sext.w	s6,a4
   123fa:	ec3e                	sd	a5,24(sp)
   123fc:	10000713          	li	a4,256
   12400:	d636                	sw	a3,44(sp)
   12402:	e036                	sd	a3,0(sp)
   12404:	0ef76363          	bltu	a4,a5,124ea <pqcrystals_kyber512_ref_invntt_CG+0x15c>
   12408:	020b1793          	slli	a5,s6,0x20
   1240c:	9381                	srli	a5,a5,0x20
   1240e:	4901                	li	s2,0
   12410:	4981                	li	s3,0
   12412:	e43e                	sd	a5,8(sp)
   12414:	66c2                	ld	a3,16(sp)
   12416:	015987bb          	addw	a5,s3,s5
   1241a:	02079713          	slli	a4,a5,0x20
   1241e:	6622                	ld	a2,8(sp)
   12420:	01f75793          	srli	a5,a4,0x1f
   12424:	02091713          	slli	a4,s2,0x20
   12428:	97b6                	add	a5,a5,a3
   1242a:	9301                	srli	a4,a4,0x20
   1242c:	0809069b          	addiw	a3,s2,128
   12430:	00e60433          	add	s0,a2,a4
   12434:	30079483          	lh	s1,768(a5)
   12438:	02069793          	slli	a5,a3,0x20
   1243c:	0706                	slli	a4,a4,0x1
   1243e:	01f7d693          	srli	a3,a5,0x1f
   12442:	0406                	slli	s0,s0,0x1
   12444:	00191d9b          	slliw	s11,s2,0x1
   12448:	00ea0cb3          	add	s9,s4,a4
   1244c:	00da0d33          	add	s10,s4,a3
   12450:	9452                	add	s0,s0,s4
   12452:	000d5783          	lhu	a5,0(s10)
   12456:	000cd503          	lhu	a0,0(s9)
   1245a:	0d09                	addi	s10,s10,2
   1245c:	0c89                	addi	s9,s9,2
   1245e:	9d3d                	addw	a0,a0,a5
   12460:	0105151b          	slliw	a0,a0,0x10
   12464:	4105551b          	sraiw	a0,a0,0x10
   12468:	1ed000ef          	jal	ra,12e54 <pqcrystals_kyber512_ref_central_reduce_oneQ>
   1246c:	ffecd583          	lhu	a1,-2(s9)
   12470:	ffed5803          	lhu	a6,-2(s10)
   12474:	8baa                	mv	s7,a0
   12476:	4105853b          	subw	a0,a1,a6
   1247a:	0105151b          	slliw	a0,a0,0x10
   1247e:	4105551b          	sraiw	a0,a0,0x10
   12482:	1d3000ef          	jal	ra,12e54 <pqcrystals_kyber512_ref_central_reduce_oneQ>
   12486:	8c2a                	mv	s8,a0
   12488:	855e                	mv	a0,s7
   1248a:	1af000ef          	jal	ra,12e38 <pqcrystals_kyber512_ref_mod_div2>
   1248e:	020d9713          	slli	a4,s11,0x20
   12492:	01f75793          	srli	a5,a4,0x1f
   12496:	1c18                	addi	a4,sp,560
   12498:	97ba                	add	a5,a5,a4
   1249a:	882a                	mv	a6,a0
   1249c:	e1079023          	sh	a6,-512(a5)
   124a0:	8562                	mv	a0,s8
   124a2:	197000ef          	jal	ra,12e38 <pqcrystals_kyber512_ref_mod_div2>
   124a6:	0295053b          	mulw	a0,a0,s1
   124aa:	117000ef          	jal	ra,12dc0 <pqcrystals_kyber512_ref_montgomery_reduce>
   124ae:	001d879b          	addiw	a5,s11,1
   124b2:	02079713          	slli	a4,a5,0x20
   124b6:	01f75793          	srli	a5,a4,0x1f
   124ba:	1c18                	addi	a4,sp,560
   124bc:	97ba                	add	a5,a5,a4
   124be:	e0a79023          	sh	a0,-512(a5)
   124c2:	2d89                	addiw	s11,s11,2
   124c4:	f88c97e3          	bne	s9,s0,12452 <pqcrystals_kyber512_ref_invntt_CG+0xc4>
   124c8:	6782                	ld	a5,0(sp)
   124ca:	2985                	addiw	s3,s3,1
   124cc:	012b093b          	addw	s2,s6,s2
   124d0:	f4f9e2e3          	bltu	s3,a5,12414 <pqcrystals_kyber512_ref_invntt_CG+0x86>
   124d4:	6762                	ld	a4,24(sp)
   124d6:	10000693          	li	a3,256
   124da:	2a85                	addiw	s5,s5,1
   124dc:	4781                	li	a5,0
   124de:	00e6e463          	bltu	a3,a4,124e6 <pqcrystals_kyber512_ref_invntt_CG+0x158>
   124e2:	57b2                	lw	a5,44(sp)
   124e4:	37fd                	addiw	a5,a5,-1
   124e6:	01578abb          	addw	s5,a5,s5
   124ea:	7782                	ld	a5,32(sp)
   124ec:	20000613          	li	a2,512
   124f0:	180c                	addi	a1,sp,48
   124f2:	37fd                	addiw	a5,a5,-1
   124f4:	843e                	mv	s0,a5
   124f6:	8552                	mv	a0,s4
   124f8:	f03e                	sd	a5,32(sp)
   124fa:	5d70e0ef          	jal	ra,212d0 <memcpy>
   124fe:	ee0415e3          	bnez	s0,123e8 <pqcrystals_kyber512_ref_invntt_CG+0x5a>
   12502:	29813083          	ld	ra,664(sp)
   12506:	29013403          	ld	s0,656(sp)
   1250a:	28813483          	ld	s1,648(sp)
   1250e:	28013903          	ld	s2,640(sp)
   12512:	27813983          	ld	s3,632(sp)
   12516:	27013a03          	ld	s4,624(sp)
   1251a:	26813a83          	ld	s5,616(sp)
   1251e:	26013b03          	ld	s6,608(sp)
   12522:	25813b83          	ld	s7,600(sp)
   12526:	25013c03          	ld	s8,592(sp)
   1252a:	24813c83          	ld	s9,584(sp)
   1252e:	24013d03          	ld	s10,576(sp)
   12532:	23813d83          	ld	s11,568(sp)
   12536:	2a010113          	addi	sp,sp,672
   1253a:	8082                	ret

000000000001253c <pqcrystals_kyber512_ref_poly_compress>:
   1253c:	7179                	addi	sp,sp,-48
   1253e:	f022                	sd	s0,32(sp)
   12540:	ec26                	sd	s1,24(sp)
   12542:	e84a                	sd	s2,16(sp)
   12544:	e44e                	sd	s3,8(sp)
   12546:	f406                	sd	ra,40(sp)
   12548:	84ae                	mv	s1,a1
   1254a:	892a                	mv	s2,a0
   1254c:	20058993          	addi	s3,a1,512
   12550:	842e                	mv	s0,a1
   12552:	00041503          	lh	a0,0(s0)
   12556:	0409                	addi	s0,s0,2
   12558:	0b9000ef          	jal	ra,12e10 <pqcrystals_kyber512_ref_csubq>
   1255c:	fea41f23          	sh	a0,-2(s0)
   12560:	fe8999e3          	bne	s3,s0,12552 <pqcrystals_kyber512_ref_poly_compress+0x16>
   12564:	6585                	lui	a1,0x1
   12566:	08090513          	addi	a0,s2,128
   1256a:	d015859b          	addiw	a1,a1,-767
   1256e:	0064d303          	lhu	t1,6(s1)
   12572:	0044d883          	lhu	a7,4(s1)
   12576:	00a4d803          	lhu	a6,10(s1)
   1257a:	0043131b          	slliw	t1,t1,0x4
   1257e:	0048989b          	slliw	a7,a7,0x4
   12582:	6803031b          	addiw	t1,t1,1664
   12586:	02b3433b          	divw	t1,t1,a1
   1258a:	6808889b          	addiw	a7,a7,1664
   1258e:	0084d603          	lhu	a2,8(s1)
   12592:	00e4d683          	lhu	a3,14(s1)
   12596:	0024d703          	lhu	a4,2(s1)
   1259a:	00c4de03          	lhu	t3,12(s1)
   1259e:	0004d783          	lhu	a5,0(s1)
   125a2:	0048181b          	slliw	a6,a6,0x4
   125a6:	0046161b          	slliw	a2,a2,0x4
   125aa:	6808081b          	addiw	a6,a6,1664
   125ae:	0046969b          	slliw	a3,a3,0x4
   125b2:	0047171b          	slliw	a4,a4,0x4
   125b6:	6806061b          	addiw	a2,a2,1664
   125ba:	004e1e1b          	slliw	t3,t3,0x4
   125be:	6806869b          	addiw	a3,a3,1664
   125c2:	6807071b          	addiw	a4,a4,1664
   125c6:	0047979b          	slliw	a5,a5,0x4
   125ca:	0911                	addi	s2,s2,4
   125cc:	680e0e1b          	addiw	t3,t3,1664
   125d0:	6807879b          	addiw	a5,a5,1664
   125d4:	04c1                	addi	s1,s1,16
   125d6:	02b8c8bb          	divw	a7,a7,a1
   125da:	00f37313          	andi	t1,t1,15
   125de:	0043131b          	slliw	t1,t1,0x4
   125e2:	02b8483b          	divw	a6,a6,a1
   125e6:	00f8f893          	andi	a7,a7,15
   125ea:	0068e8b3          	or	a7,a7,t1
   125ee:	ff190ea3          	sb	a7,-3(s2)
   125f2:	02b6463b          	divw	a2,a2,a1
   125f6:	00f87813          	andi	a6,a6,15
   125fa:	0048181b          	slliw	a6,a6,0x4
   125fe:	02b6c6bb          	divw	a3,a3,a1
   12602:	8a3d                	andi	a2,a2,15
   12604:	01066633          	or	a2,a2,a6
   12608:	fec90f23          	sb	a2,-2(s2)
   1260c:	02b7473b          	divw	a4,a4,a1
   12610:	8abd                	andi	a3,a3,15
   12612:	0046969b          	slliw	a3,a3,0x4
   12616:	02be48bb          	divw	a7,t3,a1
   1261a:	8b3d                	andi	a4,a4,15
   1261c:	0047171b          	slliw	a4,a4,0x4
   12620:	02b7c7bb          	divw	a5,a5,a1
   12624:	00f8f613          	andi	a2,a7,15
   12628:	8ed1                	or	a3,a3,a2
   1262a:	fed90fa3          	sb	a3,-1(s2)
   1262e:	8bbd                	andi	a5,a5,15
   12630:	8f5d                	or	a4,a4,a5
   12632:	fee90e23          	sb	a4,-4(s2)
   12636:	f2a91ce3          	bne	s2,a0,1256e <pqcrystals_kyber512_ref_poly_compress+0x32>
   1263a:	70a2                	ld	ra,40(sp)
   1263c:	7402                	ld	s0,32(sp)
   1263e:	64e2                	ld	s1,24(sp)
   12640:	6942                	ld	s2,16(sp)
   12642:	69a2                	ld	s3,8(sp)
   12644:	6145                	addi	sp,sp,48
   12646:	8082                	ret

0000000000012648 <pqcrystals_kyber512_ref_poly_decompress>:
   12648:	6705                	lui	a4,0x1
   1264a:	08058693          	addi	a3,a1,128 # 1080 <main-0xf030>
   1264e:	d017071b          	addiw	a4,a4,-767
   12652:	0005c783          	lbu	a5,0(a1)
   12656:	0511                	addi	a0,a0,4
   12658:	0585                	addi	a1,a1,1
   1265a:	8bbd                	andi	a5,a5,15
   1265c:	02e787bb          	mulw	a5,a5,a4
   12660:	27a1                	addiw	a5,a5,8
   12662:	4047d79b          	sraiw	a5,a5,0x4
   12666:	fef51e23          	sh	a5,-4(a0)
   1266a:	fff5c783          	lbu	a5,-1(a1)
   1266e:	0047d79b          	srliw	a5,a5,0x4
   12672:	02e787bb          	mulw	a5,a5,a4
   12676:	27a1                	addiw	a5,a5,8
   12678:	4047d79b          	sraiw	a5,a5,0x4
   1267c:	fef51f23          	sh	a5,-2(a0)
   12680:	fcd599e3          	bne	a1,a3,12652 <pqcrystals_kyber512_ref_poly_decompress+0xa>
   12684:	8082                	ret

0000000000012686 <pqcrystals_kyber512_ref_poly_tobytes>:
   12686:	18050813          	addi	a6,a0,384
   1268a:	00059683          	lh	a3,0(a1)
   1268e:	0025d703          	lhu	a4,2(a1)
   12692:	050d                	addi	a0,a0,3
   12694:	0106979b          	slliw	a5,a3,0x10
   12698:	0107d79b          	srliw	a5,a5,0x10
   1269c:	0047161b          	slliw	a2,a4,0x4
   126a0:	0087d79b          	srliw	a5,a5,0x8
   126a4:	8fd1                	or	a5,a5,a2
   126a6:	0047571b          	srliw	a4,a4,0x4
   126aa:	fef50f23          	sb	a5,-2(a0)
   126ae:	fee50fa3          	sb	a4,-1(a0)
   126b2:	fed50ea3          	sb	a3,-3(a0)
   126b6:	0591                	addi	a1,a1,4
   126b8:	fca819e3          	bne	a6,a0,1268a <pqcrystals_kyber512_ref_poly_tobytes+0x4>
   126bc:	8082                	ret

00000000000126be <pqcrystals_kyber512_ref_poly_frombytes>:
   126be:	6685                	lui	a3,0x1
   126c0:	18058613          	addi	a2,a1,384
   126c4:	16fd                	addi	a3,a3,-1
   126c6:	0015c783          	lbu	a5,1(a1)
   126ca:	0005c703          	lbu	a4,0(a1)
   126ce:	058d                	addi	a1,a1,3
   126d0:	0087979b          	slliw	a5,a5,0x8
   126d4:	8fd9                	or	a5,a5,a4
   126d6:	8ff5                	and	a5,a5,a3
   126d8:	00f51023          	sh	a5,0(a0)
   126dc:	ffe5c783          	lbu	a5,-2(a1)
   126e0:	fff5c703          	lbu	a4,-1(a1)
   126e4:	0511                	addi	a0,a0,4
   126e6:	8391                	srli	a5,a5,0x4
   126e8:	0047171b          	slliw	a4,a4,0x4
   126ec:	8fd9                	or	a5,a5,a4
   126ee:	fef51f23          	sh	a5,-2(a0)
   126f2:	fcb61ae3          	bne	a2,a1,126c6 <pqcrystals_kyber512_ref_poly_frombytes+0x8>
   126f6:	8082                	ret

00000000000126f8 <pqcrystals_kyber512_ref_poly_frommsg>:
   126f8:	20050713          	addi	a4,a0,512
   126fc:	0005c783          	lbu	a5,0(a1)
   12700:	0541                	addi	a0,a0,16
   12702:	0585                	addi	a1,a1,1
   12704:	8b85                	andi	a5,a5,1
   12706:	40f007bb          	negw	a5,a5
   1270a:	6817f793          	andi	a5,a5,1665
   1270e:	fef51823          	sh	a5,-16(a0)
   12712:	fff5c783          	lbu	a5,-1(a1)
   12716:	4017d79b          	sraiw	a5,a5,0x1
   1271a:	8b85                	andi	a5,a5,1
   1271c:	40f007bb          	negw	a5,a5
   12720:	6817f793          	andi	a5,a5,1665
   12724:	fef51923          	sh	a5,-14(a0)
   12728:	fff5c783          	lbu	a5,-1(a1)
   1272c:	4027d79b          	sraiw	a5,a5,0x2
   12730:	8b85                	andi	a5,a5,1
   12732:	40f007bb          	negw	a5,a5
   12736:	6817f793          	andi	a5,a5,1665
   1273a:	fef51a23          	sh	a5,-12(a0)
   1273e:	fff5c783          	lbu	a5,-1(a1)
   12742:	4037d79b          	sraiw	a5,a5,0x3
   12746:	8b85                	andi	a5,a5,1
   12748:	40f007bb          	negw	a5,a5
   1274c:	6817f793          	andi	a5,a5,1665
   12750:	fef51b23          	sh	a5,-10(a0)
   12754:	fff5c783          	lbu	a5,-1(a1)
   12758:	4047d79b          	sraiw	a5,a5,0x4
   1275c:	8b85                	andi	a5,a5,1
   1275e:	40f007bb          	negw	a5,a5
   12762:	6817f793          	andi	a5,a5,1665
   12766:	fef51c23          	sh	a5,-8(a0)
   1276a:	fff5c783          	lbu	a5,-1(a1)
   1276e:	4057d79b          	sraiw	a5,a5,0x5
   12772:	8b85                	andi	a5,a5,1
   12774:	40f007bb          	negw	a5,a5
   12778:	6817f793          	andi	a5,a5,1665
   1277c:	fef51d23          	sh	a5,-6(a0)
   12780:	fff5c783          	lbu	a5,-1(a1)
   12784:	4067d79b          	sraiw	a5,a5,0x6
   12788:	8b85                	andi	a5,a5,1
   1278a:	40f007bb          	negw	a5,a5
   1278e:	6817f793          	andi	a5,a5,1665
   12792:	fef51e23          	sh	a5,-4(a0)
   12796:	fff5c783          	lbu	a5,-1(a1)
   1279a:	4077d79b          	sraiw	a5,a5,0x7
   1279e:	40f007bb          	negw	a5,a5
   127a2:	6817f793          	andi	a5,a5,1665
   127a6:	fef51f23          	sh	a5,-2(a0)
   127aa:	f4a719e3          	bne	a4,a0,126fc <pqcrystals_kyber512_ref_poly_frommsg+0x4>
   127ae:	8082                	ret

00000000000127b0 <pqcrystals_kyber512_ref_poly_tomsg>:
   127b0:	7179                	addi	sp,sp,-48
   127b2:	f022                	sd	s0,32(sp)
   127b4:	ec26                	sd	s1,24(sp)
   127b6:	e84a                	sd	s2,16(sp)
   127b8:	e44e                	sd	s3,8(sp)
   127ba:	f406                	sd	ra,40(sp)
   127bc:	892e                	mv	s2,a1
   127be:	89aa                	mv	s3,a0
   127c0:	20058413          	addi	s0,a1,512
   127c4:	84ae                	mv	s1,a1
   127c6:	00049503          	lh	a0,0(s1)
   127ca:	0489                	addi	s1,s1,2
   127cc:	644000ef          	jal	ra,12e10 <pqcrystals_kyber512_ref_csubq>
   127d0:	fea49f23          	sh	a0,-2(s1)
   127d4:	fe8499e3          	bne	s1,s0,127c6 <pqcrystals_kyber512_ref_poly_tomsg+0x16>
   127d8:	6605                	lui	a2,0x1
   127da:	86ce                	mv	a3,s3
   127dc:	d016061b          	addiw	a2,a2,-767
   127e0:	00068023          	sb	zero,0(a3) # 1000 <main-0xf0b0>
   127e4:	00095783          	lhu	a5,0(s2)
   127e8:	0685                	addi	a3,a3,1
   127ea:	0941                	addi	s2,s2,16
   127ec:	0017979b          	slliw	a5,a5,0x1
   127f0:	6807879b          	addiw	a5,a5,1664
   127f4:	02c7c7bb          	divw	a5,a5,a2
   127f8:	8b85                	andi	a5,a5,1
   127fa:	fef68fa3          	sb	a5,-1(a3)
   127fe:	ff295703          	lhu	a4,-14(s2)
   12802:	0017171b          	slliw	a4,a4,0x1
   12806:	6807071b          	addiw	a4,a4,1664
   1280a:	02c7473b          	divw	a4,a4,a2
   1280e:	8b05                	andi	a4,a4,1
   12810:	0017171b          	slliw	a4,a4,0x1
   12814:	8fd9                	or	a5,a5,a4
   12816:	0187979b          	slliw	a5,a5,0x18
   1281a:	4187d79b          	sraiw	a5,a5,0x18
   1281e:	fef68fa3          	sb	a5,-1(a3)
   12822:	ff495703          	lhu	a4,-12(s2)
   12826:	0017171b          	slliw	a4,a4,0x1
   1282a:	6807071b          	addiw	a4,a4,1664
   1282e:	02c7473b          	divw	a4,a4,a2
   12832:	8b05                	andi	a4,a4,1
   12834:	0027171b          	slliw	a4,a4,0x2
   12838:	8fd9                	or	a5,a5,a4
   1283a:	0187979b          	slliw	a5,a5,0x18
   1283e:	4187d79b          	sraiw	a5,a5,0x18
   12842:	fef68fa3          	sb	a5,-1(a3)
   12846:	ff695703          	lhu	a4,-10(s2)
   1284a:	0017171b          	slliw	a4,a4,0x1
   1284e:	6807071b          	addiw	a4,a4,1664
   12852:	02c7473b          	divw	a4,a4,a2
   12856:	8b05                	andi	a4,a4,1
   12858:	0037171b          	slliw	a4,a4,0x3
   1285c:	8fd9                	or	a5,a5,a4
   1285e:	0187979b          	slliw	a5,a5,0x18
   12862:	4187d79b          	sraiw	a5,a5,0x18
   12866:	fef68fa3          	sb	a5,-1(a3)
   1286a:	ff895703          	lhu	a4,-8(s2)
   1286e:	0017171b          	slliw	a4,a4,0x1
   12872:	6807071b          	addiw	a4,a4,1664
   12876:	02c7473b          	divw	a4,a4,a2
   1287a:	8b05                	andi	a4,a4,1
   1287c:	0047171b          	slliw	a4,a4,0x4
   12880:	8fd9                	or	a5,a5,a4
   12882:	0187979b          	slliw	a5,a5,0x18
   12886:	4187d79b          	sraiw	a5,a5,0x18
   1288a:	fef68fa3          	sb	a5,-1(a3)
   1288e:	ffa95703          	lhu	a4,-6(s2)
   12892:	0017171b          	slliw	a4,a4,0x1
   12896:	6807071b          	addiw	a4,a4,1664
   1289a:	02c7473b          	divw	a4,a4,a2
   1289e:	8b05                	andi	a4,a4,1
   128a0:	0057171b          	slliw	a4,a4,0x5
   128a4:	8fd9                	or	a5,a5,a4
   128a6:	0187979b          	slliw	a5,a5,0x18
   128aa:	4187d79b          	sraiw	a5,a5,0x18
   128ae:	fef68fa3          	sb	a5,-1(a3)
   128b2:	ffc95703          	lhu	a4,-4(s2)
   128b6:	0017171b          	slliw	a4,a4,0x1
   128ba:	6807071b          	addiw	a4,a4,1664
   128be:	02c7473b          	divw	a4,a4,a2
   128c2:	8b05                	andi	a4,a4,1
   128c4:	0067171b          	slliw	a4,a4,0x6
   128c8:	8fd9                	or	a5,a5,a4
   128ca:	0187979b          	slliw	a5,a5,0x18
   128ce:	4187d79b          	sraiw	a5,a5,0x18
   128d2:	fef68fa3          	sb	a5,-1(a3)
   128d6:	ffe95703          	lhu	a4,-2(s2)
   128da:	0017171b          	slliw	a4,a4,0x1
   128de:	6807071b          	addiw	a4,a4,1664
   128e2:	02c7473b          	divw	a4,a4,a2
   128e6:	8b05                	andi	a4,a4,1
   128e8:	0077171b          	slliw	a4,a4,0x7
   128ec:	8fd9                	or	a5,a5,a4
   128ee:	fef68fa3          	sb	a5,-1(a3)
   128f2:	ef2417e3          	bne	s0,s2,127e0 <pqcrystals_kyber512_ref_poly_tomsg+0x30>
   128f6:	70a2                	ld	ra,40(sp)
   128f8:	7402                	ld	s0,32(sp)
   128fa:	64e2                	ld	s1,24(sp)
   128fc:	6942                	ld	s2,16(sp)
   128fe:	69a2                	ld	s3,8(sp)
   12900:	6145                	addi	sp,sp,48
   12902:	8082                	ret

0000000000012904 <pqcrystals_kyber512_ref_poly_getnoise_eta1>:
   12904:	7155                	addi	sp,sp,-208
   12906:	e1a2                	sd	s0,192(sp)
   12908:	86b2                	mv	a3,a2
   1290a:	842a                	mv	s0,a0
   1290c:	862e                	mv	a2,a1
   1290e:	850a                	mv	a0,sp
   12910:	0c000593          	li	a1,192
   12914:	e586                	sd	ra,200(sp)
   12916:	2a6090ef          	jal	ra,1bbbc <pqcrystals_kyber512_ref_kyber_shake256_prf>
   1291a:	858a                	mv	a1,sp
   1291c:	8522                	mv	a0,s0
   1291e:	84bfd0ef          	jal	ra,10168 <pqcrystals_kyber512_ref_cbd_eta1>
   12922:	60ae                	ld	ra,200(sp)
   12924:	640e                	ld	s0,192(sp)
   12926:	6169                	addi	sp,sp,208
   12928:	8082                	ret

000000000001292a <pqcrystals_kyber512_ref_poly_getnoise_eta2>:
   1292a:	7175                	addi	sp,sp,-144
   1292c:	e122                	sd	s0,128(sp)
   1292e:	86b2                	mv	a3,a2
   12930:	842a                	mv	s0,a0
   12932:	862e                	mv	a2,a1
   12934:	850a                	mv	a0,sp
   12936:	08000593          	li	a1,128
   1293a:	e506                	sd	ra,136(sp)
   1293c:	280090ef          	jal	ra,1bbbc <pqcrystals_kyber512_ref_kyber_shake256_prf>
   12940:	858a                	mv	a1,sp
   12942:	8522                	mv	a0,s0
   12944:	8bffd0ef          	jal	ra,10202 <pqcrystals_kyber512_ref_cbd_eta2>
   12948:	60aa                	ld	ra,136(sp)
   1294a:	640a                	ld	s0,128(sp)
   1294c:	6149                	addi	sp,sp,144
   1294e:	8082                	ret

0000000000012950 <pqcrystals_kyber512_ref_poly_ntt>:
   12950:	1101                	addi	sp,sp,-32
   12952:	e822                	sd	s0,16(sp)
   12954:	842a                	mv	s0,a0
   12956:	e426                	sd	s1,8(sp)
   12958:	ec06                	sd	ra,24(sp)
   1295a:	20040493          	addi	s1,s0,512
   1295e:	b7aff0ef          	jal	ra,11cd8 <pqcrystals_kyber512_ref_ntt>
   12962:	00041503          	lh	a0,0(s0)
   12966:	0409                	addi	s0,s0,2
   12968:	484000ef          	jal	ra,12dec <pqcrystals_kyber512_ref_barrett_reduce>
   1296c:	fea41f23          	sh	a0,-2(s0)
   12970:	fe9419e3          	bne	s0,s1,12962 <pqcrystals_kyber512_ref_poly_ntt+0x12>
   12974:	60e2                	ld	ra,24(sp)
   12976:	6442                	ld	s0,16(sp)
   12978:	64a2                	ld	s1,8(sp)
   1297a:	6105                	addi	sp,sp,32
   1297c:	8082                	ret

000000000001297e <pqcrystals_kyber512_ref_poly_invntt_tomont>:
   1297e:	c64ff06f          	j	11de2 <pqcrystals_kyber512_ref_invntt>

0000000000012982 <pqcrystals_kyber512_ref_poly_basemul_montgomery>:
   12982:	7139                	addi	sp,sp,-64
   12984:	e852                	sd	s4,16(sp)
   12986:	e456                	sd	s5,8(sp)
   12988:	0002ea37          	lui	s4,0x2e
   1298c:	0002eab7          	lui	s5,0x2e
   12990:	f426                	sd	s1,40(sp)
   12992:	f04a                	sd	s2,32(sp)
   12994:	ec4e                	sd	s3,24(sp)
   12996:	fc06                	sd	ra,56(sp)
   12998:	f822                	sd	s0,48(sp)
   1299a:	b60a0a13          	addi	s4,s4,-1184 # 2db60 <pqcrystals_kyber512_ref_zetas+0x80>
   1299e:	00450993          	addi	s3,a0,4
   129a2:	00458913          	addi	s2,a1,4
   129a6:	00460493          	addi	s1,a2,4 # 1004 <main-0xf0ac>
   129aa:	be0a8a93          	addi	s5,s5,-1056 # 2dbe0 <pqcrystals_kyber512_ref_zetas_inv>
   129ae:	000a1403          	lh	s0,0(s4)
   129b2:	ffc48613          	addi	a2,s1,-4
   129b6:	ffc90593          	addi	a1,s2,-4
   129ba:	ffc98513          	addi	a0,s3,-4
   129be:	86a2                	mv	a3,s0
   129c0:	e90ff0ef          	jal	ra,12050 <pqcrystals_kyber512_ref_basemul>
   129c4:	408006bb          	negw	a3,s0
   129c8:	0106969b          	slliw	a3,a3,0x10
   129cc:	8626                	mv	a2,s1
   129ce:	85ca                	mv	a1,s2
   129d0:	854e                	mv	a0,s3
   129d2:	4106d69b          	sraiw	a3,a3,0x10
   129d6:	0a09                	addi	s4,s4,2
   129d8:	e78ff0ef          	jal	ra,12050 <pqcrystals_kyber512_ref_basemul>
   129dc:	09a1                	addi	s3,s3,8
   129de:	0921                	addi	s2,s2,8
   129e0:	04a1                	addi	s1,s1,8
   129e2:	fd4a96e3          	bne	s5,s4,129ae <pqcrystals_kyber512_ref_poly_basemul_montgomery+0x2c>
   129e6:	70e2                	ld	ra,56(sp)
   129e8:	7442                	ld	s0,48(sp)
   129ea:	74a2                	ld	s1,40(sp)
   129ec:	7902                	ld	s2,32(sp)
   129ee:	69e2                	ld	s3,24(sp)
   129f0:	6a42                	ld	s4,16(sp)
   129f2:	6aa2                	ld	s5,8(sp)
   129f4:	6121                	addi	sp,sp,64
   129f6:	8082                	ret

00000000000129f8 <pqcrystals_kyber512_ref_poly_tomont>:
   129f8:	1101                	addi	sp,sp,-32
   129fa:	e822                	sd	s0,16(sp)
   129fc:	e426                	sd	s1,8(sp)
   129fe:	e04a                	sd	s2,0(sp)
   12a00:	ec06                	sd	ra,24(sp)
   12a02:	842a                	mv	s0,a0
   12a04:	20050913          	addi	s2,a0,512
   12a08:	54900493          	li	s1,1353
   12a0c:	00041503          	lh	a0,0(s0)
   12a10:	0409                	addi	s0,s0,2
   12a12:	0295053b          	mulw	a0,a0,s1
   12a16:	3aa000ef          	jal	ra,12dc0 <pqcrystals_kyber512_ref_montgomery_reduce>
   12a1a:	fea41f23          	sh	a0,-2(s0)
   12a1e:	ff2417e3          	bne	s0,s2,12a0c <pqcrystals_kyber512_ref_poly_tomont+0x14>
   12a22:	60e2                	ld	ra,24(sp)
   12a24:	6442                	ld	s0,16(sp)
   12a26:	64a2                	ld	s1,8(sp)
   12a28:	6902                	ld	s2,0(sp)
   12a2a:	6105                	addi	sp,sp,32
   12a2c:	8082                	ret

0000000000012a2e <pqcrystals_kyber512_ref_poly_reduce>:
   12a2e:	1101                	addi	sp,sp,-32
   12a30:	e822                	sd	s0,16(sp)
   12a32:	e426                	sd	s1,8(sp)
   12a34:	ec06                	sd	ra,24(sp)
   12a36:	842a                	mv	s0,a0
   12a38:	20050493          	addi	s1,a0,512
   12a3c:	00041503          	lh	a0,0(s0)
   12a40:	0409                	addi	s0,s0,2
   12a42:	3aa000ef          	jal	ra,12dec <pqcrystals_kyber512_ref_barrett_reduce>
   12a46:	fea41f23          	sh	a0,-2(s0)
   12a4a:	fe9419e3          	bne	s0,s1,12a3c <pqcrystals_kyber512_ref_poly_reduce+0xe>
   12a4e:	60e2                	ld	ra,24(sp)
   12a50:	6442                	ld	s0,16(sp)
   12a52:	64a2                	ld	s1,8(sp)
   12a54:	6105                	addi	sp,sp,32
   12a56:	8082                	ret

0000000000012a58 <pqcrystals_kyber512_ref_poly_csubq>:
   12a58:	1101                	addi	sp,sp,-32
   12a5a:	e822                	sd	s0,16(sp)
   12a5c:	e426                	sd	s1,8(sp)
   12a5e:	ec06                	sd	ra,24(sp)
   12a60:	842a                	mv	s0,a0
   12a62:	20050493          	addi	s1,a0,512
   12a66:	00041503          	lh	a0,0(s0)
   12a6a:	0409                	addi	s0,s0,2
   12a6c:	3a4000ef          	jal	ra,12e10 <pqcrystals_kyber512_ref_csubq>
   12a70:	fea41f23          	sh	a0,-2(s0)
   12a74:	fe9419e3          	bne	s0,s1,12a66 <pqcrystals_kyber512_ref_poly_csubq+0xe>
   12a78:	60e2                	ld	ra,24(sp)
   12a7a:	6442                	ld	s0,16(sp)
   12a7c:	64a2                	ld	s1,8(sp)
   12a7e:	6105                	addi	sp,sp,32
   12a80:	8082                	ret

0000000000012a82 <pqcrystals_kyber512_ref_poly_add>:
   12a82:	4781                	li	a5,0
   12a84:	20000893          	li	a7,512
   12a88:	00f606b3          	add	a3,a2,a5
   12a8c:	00f58733          	add	a4,a1,a5
   12a90:	0006d803          	lhu	a6,0(a3)
   12a94:	00075703          	lhu	a4,0(a4) # 1000 <main-0xf0b0>
   12a98:	00f506b3          	add	a3,a0,a5
   12a9c:	0789                	addi	a5,a5,2
   12a9e:	0107073b          	addw	a4,a4,a6
   12aa2:	00e69023          	sh	a4,0(a3)
   12aa6:	ff1791e3          	bne	a5,a7,12a88 <pqcrystals_kyber512_ref_poly_add+0x6>
   12aaa:	8082                	ret

0000000000012aac <pqcrystals_kyber512_ref_poly_sub>:
   12aac:	4781                	li	a5,0
   12aae:	20000893          	li	a7,512
   12ab2:	00f606b3          	add	a3,a2,a5
   12ab6:	00f58733          	add	a4,a1,a5
   12aba:	0006d803          	lhu	a6,0(a3)
   12abe:	00075703          	lhu	a4,0(a4)
   12ac2:	00f506b3          	add	a3,a0,a5
   12ac6:	0789                	addi	a5,a5,2
   12ac8:	4107073b          	subw	a4,a4,a6
   12acc:	00e69023          	sh	a4,0(a3)
   12ad0:	ff1791e3          	bne	a5,a7,12ab2 <pqcrystals_kyber512_ref_poly_sub+0x6>
   12ad4:	8082                	ret

0000000000012ad6 <pqcrystals_kyber512_ref_poly_standard_to_bitreverse_all>:
   12ad6:	825ff06f          	j	122fa <pqcrystals_kyber512_ref_standard_to_bitreverse_all>

0000000000012ada <pqcrystals_kyber512_ref_poly_bitreverse_to_standard_all>:
   12ada:	efcff06f          	j	121d6 <pqcrystals_kyber512_ref_bitreverse_to_standard_all>

0000000000012ade <pqcrystals_kyber512_ref_polyvec_compress>:
   12ade:	1101                	addi	sp,sp,-32
   12ae0:	e426                	sd	s1,8(sp)
   12ae2:	84aa                	mv	s1,a0
   12ae4:	852e                	mv	a0,a1
   12ae6:	ec06                	sd	ra,24(sp)
   12ae8:	e822                	sd	s0,16(sp)
   12aea:	842e                	mv	s0,a1
   12aec:	f6dff0ef          	jal	ra,12a58 <pqcrystals_kyber512_ref_poly_csubq>
   12af0:	20040513          	addi	a0,s0,512
   12af4:	f65ff0ef          	jal	ra,12a58 <pqcrystals_kyber512_ref_poly_csubq>
   12af8:	6805                	lui	a6,0x1
   12afa:	14048893          	addi	a7,s1,320
   12afe:	8322                	mv	t1,s0
   12b00:	3c048e13          	addi	t3,s1,960
   12b04:	d018081b          	addiw	a6,a6,-767
   12b08:	ec088593          	addi	a1,a7,-320
   12b0c:	851a                	mv	a0,t1
   12b0e:	00051603          	lh	a2,0(a0)
   12b12:	00251703          	lh	a4,2(a0)
   12b16:	00451783          	lh	a5,4(a0)
   12b1a:	00a6161b          	slliw	a2,a2,0xa
   12b1e:	00a7171b          	slliw	a4,a4,0xa
   12b22:	6806061b          	addiw	a2,a2,1664
   12b26:	6807071b          	addiw	a4,a4,1664
   12b2a:	00651683          	lh	a3,6(a0)
   12b2e:	0306563b          	divuw	a2,a2,a6
   12b32:	00a7979b          	slliw	a5,a5,0xa
   12b36:	6807879b          	addiw	a5,a5,1664
   12b3a:	00a6969b          	slliw	a3,a3,0xa
   12b3e:	6806869b          	addiw	a3,a3,1664
   12b42:	0595                	addi	a1,a1,5
   12b44:	0521                	addi	a0,a0,8
   12b46:	0307573b          	divuw	a4,a4,a6
   12b4a:	3ff67613          	andi	a2,a2,1023
   12b4e:	00865e9b          	srliw	t4,a2,0x8
   12b52:	fec58da3          	sb	a2,-5(a1)
   12b56:	0307d7bb          	divuw	a5,a5,a6
   12b5a:	3ff77713          	andi	a4,a4,1023
   12b5e:	0027161b          	slliw	a2,a4,0x2
   12b62:	00cee633          	or	a2,t4,a2
   12b66:	0067571b          	srliw	a4,a4,0x6
   12b6a:	fec58e23          	sb	a2,-4(a1)
   12b6e:	0306d6bb          	divuw	a3,a3,a6
   12b72:	3ff7f793          	andi	a5,a5,1023
   12b76:	0047961b          	slliw	a2,a5,0x4
   12b7a:	8f51                	or	a4,a4,a2
   12b7c:	fee58ea3          	sb	a4,-3(a1)
   12b80:	0047d79b          	srliw	a5,a5,0x4
   12b84:	3ff6f713          	andi	a4,a3,1023
   12b88:	0067169b          	slliw	a3,a4,0x6
   12b8c:	8fd5                	or	a5,a5,a3
   12b8e:	0027571b          	srliw	a4,a4,0x2
   12b92:	fef58f23          	sb	a5,-2(a1)
   12b96:	fee58fa3          	sb	a4,-1(a1)
   12b9a:	f7159ae3          	bne	a1,a7,12b0e <pqcrystals_kyber512_ref_polyvec_compress+0x30>
   12b9e:	14058893          	addi	a7,a1,320
   12ba2:	20030313          	addi	t1,t1,512
   12ba6:	f71e11e3          	bne	t3,a7,12b08 <pqcrystals_kyber512_ref_polyvec_compress+0x2a>
   12baa:	60e2                	ld	ra,24(sp)
   12bac:	6442                	ld	s0,16(sp)
   12bae:	64a2                	ld	s1,8(sp)
   12bb0:	6105                	addi	sp,sp,32
   12bb2:	8082                	ret

0000000000012bb4 <pqcrystals_kyber512_ref_polyvec_decompress>:
   12bb4:	88aa                	mv	a7,a0
   12bb6:	6505                	lui	a0,0x1
   12bb8:	14058813          	addi	a6,a1,320
   12bbc:	3c058313          	addi	t1,a1,960
   12bc0:	d015051b          	addiw	a0,a0,-767
   12bc4:	ec080613          	addi	a2,a6,-320 # ec0 <main-0xf1f0>
   12bc8:	85c6                	mv	a1,a7
   12bca:	00164683          	lbu	a3,1(a2)
   12bce:	00264783          	lbu	a5,2(a2)
   12bd2:	00364e83          	lbu	t4,3(a2)
   12bd6:	8736                	mv	a4,a3
   12bd8:	00679f9b          	slliw	t6,a5,0x6
   12bdc:	8309                	srli	a4,a4,0x2
   12bde:	01f76733          	or	a4,a4,t6
   12be2:	3ff77713          	andi	a4,a4,1023
   12be6:	02a7073b          	mulw	a4,a4,a0
   12bea:	00064283          	lbu	t0,0(a2)
   12bee:	00464e03          	lbu	t3,4(a2)
   12bf2:	004e9f1b          	slliw	t5,t4,0x4
   12bf6:	0047d79b          	srliw	a5,a5,0x4
   12bfa:	01e7e7b3          	or	a5,a5,t5
   12bfe:	06a2                	slli	a3,a3,0x8
   12c00:	3ff7f793          	andi	a5,a5,1023
   12c04:	0056e6b3          	or	a3,a3,t0
   12c08:	002e1e1b          	slliw	t3,t3,0x2
   12c0c:	02a787bb          	mulw	a5,a5,a0
   12c10:	006ede9b          	srliw	t4,t4,0x6
   12c14:	2007071b          	addiw	a4,a4,512
   12c18:	05a1                	addi	a1,a1,8
   12c1a:	00a7571b          	srliw	a4,a4,0xa
   12c1e:	01de6e33          	or	t3,t3,t4
   12c22:	3ff6f693          	andi	a3,a3,1023
   12c26:	fee59d23          	sh	a4,-6(a1)
   12c2a:	0615                	addi	a2,a2,5
   12c2c:	02a686bb          	mulw	a3,a3,a0
   12c30:	2007879b          	addiw	a5,a5,512
   12c34:	00a7d79b          	srliw	a5,a5,0xa
   12c38:	fef59e23          	sh	a5,-4(a1)
   12c3c:	03c5073b          	mulw	a4,a0,t3
   12c40:	2006869b          	addiw	a3,a3,512
   12c44:	00a6d69b          	srliw	a3,a3,0xa
   12c48:	fed59c23          	sh	a3,-8(a1)
   12c4c:	2007079b          	addiw	a5,a4,512
   12c50:	00a7d79b          	srliw	a5,a5,0xa
   12c54:	fef59f23          	sh	a5,-2(a1)
   12c58:	f70619e3          	bne	a2,a6,12bca <pqcrystals_kyber512_ref_polyvec_decompress+0x16>
   12c5c:	14060813          	addi	a6,a2,320
   12c60:	20088893          	addi	a7,a7,512
   12c64:	f70310e3          	bne	t1,a6,12bc4 <pqcrystals_kyber512_ref_polyvec_decompress+0x10>
   12c68:	8082                	ret

0000000000012c6a <pqcrystals_kyber512_ref_polyvec_tobytes>:
   12c6a:	1101                	addi	sp,sp,-32
   12c6c:	e822                	sd	s0,16(sp)
   12c6e:	e426                	sd	s1,8(sp)
   12c70:	ec06                	sd	ra,24(sp)
   12c72:	842a                	mv	s0,a0
   12c74:	84ae                	mv	s1,a1
   12c76:	a11ff0ef          	jal	ra,12686 <pqcrystals_kyber512_ref_poly_tobytes>
   12c7a:	18040513          	addi	a0,s0,384
   12c7e:	6442                	ld	s0,16(sp)
   12c80:	60e2                	ld	ra,24(sp)
   12c82:	20048593          	addi	a1,s1,512
   12c86:	64a2                	ld	s1,8(sp)
   12c88:	6105                	addi	sp,sp,32
   12c8a:	9fdff06f          	j	12686 <pqcrystals_kyber512_ref_poly_tobytes>

0000000000012c8e <pqcrystals_kyber512_ref_polyvec_frombytes>:
   12c8e:	1101                	addi	sp,sp,-32
   12c90:	e822                	sd	s0,16(sp)
   12c92:	e426                	sd	s1,8(sp)
   12c94:	ec06                	sd	ra,24(sp)
   12c96:	842a                	mv	s0,a0
   12c98:	84ae                	mv	s1,a1
   12c9a:	a25ff0ef          	jal	ra,126be <pqcrystals_kyber512_ref_poly_frombytes>
   12c9e:	20040513          	addi	a0,s0,512
   12ca2:	6442                	ld	s0,16(sp)
   12ca4:	60e2                	ld	ra,24(sp)
   12ca6:	18048593          	addi	a1,s1,384
   12caa:	64a2                	ld	s1,8(sp)
   12cac:	6105                	addi	sp,sp,32
   12cae:	a11ff06f          	j	126be <pqcrystals_kyber512_ref_poly_frombytes>

0000000000012cb2 <pqcrystals_kyber512_ref_polyvec_ntt>:
   12cb2:	1141                	addi	sp,sp,-16
   12cb4:	e022                	sd	s0,0(sp)
   12cb6:	e406                	sd	ra,8(sp)
   12cb8:	842a                	mv	s0,a0
   12cba:	c97ff0ef          	jal	ra,12950 <pqcrystals_kyber512_ref_poly_ntt>
   12cbe:	20040513          	addi	a0,s0,512
   12cc2:	6402                	ld	s0,0(sp)
   12cc4:	60a2                	ld	ra,8(sp)
   12cc6:	0141                	addi	sp,sp,16
   12cc8:	b161                	j	12950 <pqcrystals_kyber512_ref_poly_ntt>

0000000000012cca <pqcrystals_kyber512_ref_polyvec_invntt_tomont>:
   12cca:	1141                	addi	sp,sp,-16
   12ccc:	e022                	sd	s0,0(sp)
   12cce:	e406                	sd	ra,8(sp)
   12cd0:	842a                	mv	s0,a0
   12cd2:	cadff0ef          	jal	ra,1297e <pqcrystals_kyber512_ref_poly_invntt_tomont>
   12cd6:	20040513          	addi	a0,s0,512
   12cda:	6402                	ld	s0,0(sp)
   12cdc:	60a2                	ld	ra,8(sp)
   12cde:	0141                	addi	sp,sp,16
   12ce0:	b979                	j	1297e <pqcrystals_kyber512_ref_poly_invntt_tomont>

0000000000012ce2 <pqcrystals_kyber512_ref_polyvec_pointwise_acc_montgomery>:
   12ce2:	de010113          	addi	sp,sp,-544
   12ce6:	20113c23          	sd	ra,536(sp)
   12cea:	20813823          	sd	s0,528(sp)
   12cee:	20913423          	sd	s1,520(sp)
   12cf2:	21213023          	sd	s2,512(sp)
   12cf6:	842a                	mv	s0,a0
   12cf8:	84ae                	mv	s1,a1
   12cfa:	8932                	mv	s2,a2
   12cfc:	c87ff0ef          	jal	ra,12982 <pqcrystals_kyber512_ref_poly_basemul_montgomery>
   12d00:	20090613          	addi	a2,s2,512
   12d04:	20048593          	addi	a1,s1,512
   12d08:	850a                	mv	a0,sp
   12d0a:	c79ff0ef          	jal	ra,12982 <pqcrystals_kyber512_ref_poly_basemul_montgomery>
   12d0e:	860a                	mv	a2,sp
   12d10:	85a2                	mv	a1,s0
   12d12:	8522                	mv	a0,s0
   12d14:	d6fff0ef          	jal	ra,12a82 <pqcrystals_kyber512_ref_poly_add>
   12d18:	8522                	mv	a0,s0
   12d1a:	d15ff0ef          	jal	ra,12a2e <pqcrystals_kyber512_ref_poly_reduce>
   12d1e:	21813083          	ld	ra,536(sp)
   12d22:	21013403          	ld	s0,528(sp)
   12d26:	20813483          	ld	s1,520(sp)
   12d2a:	20013903          	ld	s2,512(sp)
   12d2e:	22010113          	addi	sp,sp,544
   12d32:	8082                	ret

0000000000012d34 <pqcrystals_kyber512_ref_polyvec_reduce>:
   12d34:	1141                	addi	sp,sp,-16
   12d36:	e022                	sd	s0,0(sp)
   12d38:	e406                	sd	ra,8(sp)
   12d3a:	842a                	mv	s0,a0
   12d3c:	cf3ff0ef          	jal	ra,12a2e <pqcrystals_kyber512_ref_poly_reduce>
   12d40:	20040513          	addi	a0,s0,512
   12d44:	6402                	ld	s0,0(sp)
   12d46:	60a2                	ld	ra,8(sp)
   12d48:	0141                	addi	sp,sp,16
   12d4a:	b1d5                	j	12a2e <pqcrystals_kyber512_ref_poly_reduce>

0000000000012d4c <pqcrystals_kyber512_ref_polyvec_csubq>:
   12d4c:	1141                	addi	sp,sp,-16
   12d4e:	e022                	sd	s0,0(sp)
   12d50:	e406                	sd	ra,8(sp)
   12d52:	842a                	mv	s0,a0
   12d54:	d05ff0ef          	jal	ra,12a58 <pqcrystals_kyber512_ref_poly_csubq>
   12d58:	20040513          	addi	a0,s0,512
   12d5c:	6402                	ld	s0,0(sp)
   12d5e:	60a2                	ld	ra,8(sp)
   12d60:	0141                	addi	sp,sp,16
   12d62:	b9dd                	j	12a58 <pqcrystals_kyber512_ref_poly_csubq>

0000000000012d64 <pqcrystals_kyber512_ref_polyvec_add>:
   12d64:	1101                	addi	sp,sp,-32
   12d66:	e822                	sd	s0,16(sp)
   12d68:	e426                	sd	s1,8(sp)
   12d6a:	e04a                	sd	s2,0(sp)
   12d6c:	ec06                	sd	ra,24(sp)
   12d6e:	842a                	mv	s0,a0
   12d70:	84ae                	mv	s1,a1
   12d72:	8932                	mv	s2,a2
   12d74:	d0fff0ef          	jal	ra,12a82 <pqcrystals_kyber512_ref_poly_add>
   12d78:	20040513          	addi	a0,s0,512
   12d7c:	6442                	ld	s0,16(sp)
   12d7e:	60e2                	ld	ra,24(sp)
   12d80:	20090613          	addi	a2,s2,512
   12d84:	20048593          	addi	a1,s1,512
   12d88:	6902                	ld	s2,0(sp)
   12d8a:	64a2                	ld	s1,8(sp)
   12d8c:	6105                	addi	sp,sp,32
   12d8e:	b9d5                	j	12a82 <pqcrystals_kyber512_ref_poly_add>

0000000000012d90 <pqcrystals_kyber512_ref_polyvec_standard_to_bitreverse_all>:
   12d90:	1141                	addi	sp,sp,-16
   12d92:	e022                	sd	s0,0(sp)
   12d94:	e406                	sd	ra,8(sp)
   12d96:	842a                	mv	s0,a0
   12d98:	d3fff0ef          	jal	ra,12ad6 <pqcrystals_kyber512_ref_poly_standard_to_bitreverse_all>
   12d9c:	20040513          	addi	a0,s0,512
   12da0:	6402                	ld	s0,0(sp)
   12da2:	60a2                	ld	ra,8(sp)
   12da4:	0141                	addi	sp,sp,16
   12da6:	bb05                	j	12ad6 <pqcrystals_kyber512_ref_poly_standard_to_bitreverse_all>

0000000000012da8 <pqcrystals_kyber512_ref_polyvec_bitreverse_to_standard_all>:
   12da8:	1141                	addi	sp,sp,-16
   12daa:	e022                	sd	s0,0(sp)
   12dac:	e406                	sd	ra,8(sp)
   12dae:	842a                	mv	s0,a0
   12db0:	d2bff0ef          	jal	ra,12ada <pqcrystals_kyber512_ref_poly_bitreverse_to_standard_all>
   12db4:	20040513          	addi	a0,s0,512
   12db8:	6402                	ld	s0,0(sp)
   12dba:	60a2                	ld	ra,8(sp)
   12dbc:	0141                	addi	sp,sp,16
   12dbe:	bb31                	j	12ada <pqcrystals_kyber512_ref_poly_bitreverse_to_standard_all>

0000000000012dc0 <pqcrystals_kyber512_ref_montgomery_reduce>:
   12dc0:	77fd                	lui	a5,0xfffff
   12dc2:	3017879b          	addiw	a5,a5,769
   12dc6:	02a787bb          	mulw	a5,a5,a0
   12dca:	6705                	lui	a4,0x1
   12dcc:	d017071b          	addiw	a4,a4,-767
   12dd0:	0107979b          	slliw	a5,a5,0x10
   12dd4:	4107d79b          	sraiw	a5,a5,0x10
   12dd8:	02e787bb          	mulw	a5,a5,a4
   12ddc:	9d1d                	subw	a0,a0,a5
   12dde:	4105551b          	sraiw	a0,a0,0x10
   12de2:	0105151b          	slliw	a0,a0,0x10
   12de6:	4105551b          	sraiw	a0,a0,0x10
   12dea:	8082                	ret

0000000000012dec <pqcrystals_kyber512_ref_barrett_reduce>:
   12dec:	6795                	lui	a5,0x5
   12dee:	ebf7879b          	addiw	a5,a5,-321
   12df2:	02f507bb          	mulw	a5,a0,a5
   12df6:	6705                	lui	a4,0x1
   12df8:	d017071b          	addiw	a4,a4,-767
   12dfc:	41a7d79b          	sraiw	a5,a5,0x1a
   12e00:	02e787bb          	mulw	a5,a5,a4
   12e04:	9d1d                	subw	a0,a0,a5
   12e06:	0105151b          	slliw	a0,a0,0x10
   12e0a:	4105551b          	sraiw	a0,a0,0x10
   12e0e:	8082                	ret

0000000000012e10 <pqcrystals_kyber512_ref_csubq>:
   12e10:	77fd                	lui	a5,0xfffff
   12e12:	2ff7879b          	addiw	a5,a5,767
   12e16:	9fa9                	addw	a5,a5,a0
   12e18:	0107951b          	slliw	a0,a5,0x10
   12e1c:	4105551b          	sraiw	a0,a0,0x10
   12e20:	40f5571b          	sraiw	a4,a0,0xf
   12e24:	6505                	lui	a0,0x1
   12e26:	d0150513          	addi	a0,a0,-767 # d01 <main-0xf3af>
   12e2a:	8d79                	and	a0,a0,a4
   12e2c:	953e                	add	a0,a0,a5
   12e2e:	0105151b          	slliw	a0,a0,0x10
   12e32:	4105551b          	sraiw	a0,a0,0x10
   12e36:	8082                	ret

0000000000012e38 <pqcrystals_kyber512_ref_mod_div2>:
   12e38:	00157793          	andi	a5,a0,1
   12e3c:	68100713          	li	a4,1665
   12e40:	02e787bb          	mulw	a5,a5,a4
   12e44:	4015551b          	sraiw	a0,a0,0x1
   12e48:	9d3d                	addw	a0,a0,a5
   12e4a:	0105151b          	slliw	a0,a0,0x10
   12e4e:	4105551b          	sraiw	a0,a0,0x10
   12e52:	8082                	ret

0000000000012e54 <pqcrystals_kyber512_ref_central_reduce_oneQ>:
   12e54:	6785                	lui	a5,0x1
   12e56:	d0078793          	addi	a5,a5,-768 # d00 <main-0xf3b0>
   12e5a:	0005071b          	sext.w	a4,a0
   12e5e:	00a7db63          	bge	a5,a0,12e74 <pqcrystals_kyber512_ref_central_reduce_oneQ+0x20>
   12e62:	77fd                	lui	a5,0xfffff
   12e64:	2ff7879b          	addiw	a5,a5,767
   12e68:	9d3d                	addw	a0,a0,a5
   12e6a:	0105151b          	slliw	a0,a0,0x10
   12e6e:	4105551b          	sraiw	a0,a0,0x10
   12e72:	8082                	ret
   12e74:	77fd                	lui	a5,0xfffff
   12e76:	30078793          	addi	a5,a5,768 # fffffffffffff300 <__BSS_END__+0xfffffffffffcd4e8>
   12e7a:	00f75a63          	bge	a4,a5,12e8e <pqcrystals_kyber512_ref_central_reduce_oneQ+0x3a>
   12e7e:	6785                	lui	a5,0x1
   12e80:	d017879b          	addiw	a5,a5,-767
   12e84:	9d3d                	addw	a0,a0,a5
   12e86:	0105151b          	slliw	a0,a0,0x10
   12e8a:	4105551b          	sraiw	a0,a0,0x10
   12e8e:	8082                	ret

0000000000012e90 <crypto_hashblocks_sha256.isra.0>:
   12e90:	7105                	addi	sp,sp,-480
   12e92:	8f2a                	mv	t5,a0
   12e94:	ef62                	sd	s8,408(sp)
   12e96:	eb66                	sd	s9,400(sp)
   12e98:	e76a                	sd	s10,392(sp)
   12e9a:	efa2                	sd	s0,472(sp)
   12e9c:	eba6                	sd	s1,464(sp)
   12e9e:	e7ca                	sd	s2,456(sp)
   12ea0:	e3ce                	sd	s3,448(sp)
   12ea2:	ff52                	sd	s4,440(sp)
   12ea4:	fb56                	sd	s5,432(sp)
   12ea6:	f75a                	sd	s6,424(sp)
   12ea8:	f35e                	sd	s7,416(sp)
   12eaa:	e36e                	sd	s11,384(sp)
   12eac:	007f4f83          	lbu	t6,7(t5)
   12eb0:	feaa                	sd	a0,376(sp)
   12eb2:	00254e03          	lbu	t3,2(a0)
   12eb6:	00154b83          	lbu	s7,1(a0)
   12eba:	00654303          	lbu	t1,6(a0)
   12ebe:	00554b03          	lbu	s6,5(a0)
   12ec2:	00a54883          	lbu	a7,10(a0)
   12ec6:	00954a83          	lbu	s5,9(a0)
   12eca:	00e54803          	lbu	a6,14(a0)
   12ece:	00d54a03          	lbu	s4,13(a0)
   12ed2:	011f4983          	lbu	s3,17(t5)
   12ed6:	016f4683          	lbu	a3,22(t5)
   12eda:	015f4903          	lbu	s2,21(t5)
   12ede:	01af4703          	lbu	a4,26(t5)
   12ee2:	019f4483          	lbu	s1,25(t5)
   12ee6:	01ef4403          	lbu	s0,30(t5)
   12eea:	01df4783          	lbu	a5,29(t5)
   12eee:	003f4d83          	lbu	s11,3(t5)
   12ef2:	000f4e83          	lbu	t4,0(t5)
   12ef6:	01254503          	lbu	a0,18(a0)
   12efa:	c07e                	sw	t6,0(sp)
   12efc:	004f4283          	lbu	t0,4(t5)
   12f00:	008f4c03          	lbu	s8,8(t5)
   12f04:	0084141b          	slliw	s0,s0,0x8
   12f08:	c416                	sw	t0,8(sp)
   12f0a:	0107979b          	slliw	a5,a5,0x10
   12f0e:	8fc1                	or	a5,a5,s0
   12f10:	4422                	lw	s0,8(sp)
   12f12:	00cf4d03          	lbu	s10,12(t5)
   12f16:	cc62                	sw	s8,24(sp)
   12f18:	010b1b1b          	slliw	s6,s6,0x10
   12f1c:	0083131b          	slliw	t1,t1,0x8
   12f20:	00bf4383          	lbu	t2,11(t5)
   12f24:	0104949b          	slliw	s1,s1,0x10
   12f28:	01636333          	or	t1,t1,s6
   12f2c:	0087171b          	slliw	a4,a4,0x8
   12f30:	01841b1b          	slliw	s6,s0,0x18
   12f34:	4462                	lw	s0,24(sp)
   12f36:	8f45                	or	a4,a4,s1
   12f38:	6482                	ld	s1,0(sp)
   12f3a:	013f4f83          	lbu	t6,19(t5)
   12f3e:	d46a                	sw	s10,40(sp)
   12f40:	010a9a9b          	slliw	s5,s5,0x10
   12f44:	0088989b          	slliw	a7,a7,0x8
   12f48:	00ff4c83          	lbu	s9,15(t5)
   12f4c:	c81e                	sw	t2,16(sp)
   12f4e:	0158e8b3          	or	a7,a7,s5
   12f52:	01841a9b          	slliw	s5,s0,0x18
   12f56:	5422                	lw	s0,40(sp)
   12f58:	00936333          	or	t1,t1,s1
   12f5c:	64c2                	ld	s1,16(sp)
   12f5e:	d87e                	sw	t6,48(sp)
   12f60:	010a1a1b          	slliw	s4,s4,0x10
   12f64:	008e1e1b          	slliw	t3,t3,0x8
   12f68:	010b9b9b          	slliw	s7,s7,0x10
   12f6c:	0088181b          	slliw	a6,a6,0x8
   12f70:	d066                	sw	s9,32(sp)
   12f72:	01486833          	or	a6,a6,s4
   12f76:	017e6e33          	or	t3,t3,s7
   12f7a:	01841a1b          	slliw	s4,s0,0x18
   12f7e:	7442                	ld	s0,48(sp)
   12f80:	010f4383          	lbu	t2,16(t5)
   12f84:	018e9e9b          	slliw	t4,t4,0x18
   12f88:	0098e8b3          	or	a7,a7,s1
   12f8c:	0085151b          	slliw	a0,a0,0x8
   12f90:	7482                	ld	s1,32(sp)
   12f92:	0109999b          	slliw	s3,s3,0x10
   12f96:	01be6e33          	or	t3,t3,s11
   12f9a:	017f4d03          	lbu	s10,23(t5)
   12f9e:	014f4283          	lbu	t0,20(t5)
   12fa2:	01bf4c83          	lbu	s9,27(t5)
   12fa6:	018f4f83          	lbu	t6,24(t5)
   12faa:	01ff4c03          	lbu	s8,31(t5)
   12fae:	01de6e33          	or	t3,t3,t4
   12fb2:	01cf4f03          	lbu	t5,28(t5)
   12fb6:	01356533          	or	a0,a0,s3
   12fba:	8d41                	or	a0,a0,s0
   12fbc:	0086969b          	slliw	a3,a3,0x8
   12fc0:	000e041b          	sext.w	s0,t3
   12fc4:	0109191b          	slliw	s2,s2,0x10
   12fc8:	01636333          	or	t1,t1,s6
   12fcc:	e422                	sd	s0,8(sp)
   12fce:	0126e6b3          	or	a3,a3,s2
   12fd2:	0003041b          	sext.w	s0,t1
   12fd6:	00986833          	or	a6,a6,s1
   12fda:	0183939b          	slliw	t2,t2,0x18
   12fde:	0158e8b3          	or	a7,a7,s5
   12fe2:	e0a2                	sd	s0,64(sp)
   12fe4:	01a6e6b3          	or	a3,a3,s10
   12fe8:	0008841b          	sext.w	s0,a7
   12fec:	0182929b          	slliw	t0,t0,0x18
   12ff0:	01976733          	or	a4,a4,s9
   12ff4:	018f9f9b          	slliw	t6,t6,0x18
   12ff8:	0187e7b3          	or	a5,a5,s8
   12ffc:	018f1f1b          	slliw	t5,t5,0x18
   13000:	01486833          	or	a6,a6,s4
   13004:	00756533          	or	a0,a0,t2
   13008:	eca2                	sd	s0,88(sp)
   1300a:	0056e6b3          	or	a3,a3,t0
   1300e:	01f76733          	or	a4,a4,t6
   13012:	01e7e7b3          	or	a5,a5,t5
   13016:	0008041b          	sext.w	s0,a6
   1301a:	2501                	sext.w	a0,a0
   1301c:	e02e                	sd	a1,0(sp)
   1301e:	e922                	sd	s0,144(sp)
   13020:	fcaa                	sd	a0,120(sp)
   13022:	2681                	sext.w	a3,a3
   13024:	2701                	sext.w	a4,a4
   13026:	2781                	sext.w	a5,a5
   13028:	e136                	sd	a3,128(sp)
   1302a:	03f00e93          	li	t4,63
   1302e:	e53a                	sd	a4,136(sp)
   13030:	ed3e                	sd	a5,152(sp)
   13032:	00cee463          	bltu	t4,a2,1303a <crypto_hashblocks_sha256.isra.0+0x1aa>
   13036:	2bb0306f          	j	16af0 <crypto_hashblocks_sha256.isra.0+0x3c60>
   1303a:	fc060613          	addi	a2,a2,-64
   1303e:	fc067613          	andi	a2,a2,-64
   13042:	04060613          	addi	a2,a2,64
   13046:	00c587b3          	add	a5,a1,a2
   1304a:	ea3e                	sd	a5,272(sp)
   1304c:	428a37b7          	lui	a5,0x428a3
   13050:	f987879b          	addiw	a5,a5,-104
   13054:	10f12e23          	sw	a5,284(sp)
   13058:	713747b7          	lui	a5,0x71374
   1305c:	4917879b          	addiw	a5,a5,1169
   13060:	12f12023          	sw	a5,288(sp)
   13064:	b5c107b7          	lui	a5,0xb5c10
   13068:	bcf7879b          	addiw	a5,a5,-1073
   1306c:	12f12223          	sw	a5,292(sp)
   13070:	e9b5e7b7          	lui	a5,0xe9b5e
   13074:	ba57879b          	addiw	a5,a5,-1115
   13078:	12f12423          	sw	a5,296(sp)
   1307c:	3956c7b7          	lui	a5,0x3956c
   13080:	25b7879b          	addiw	a5,a5,603
   13084:	12f12623          	sw	a5,300(sp)
   13088:	59f117b7          	lui	a5,0x59f11
   1308c:	1f17879b          	addiw	a5,a5,497
   13090:	12f12823          	sw	a5,304(sp)
   13094:	923f87b7          	lui	a5,0x923f8
   13098:	2a47879b          	addiw	a5,a5,676
   1309c:	12f12a23          	sw	a5,308(sp)
   130a0:	ab1c67b7          	lui	a5,0xab1c6
   130a4:	ed57879b          	addiw	a5,a5,-299
   130a8:	12f12c23          	sw	a5,312(sp)
   130ac:	d807b7b7          	lui	a5,0xd807b
   130b0:	a987879b          	addiw	a5,a5,-1384
   130b4:	12f12e23          	sw	a5,316(sp)
   130b8:	128367b7          	lui	a5,0x12836
   130bc:	b017879b          	addiw	a5,a5,-1279
   130c0:	14f12023          	sw	a5,320(sp)
   130c4:	243187b7          	lui	a5,0x24318
   130c8:	5be7879b          	addiw	a5,a5,1470
   130cc:	14f12223          	sw	a5,324(sp)
   130d0:	550c87b7          	lui	a5,0x550c8
   130d4:	dc37879b          	addiw	a5,a5,-573
   130d8:	14f12423          	sw	a5,328(sp)
   130dc:	72be67b7          	lui	a5,0x72be6
   130e0:	d747879b          	addiw	a5,a5,-652
   130e4:	14f12623          	sw	a5,332(sp)
   130e8:	80deb7b7          	lui	a5,0x80deb
   130ec:	1fe7879b          	addiw	a5,a5,510
   130f0:	14f12823          	sw	a5,336(sp)
   130f4:	9bdc07b7          	lui	a5,0x9bdc0
   130f8:	6a77879b          	addiw	a5,a5,1703
   130fc:	14f12a23          	sw	a5,340(sp)
   13100:	c19bf7b7          	lui	a5,0xc19bf
   13104:	1747879b          	addiw	a5,a5,372
   13108:	14f12c23          	sw	a5,344(sp)
   1310c:	e49b77b7          	lui	a5,0xe49b7
   13110:	9c17879b          	addiw	a5,a5,-1599
   13114:	14f12e23          	sw	a5,348(sp)
   13118:	efbe47b7          	lui	a5,0xefbe4
   1311c:	7867879b          	addiw	a5,a5,1926
   13120:	16f12023          	sw	a5,352(sp)
   13124:	0fc1a7b7          	lui	a5,0xfc1a
   13128:	dc67879b          	addiw	a5,a5,-570
   1312c:	16f12223          	sw	a5,356(sp)
   13130:	240ca7b7          	lui	a5,0x240ca
   13134:	1cc7879b          	addiw	a5,a5,460
   13138:	16f12423          	sw	a5,360(sp)
   1313c:	2de937b7          	lui	a5,0x2de93
   13140:	c6f7879b          	addiw	a5,a5,-913
   13144:	16f12623          	sw	a5,364(sp)
   13148:	4a7487b7          	lui	a5,0x4a748
   1314c:	4aa7879b          	addiw	a5,a5,1194
   13150:	16f12823          	sw	a5,368(sp)
   13154:	5cb0b7b7          	lui	a5,0x5cb0b
   13158:	9dc7879b          	addiw	a5,a5,-1572
   1315c:	16f12a23          	sw	a5,372(sp)
   13160:	7e66                	ld	t3,120(sp)
   13162:	6402                	ld	s0,0(sp)
   13164:	6e8a                	ld	t4,128(sp)
   13166:	01ae189b          	slliw	a7,t3,0x1a
   1316a:	015e181b          	slliw	a6,t3,0x15
   1316e:	006e571b          	srliw	a4,t3,0x6
   13172:	00be579b          	srliw	a5,t3,0xb
   13176:	0107e7b3          	or	a5,a5,a6
   1317a:	01176733          	or	a4,a4,a7
   1317e:	6f2a                	ld	t5,136(sp)
   13180:	00244d03          	lbu	s10,2(s0)
   13184:	00144603          	lbu	a2,1(s0)
   13188:	11c12483          	lw	s1,284(sp)
   1318c:	8f3d                	xor	a4,a4,a5
   1318e:	67ea                	ld	a5,152(sp)
   13190:	019e551b          	srliw	a0,t3,0x19
   13194:	007e169b          	slliw	a3,t3,0x7
   13198:	00344583          	lbu	a1,3(s0)
   1319c:	00044903          	lbu	s2,0(s0)
   131a0:	8ec9                	or	a3,a3,a0
   131a2:	fffe4893          	not	a7,t3
   131a6:	01de7533          	and	a0,t3,t4
   131aa:	9fa5                	addw	a5,a5,s1
   131ac:	01e8f8b3          	and	a7,a7,t5
   131b0:	0106161b          	slliw	a2,a2,0x10
   131b4:	8f35                	xor	a4,a4,a3
   131b6:	008d1d1b          	slliw	s10,s10,0x8
   131ba:	9f3d                	addw	a4,a4,a5
   131bc:	00cd6d33          	or	s10,s10,a2
   131c0:	00a8c7b3          	xor	a5,a7,a0
   131c4:	00544683          	lbu	a3,5(s0)
   131c8:	00644b03          	lbu	s6,6(s0)
   131cc:	9fb9                	addw	a5,a5,a4
   131ce:	00bd6d33          	or	s10,s10,a1
   131d2:	674a                	ld	a4,144(sp)
   131d4:	0189191b          	slliw	s2,s2,0x18
   131d8:	012d65b3          	or	a1,s10,s2
   131dc:	00b788bb          	addw	a7,a5,a1
   131e0:	00744603          	lbu	a2,7(s0)
   131e4:	00e8883b          	addw	a6,a7,a4
   131e8:	00444483          	lbu	s1,4(s0)
   131ec:	0106979b          	slliw	a5,a3,0x10
   131f0:	008b1b1b          	slliw	s6,s6,0x8
   131f4:	12012503          	lw	a0,288(sp)
   131f8:	00fb6b33          	or	s6,s6,a5
   131fc:	0068571b          	srliw	a4,a6,0x6
   13200:	01a8179b          	slliw	a5,a6,0x1a
   13204:	0158131b          	slliw	t1,a6,0x15
   13208:	00cb6b33          	or	s6,s6,a2
   1320c:	00b8569b          	srliw	a3,a6,0xb
   13210:	0198561b          	srliw	a2,a6,0x19
   13214:	8f5d                	or	a4,a4,a5
   13216:	0078179b          	slliw	a5,a6,0x7
   1321a:	00a44c03          	lbu	s8,10(s0)
   1321e:	0066e6b3          	or	a3,a3,t1
   13222:	8fd1                	or	a5,a5,a2
   13224:	0184949b          	slliw	s1,s1,0x18
   13228:	00944603          	lbu	a2,9(s0)
   1322c:	009b6bb3          	or	s7,s6,s1
   13230:	00af033b          	addw	t1,t5,a0
   13234:	8f35                	xor	a4,a4,a3
   13236:	fff84693          	not	a3,a6
   1323a:	00b44503          	lbu	a0,11(s0)
   1323e:	6ae6                	ld	s5,88(sp)
   13240:	8f3d                	xor	a4,a4,a5
   13242:	e82e                	sd	a1,16(sp)
   13244:	00def6b3          	and	a3,t4,a3
   13248:	010e75b3          	and	a1,t3,a6
   1324c:	0173033b          	addw	t1,t1,s7
   13250:	8ead                	xor	a3,a3,a1
   13252:	00e3033b          	addw	t1,t1,a4
   13256:	0106161b          	slliw	a2,a2,0x10
   1325a:	008c1c1b          	slliw	s8,s8,0x8
   1325e:	00d3033b          	addw	t1,t1,a3
   13262:	00cc6c33          	or	s8,s8,a2
   13266:	015305bb          	addw	a1,t1,s5
   1326a:	00ac6c33          	or	s8,s8,a0
   1326e:	12412503          	lw	a0,292(sp)
   13272:	00844f03          	lbu	t5,8(s0)
   13276:	01a5969b          	slliw	a3,a1,0x1a
   1327a:	0155961b          	slliw	a2,a1,0x15
   1327e:	0065d79b          	srliw	a5,a1,0x6
   13282:	00b5d71b          	srliw	a4,a1,0xb
   13286:	8f51                	or	a4,a4,a2
   13288:	8fd5                	or	a5,a5,a3
   1328a:	0075961b          	slliw	a2,a1,0x7
   1328e:	0195d69b          	srliw	a3,a1,0x19
   13292:	84f2                	mv	s1,t3
   13294:	8e55                	or	a2,a2,a3
   13296:	00ae8e3b          	addw	t3,t4,a0
   1329a:	00d44683          	lbu	a3,13(s0)
   1329e:	00e44e83          	lbu	t4,14(s0)
   132a2:	018f1f1b          	slliw	t5,t5,0x18
   132a6:	01ec6c33          	or	s8,s8,t5
   132aa:	00c44503          	lbu	a0,12(s0)
   132ae:	00f44f03          	lbu	t5,15(s0)
   132b2:	8fb9                	xor	a5,a5,a4
   132b4:	fff5c713          	not	a4,a1
   132b8:	6d86                	ld	s11,64(sp)
   132ba:	8fb1                	xor	a5,a5,a2
   132bc:	8f65                	and	a4,a4,s1
   132be:	00b87633          	and	a2,a6,a1
   132c2:	018e0e3b          	addw	t3,t3,s8
   132c6:	0106969b          	slliw	a3,a3,0x10
   132ca:	008e9e9b          	slliw	t4,t4,0x8
   132ce:	00fe0e3b          	addw	t3,t3,a5
   132d2:	8f31                	xor	a4,a4,a2
   132d4:	00deeeb3          	or	t4,t4,a3
   132d8:	00ee063b          	addw	a2,t3,a4
   132dc:	01eeeeb3          	or	t4,t4,t5
   132e0:	0185151b          	slliw	a0,a0,0x18
   132e4:	01b6073b          	addw	a4,a2,s11
   132e8:	00aee3b3          	or	t2,t4,a0
   132ec:	12812503          	lw	a0,296(sp)
   132f0:	01a7179b          	slliw	a5,a4,0x1a
   132f4:	00b75e1b          	srliw	t3,a4,0xb
   132f8:	0067529b          	srliw	t0,a4,0x6
   132fc:	0157169b          	slliw	a3,a4,0x15
   13300:	8d22                	mv	s10,s0
   13302:	00f2e2b3          	or	t0,t0,a5
   13306:	00771f1b          	slliw	t5,a4,0x7
   1330a:	0197541b          	srliw	s0,a4,0x19
   1330e:	00de66b3          	or	a3,t3,a3
   13312:	011d4f83          	lbu	t6,17(s10)
   13316:	012d4e03          	lbu	t3,18(s10)
   1331a:	00d2c6b3          	xor	a3,t0,a3
   1331e:	008f67b3          	or	a5,t5,s0
   13322:	9d25                	addw	a0,a0,s1
   13324:	fff74e93          	not	t4,a4
   13328:	00e5f2b3          	and	t0,a1,a4
   1332c:	8fb5                	xor	a5,a5,a3
   1332e:	010efeb3          	and	t4,t4,a6
   13332:	f81e                	sd	t2,48(sp)
   13334:	0075053b          	addw	a0,a0,t2
   13338:	013d4683          	lbu	a3,19(s10)
   1333c:	6b22                	ld	s6,8(sp)
   1333e:	9d3d                	addw	a0,a0,a5
   13340:	005ec3b3          	xor	t2,t4,t0
   13344:	007503bb          	addw	t2,a0,t2
   13348:	010d4f03          	lbu	t5,16(s10)
   1334c:	010f9f9b          	slliw	t6,t6,0x10
   13350:	008e1e1b          	slliw	t3,t3,0x8
   13354:	016382bb          	addw	t0,t2,s6
   13358:	01fe6e33          	or	t3,t3,t6
   1335c:	00de6e33          	or	t3,t3,a3
   13360:	01a29e9b          	slliw	t4,t0,0x1a
   13364:	00b2d51b          	srliw	a0,t0,0xb
   13368:	69e6                	ld	s3,88(sp)
   1336a:	0062d49b          	srliw	s1,t0,0x6
   1336e:	0152969b          	slliw	a3,t0,0x15
   13372:	01eb179b          	slliw	a5,s6,0x1e
   13376:	013b141b          	slliw	s0,s6,0x13
   1337a:	8ec9                	or	a3,a3,a0
   1337c:	002b5f9b          	srliw	t6,s6,0x2
   13380:	00db591b          	srliw	s2,s6,0xd
   13384:	018f1f1b          	slliw	t5,t5,0x18
   13388:	01d4e4b3          	or	s1,s1,t4
   1338c:	01ee6cb3          	or	s9,t3,t5
   13390:	00896933          	or	s2,s2,s0
   13394:	015dce33          	xor	t3,s11,s5
   13398:	8cb5                	xor	s1,s1,a3
   1339a:	00ab1a9b          	slliw	s5,s6,0xa
   1339e:	12c12683          	lw	a3,300(sp)
   133a2:	016b5f1b          	srliw	t5,s6,0x16
   133a6:	00ffefb3          	or	t6,t6,a5
   133aa:	016d4503          	lbu	a0,22(s10)
   133ae:	015d4403          	lbu	s0,21(s10)
   133b2:	013df9b3          	and	s3,s11,s3
   133b6:	01eaef33          	or	t5,s5,t5
   133ba:	01cb7e33          	and	t3,s6,t3
   133be:	012fcfb3          	xor	t6,t6,s2
   133c2:	0192da1b          	srliw	s4,t0,0x19
   133c6:	013e4e33          	xor	t3,t3,s3
   133ca:	00729e9b          	slliw	t4,t0,0x7
   133ce:	01efcfb3          	xor	t6,t6,t5
   133d2:	017d4903          	lbu	s2,23(s10)
   133d6:	014d4d83          	lbu	s11,20(s10)
   133da:	019687bb          	addw	a5,a3,s9
   133de:	01cf8fbb          	addw	t6,t6,t3
   133e2:	014eeeb3          	or	t4,t4,s4
   133e6:	fff2cb13          	not	s6,t0
   133ea:	0107883b          	addw	a6,a5,a6
   133ee:	ec66                	sd	s9,24(sp)
   133f0:	01f887bb          	addw	a5,a7,t6
   133f4:	00577cb3          	and	s9,a4,t0
   133f8:	01d4ceb3          	xor	t4,s1,t4
   133fc:	00bb7b33          	and	s6,s6,a1
   13400:	0104141b          	slliw	s0,s0,0x10
   13404:	0085151b          	slliw	a0,a0,0x8
   13408:	01d80ebb          	addw	t4,a6,t4
   1340c:	019b4b33          	xor	s6,s6,s9
   13410:	8d41                	or	a0,a0,s0
   13412:	01379e1b          	slliw	t3,a5,0x13
   13416:	00d7d49b          	srliw	s1,a5,0xd
   1341a:	016e86bb          	addw	a3,t4,s6
   1341e:	01256cb3          	or	s9,a0,s2
   13422:	6b22                	ld	s6,8(sp)
   13424:	018d951b          	slliw	a0,s11,0x18
   13428:	01c4e4b3          	or	s1,s1,t3
   1342c:	6d86                	ld	s11,64(sp)
   1342e:	00a79a1b          	slliw	s4,a5,0xa
   13432:	0167de1b          	srliw	t3,a5,0x16
   13436:	00d78fbb          	addw	t6,a5,a3
   1343a:	01ca6e33          	or	t3,s4,t3
   1343e:	13012a03          	lw	s4,304(sp)
   13442:	0027df1b          	srliw	t5,a5,0x2
   13446:	01af981b          	slliw	a6,t6,0x1a
   1344a:	dc36                	sw	a3,56(sp)
   1344c:	01e79e9b          	slliw	t4,a5,0x1e
   13450:	015f969b          	slliw	a3,t6,0x15
   13454:	006fd41b          	srliw	s0,t6,0x6
   13458:	00bfd89b          	srliw	a7,t6,0xb
   1345c:	8aea                	mv	s5,s10
   1345e:	00d8e8b3          	or	a7,a7,a3
   13462:	00aced33          	or	s10,s9,a0
   13466:	019fd99b          	srliw	s3,t6,0x19
   1346a:	01bb4533          	xor	a0,s6,s11
   1346e:	01df6eb3          	or	t4,t5,t4
   13472:	01046433          	or	s0,s0,a6
   13476:	007f981b          	slliw	a6,t6,0x7
   1347a:	019acf03          	lbu	t5,25(s5)
   1347e:	01bb7933          	and	s2,s6,s11
   13482:	01aac683          	lbu	a3,26(s5)
   13486:	8cd6                	mv	s9,s5
   13488:	01144433          	xor	s0,s0,a7
   1348c:	01aa0b3b          	addw	s6,s4,s10
   13490:	009eceb3          	xor	t4,t4,s1
   13494:	8d7d                	and	a0,a0,a5
   13496:	01386833          	or	a6,a6,s3
   1349a:	ffffca93          	not	s5,t6
   1349e:	01f2fdb3          	and	s11,t0,t6
   134a2:	01ceceb3          	xor	t4,t4,t3
   134a6:	00bb0b3b          	addw	s6,s6,a1
   134aa:	01254533          	xor	a0,a0,s2
   134ae:	01044833          	xor	a6,s0,a6
   134b2:	00eafab3          	and	s5,s5,a4
   134b6:	00ae853b          	addw	a0,t4,a0
   134ba:	010b083b          	addw	a6,s6,a6
   134be:	01bacab3          	xor	s5,s5,s11
   134c2:	00a3033b          	addw	t1,t1,a0
   134c6:	01580dbb          	addw	s11,a6,s5
   134ca:	85e6                	mv	a1,s9
   134cc:	01bccc83          	lbu	s9,27(s9)
   134d0:	010f1e1b          	slliw	t3,t5,0x10
   134d4:	0086969b          	slliw	a3,a3,0x8
   134d8:	01b30f3b          	addw	t5,t1,s11
   134dc:	01af141b          	slliw	s0,t5,0x1a
   134e0:	015f189b          	slliw	a7,t5,0x15
   134e4:	0185c583          	lbu	a1,24(a1)
   134e8:	01c6e6b3          	or	a3,a3,t3
   134ec:	006f551b          	srliw	a0,t5,0x6
   134f0:	00bf581b          	srliw	a6,t5,0xb
   134f4:	6b22                	ld	s6,8(sp)
   134f6:	0196e6b3          	or	a3,a3,s9
   134fa:	01186833          	or	a6,a6,a7
   134fe:	6c82                	ld	s9,0(sp)
   13500:	8d41                	or	a0,a0,s0
   13502:	01054533          	xor	a0,a0,a6
   13506:	13412803          	lw	a6,308(sp)
   1350a:	01e3191b          	slliw	s2,t1,0x1e
   1350e:	01331e9b          	slliw	t4,t1,0x13
   13512:	019f599b          	srliw	s3,t5,0x19
   13516:	0185959b          	slliw	a1,a1,0x18
   1351a:	00235e1b          	srliw	t3,t1,0x2
   1351e:	00d3549b          	srliw	s1,t1,0xd
   13522:	007f189b          	slliw	a7,t5,0x7
   13526:	01dcc403          	lbu	s0,29(s9)
   1352a:	012e6e33          	or	t3,t3,s2
   1352e:	00a31a1b          	slliw	s4,t1,0xa
   13532:	e4ea                	sd	s10,72(sp)
   13534:	01d4e4b3          	or	s1,s1,t4
   13538:	00b6ed33          	or	s10,a3,a1
   1353c:	01635e9b          	srliw	t4,t1,0x16
   13540:	01ecc683          	lbu	a3,30(s9)
   13544:	00fb45b3          	xor	a1,s6,a5
   13548:	0138e8b3          	or	a7,a7,s3
   1354c:	00fb7933          	and	s2,s6,a5
   13550:	009e44b3          	xor	s1,t3,s1
   13554:	01a80b3b          	addw	s6,a6,s10
   13558:	01da6eb3          	or	t4,s4,t4
   1355c:	0065f5b3          	and	a1,a1,t1
   13560:	ffff4a93          	not	s5,t5
   13564:	011548b3          	xor	a7,a0,a7
   13568:	01fcc503          	lbu	a0,31(s9)
   1356c:	01cccc83          	lbu	s9,28(s9)
   13570:	01eff9b3          	and	s3,t6,t5
   13574:	01d4ceb3          	xor	t4,s1,t4
   13578:	00eb073b          	addw	a4,s6,a4
   1357c:	005afab3          	and	s5,s5,t0
   13580:	0125c5b3          	xor	a1,a1,s2
   13584:	00be85bb          	addw	a1,t4,a1
   13588:	011708bb          	addw	a7,a4,a7
   1358c:	013ac833          	xor	a6,s5,s3
   13590:	0086969b          	slliw	a3,a3,0x8
   13594:	0104141b          	slliw	s0,s0,0x10
   13598:	00b60e3b          	addw	t3,a2,a1
   1359c:	0108883b          	addw	a6,a7,a6
   135a0:	018c991b          	slliw	s2,s9,0x18
   135a4:	8c55                	or	s0,s0,a3
   135a6:	6c82                	ld	s9,0(sp)
   135a8:	010e0ebb          	addw	t4,t3,a6
   135ac:	8c49                	or	s0,s0,a0
   135ae:	015e971b          	slliw	a4,t4,0x15
   135b2:	01246433          	or	s0,s0,s2
   135b6:	00bed99b          	srliw	s3,t4,0xb
   135ba:	01ee169b          	slliw	a3,t3,0x1e
   135be:	013e189b          	slliw	a7,t3,0x13
   135c2:	00e9e9b3          	or	s3,s3,a4
   135c6:	002e551b          	srliw	a0,t3,0x2
   135ca:	022cc703          	lbu	a4,34(s9)
   135ce:	00de559b          	srliw	a1,t3,0xd
   135d2:	f022                	sd	s0,32(sp)
   135d4:	021cc403          	lbu	s0,33(s9)
   135d8:	0115e5b3          	or	a1,a1,a7
   135dc:	8d55                	or	a0,a0,a3
   135de:	023cca83          	lbu	s5,35(s9)
   135e2:	00b546b3          	xor	a3,a0,a1
   135e6:	020cc583          	lbu	a1,32(s9)
   135ea:	0087171b          	slliw	a4,a4,0x8
   135ee:	0104141b          	slliw	s0,s0,0x10
   135f2:	016e5b1b          	srliw	s6,t3,0x16
   135f6:	00ae191b          	slliw	s2,t3,0xa
   135fa:	8c59                	or	s0,s0,a4
   135fc:	8566                	mv	a0,s9
   135fe:	01696933          	or	s2,s2,s6
   13602:	01546433          	or	s0,s0,s5
   13606:	0185959b          	slliw	a1,a1,0x18
   1360a:	00b46cb3          	or	s9,s0,a1
   1360e:	0067c8b3          	xor	a7,a5,t1
   13612:	02654583          	lbu	a1,38(a0)
   13616:	0126c6b3          	xor	a3,a3,s2
   1361a:	02554903          	lbu	s2,37(a0)
   1361e:	8b2a                	mv	s6,a0
   13620:	0067f7b3          	and	a5,a5,t1
   13624:	01c8f8b3          	and	a7,a7,t3
   13628:	024b4403          	lbu	s0,36(s6)
   1362c:	13c12703          	lw	a4,316(sp)
   13630:	027b4a83          	lbu	s5,39(s6)
   13634:	00f8c8b3          	xor	a7,a7,a5
   13638:	011688bb          	addw	a7,a3,a7
   1363c:	0109191b          	slliw	s2,s2,0x10
   13640:	0085959b          	slliw	a1,a1,0x8
   13644:	0113853b          	addw	a0,t2,a7
   13648:	0125e5b3          	or	a1,a1,s2
   1364c:	019708bb          	addw	a7,a4,s9
   13650:	01e5179b          	slliw	a5,a0,0x1e
   13654:	0155eab3          	or	s5,a1,s5
   13658:	0025569b          	srliw	a3,a0,0x2
   1365c:	0184171b          	slliw	a4,s0,0x18
   13660:	00eae733          	or	a4,s5,a4
   13664:	8edd                	or	a3,a3,a5
   13666:	14012a83          	lw	s5,320(sp)
   1366a:	00d5579b          	srliw	a5,a0,0xd
   1366e:	0135139b          	slliw	t2,a0,0x13
   13672:	0077e3b3          	or	t2,a5,t2
   13676:	0076c6b3          	xor	a3,a3,t2
   1367a:	0165579b          	srliw	a5,a0,0x16
   1367e:	00a5139b          	slliw	t2,a0,0xa
   13682:	006ed49b          	srliw	s1,t4,0x6
   13686:	01ae961b          	slliw	a2,t4,0x1a
   1368a:	00f3e3b3          	or	t2,t2,a5
   1368e:	00ea87bb          	addw	a5,s5,a4
   13692:	01e78abb          	addw	s5,a5,t5
   13696:	019eda1b          	srliw	s4,t4,0x19
   1369a:	8e45                	or	a2,a2,s1
   1369c:	007e949b          	slliw	s1,t4,0x7
   136a0:	0144e4b3          	or	s1,s1,s4
   136a4:	c8d6                	sw	s5,80(sp)
   136a6:	13812a03          	lw	s4,312(sp)
   136aa:	7a82                	ld	s5,32(sp)
   136ac:	02ab4583          	lbu	a1,42(s6)
   136b0:	0076c3b3          	xor	t2,a3,t2
   136b4:	015a0abb          	addw	s5,s4,s5
   136b8:	029b4683          	lbu	a3,41(s6)
   136bc:	01364633          	xor	a2,a2,s3
   136c0:	02bb4783          	lbu	a5,43(s6)
   136c4:	028b4983          	lbu	s3,40(s6)
   136c8:	005a82bb          	addw	t0,s5,t0
   136cc:	00859b1b          	slliw	s6,a1,0x8
   136d0:	8e25                	xor	a2,a2,s1
   136d2:	fffec593          	not	a1,t4
   136d6:	01f888bb          	addw	a7,a7,t6
   136da:	00c2863b          	addw	a2,t0,a2
   136de:	01f5ffb3          	and	t6,a1,t6
   136e2:	01df72b3          	and	t0,t5,t4
   136e6:	005fcfb3          	xor	t6,t6,t0
   136ea:	0106969b          	slliw	a3,a3,0x10
   136ee:	01f6063b          	addw	a2,a2,t6
   136f2:	00db66b3          	or	a3,s6,a3
   136f6:	00c505bb          	addw	a1,a0,a2
   136fa:	8fd5                	or	a5,a5,a3
   136fc:	0189999b          	slliw	s3,s3,0x18
   13700:	0137eab3          	or	s5,a5,s3
   13704:	0065df9b          	srliw	t6,a1,0x6
   13708:	00b5d29b          	srliw	t0,a1,0xb
   1370c:	01a5969b          	slliw	a3,a1,0x1a
   13710:	0155979b          	slliw	a5,a1,0x15
   13714:	00f2e7b3          	or	a5,t0,a5
   13718:	00dfe6b3          	or	a3,t6,a3
   1371c:	8ebd                	xor	a3,a3,a5
   1371e:	14412783          	lw	a5,324(sp)
   13722:	0075999b          	slliw	s3,a1,0x7
   13726:	6a02                	ld	s4,0(sp)
   13728:	015787bb          	addw	a5,a5,s5
   1372c:	01d787bb          	addw	a5,a5,t4
   13730:	d4be                	sw	a5,104(sp)
   13732:	0195d79b          	srliw	a5,a1,0x19
   13736:	00f9e7b3          	or	a5,s3,a5
   1373a:	8fb5                	xor	a5,a5,a3
   1373c:	00f886bb          	addw	a3,a7,a5
   13740:	fff5c793          	not	a5,a1
   13744:	01e7ff33          	and	t5,a5,t5
   13748:	00bef7b3          	and	a5,t4,a1
   1374c:	00ff47b3          	xor	a5,t5,a5
   13750:	9fb5                	addw	a5,a5,a3
   13752:	01c346b3          	xor	a3,t1,t3
   13756:	58e2                	lw	a7,56(sp)
   13758:	8ee9                	and	a3,a3,a0
   1375a:	01c37333          	and	t1,t1,t3
   1375e:	0066c333          	xor	t1,a3,t1
   13762:	006386bb          	addw	a3,t2,t1
   13766:	00d886bb          	addw	a3,a7,a3
   1376a:	02ea4f83          	lbu	t6,46(s4)
   1376e:	02da4283          	lbu	t0,45(s4)
   13772:	0026d39b          	srliw	t2,a3,0x2
   13776:	01e6931b          	slliw	t1,a3,0x1e
   1377a:	0063e333          	or	t1,t2,t1
   1377e:	00d6d89b          	srliw	a7,a3,0xd
   13782:	0136939b          	slliw	t2,a3,0x13
   13786:	00ae7933          	and	s2,t3,a0
   1378a:	02fa4483          	lbu	s1,47(s4)
   1378e:	02ca4f03          	lbu	t5,44(s4)
   13792:	00ae4433          	xor	s0,t3,a0
   13796:	0078e3b3          	or	t2,a7,t2
   1379a:	00a69e1b          	slliw	t3,a3,0xa
   1379e:	0166d89b          	srliw	a7,a3,0x16
   137a2:	011e68b3          	or	a7,t3,a7
   137a6:	0102929b          	slliw	t0,t0,0x10
   137aa:	007343b3          	xor	t2,t1,t2
   137ae:	008f9f9b          	slliw	t6,t6,0x8
   137b2:	005fefb3          	or	t6,t6,t0
   137b6:	0113c3b3          	xor	t2,t2,a7
   137ba:	14812883          	lw	a7,328(sp)
   137be:	009fe4b3          	or	s1,t6,s1
   137c2:	f456                	sd	s5,40(sp)
   137c4:	8ad2                	mv	s5,s4
   137c6:	018f1a1b          	slliw	s4,t5,0x18
   137ca:	0144ea33          	or	s4,s1,s4
   137ce:	014888bb          	addw	a7,a7,s4
   137d2:	8c75                	and	s0,s0,a3
   137d4:	00b888bb          	addw	a7,a7,a1
   137d8:	01244433          	xor	s0,s0,s2
   137dc:	032ac303          	lbu	t1,50(s5)
   137e0:	031acf83          	lbu	t6,49(s5)
   137e4:	d8c6                	sw	a7,112(sp)
   137e6:	008388bb          	addw	a7,t2,s0
   137ea:	011d88bb          	addw	a7,s11,a7
   137ee:	030ac383          	lbu	t2,48(s5)
   137f2:	0028df1b          	srliw	t5,a7,0x2
   137f6:	01e89e1b          	slliw	t3,a7,0x1e
   137fa:	01cf6433          	or	s0,t5,t3
   137fe:	033ac283          	lbu	t0,51(s5)
   13802:	00d8de1b          	srliw	t3,a7,0xd
   13806:	01389f1b          	slliw	t5,a7,0x13
   1380a:	010f9f9b          	slliw	t6,t6,0x10
   1380e:	0083131b          	slliw	t1,t1,0x8
   13812:	01f36333          	or	t1,t1,t6
   13816:	01ee6f33          	or	t5,t3,t5
   1381a:	0168df9b          	srliw	t6,a7,0x16
   1381e:	00a89e1b          	slliw	t3,a7,0xa
   13822:	0183999b          	slliw	s3,t2,0x18
   13826:	00d543b3          	xor	t2,a0,a3
   1382a:	01fe6e33          	or	t3,t3,t6
   1382e:	0113f3b3          	and	t2,t2,a7
   13832:	01e44f33          	xor	t5,s0,t5
   13836:	8d75                	and	a0,a0,a3
   13838:	14c12403          	lw	s0,332(sp)
   1383c:	005362b3          	or	t0,t1,t0
   13840:	01cf4f33          	xor	t5,t5,t3
   13844:	00a3c533          	xor	a0,t2,a0
   13848:	0132e9b3          	or	s3,t0,s3
   1384c:	036ac303          	lbu	t1,54(s5)
   13850:	035acf83          	lbu	t6,53(s5)
   13854:	00af053b          	addw	a0,t5,a0
   13858:	00a8083b          	addw	a6,a6,a0
   1385c:	0134043b          	addw	s0,s0,s3
   13860:	01e8151b          	slliw	a0,a6,0x1e
   13864:	d6a2                	sw	s0,108(sp)
   13866:	0028539b          	srliw	t2,a6,0x2
   1386a:	037ac283          	lbu	t0,55(s5)
   1386e:	034ac483          	lbu	s1,52(s5)
   13872:	00a3e3b3          	or	t2,t2,a0
   13876:	00d85f1b          	srliw	t5,a6,0xd
   1387a:	0083151b          	slliw	a0,t1,0x8
   1387e:	010f9f9b          	slliw	t6,t6,0x10
   13882:	0138131b          	slliw	t1,a6,0x13
   13886:	01f56fb3          	or	t6,a0,t6
   1388a:	006f6f33          	or	t5,t5,t1
   1388e:	0116ce33          	xor	t3,a3,a7
   13892:	005fe2b3          	or	t0,t6,t0
   13896:	00a8191b          	slliw	s2,a6,0xa
   1389a:	01e3cf33          	xor	t5,t2,t5
   1389e:	0168551b          	srliw	a0,a6,0x16
   138a2:	0184939b          	slliw	t2,s1,0x18
   138a6:	0072e3b3          	or	t2,t0,t2
   138aa:	0116f433          	and	s0,a3,a7
   138ae:	00a96533          	or	a0,s2,a0
   138b2:	15012283          	lw	t0,336(sp)
   138b6:	010e7e33          	and	t3,t3,a6
   138ba:	00af4f33          	xor	t5,t5,a0
   138be:	008e4e33          	xor	t3,t3,s0
   138c2:	01cf0e3b          	addw	t3,t5,t3
   138c6:	01c6063b          	addw	a2,a2,t3
   138ca:	007282bb          	addw	t0,t0,t2
   138ce:	03aac303          	lbu	t1,58(s5)
   138d2:	039acf83          	lbu	t6,57(s5)
   138d6:	00265e1b          	srliw	t3,a2,0x2
   138da:	da96                	sw	t0,116(sp)
   138dc:	01e6151b          	slliw	a0,a2,0x1e
   138e0:	0136129b          	slliw	t0,a2,0x13
   138e4:	00d65f1b          	srliw	t5,a2,0xd
   138e8:	005f6f33          	or	t5,t5,t0
   138ec:	00ae6533          	or	a0,t3,a0
   138f0:	01e54533          	xor	a0,a0,t5
   138f4:	03bace03          	lbu	t3,59(s5)
   138f8:	038acf03          	lbu	t5,56(s5)
   138fc:	0166541b          	srliw	s0,a2,0x16
   13900:	00a6129b          	slliw	t0,a2,0xa
   13904:	0083131b          	slliw	t1,t1,0x8
   13908:	010f9f9b          	slliw	t6,t6,0x10
   1390c:	0082e2b3          	or	t0,t0,s0
   13910:	01f36fb3          	or	t6,t1,t6
   13914:	00554533          	xor	a0,a0,t0
   13918:	018f1f1b          	slliw	t5,t5,0x18
   1391c:	01cfe2b3          	or	t0,t6,t3
   13920:	01e2e2b3          	or	t0,t0,t5
   13924:	0108cf33          	xor	t5,a7,a6
   13928:	0108ffb3          	and	t6,a7,a6
   1392c:	00cf7f33          	and	t5,t5,a2
   13930:	01ff4f33          	xor	t5,t5,t6
   13934:	01e50f3b          	addw	t5,a0,t5
   13938:	15412503          	lw	a0,340(sp)
   1393c:	01e78fbb          	addw	t6,a5,t5
   13940:	002fd41b          	srliw	s0,t6,0x2
   13944:	0055053b          	addw	a0,a0,t0
   13948:	d12a                	sw	a0,160(sp)
   1394a:	01ef951b          	slliw	a0,t6,0x1e
   1394e:	84d6                	mv	s1,s5
   13950:	00dfdf1b          	srliw	t5,t6,0xd
   13954:	8c49                	or	s0,s0,a0
   13956:	013f951b          	slliw	a0,t6,0x13
   1395a:	03eac303          	lbu	t1,62(s5)
   1395e:	03d4c903          	lbu	s2,61(s1)
   13962:	00af6533          	or	a0,t5,a0
   13966:	8c29                	xor	s0,s0,a0
   13968:	00af9f1b          	slliw	t5,t6,0xa
   1396c:	016fd51b          	srliw	a0,t6,0x16
   13970:	00af6533          	or	a0,t5,a0
   13974:	0083131b          	slliw	t1,t1,0x8
   13978:	8d21                	xor	a0,a0,s0
   1397a:	0109191b          	slliw	s2,s2,0x10
   1397e:	847e                	mv	s0,t6
   13980:	00c84e33          	xor	t3,a6,a2
   13984:	01236933          	or	s2,t1,s2
   13988:	8322                	mv	t1,s0
   1398a:	00c87ab3          	and	s5,a6,a2
   1398e:	03f4cb03          	lbu	s6,63(s1)
   13992:	006e7e33          	and	t3,t3,t1
   13996:	03c4c483          	lbu	s1,60(s1)
   1399a:	015e4e33          	xor	t3,t3,s5
   1399e:	01c5053b          	addw	a0,a0,t3
   139a2:	15812e03          	lw	t3,344(sp)
   139a6:	01696b33          	or	s6,s2,s6
   139aa:	01849f9b          	slliw	t6,s1,0x18
   139ae:	01fb6fb3          	or	t6,s6,t6
   139b2:	01fe0e3b          	addw	t3,t3,t6
   139b6:	00664db3          	xor	s11,a2,t1
   139ba:	00667333          	and	t1,a2,t1
   139be:	f09a                	sd	t1,96(sp)
   139c0:	0112d91b          	srliw	s2,t0,0x11
   139c4:	0132df1b          	srliw	t5,t0,0x13
   139c8:	d972                	sw	t3,176(sp)
   139ca:	00d2931b          	slliw	t1,t0,0xd
   139ce:	00f29e1b          	slliw	t3,t0,0xf
   139d2:	01e36333          	or	t1,t1,t5
   139d6:	012e6e33          	or	t3,t3,s2
   139da:	006e4e33          	xor	t3,t3,t1
   139de:	6342                	ld	t1,16(sp)
   139e0:	9ebd                	addw	a3,a3,a5
   139e2:	01a6979b          	slliw	a5,a3,0x1a
   139e6:	00e3033b          	addw	t1,t1,a4
   139ea:	d31a                	sw	t1,164(sp)
   139ec:	0066d31b          	srliw	t1,a3,0x6
   139f0:	dc22                	sw	s0,56(sp)
   139f2:	00f367b3          	or	a5,t1,a5
   139f6:	007bd41b          	srliw	s0,s7,0x7
   139fa:	019b931b          	slliw	t1,s7,0x19
   139fe:	00b6d49b          	srliw	s1,a3,0xb
   13a02:	00646433          	or	s0,s0,t1
   13a06:	0156931b          	slliw	t1,a3,0x15
   13a0a:	0064e333          	or	t1,s1,t1
   13a0e:	00eb9f1b          	slliw	t5,s7,0xe
   13a12:	0067c7b3          	xor	a5,a5,t1
   13a16:	012bd31b          	srliw	t1,s7,0x12
   13a1a:	006f6333          	or	t1,t5,t1
   13a1e:	003bd91b          	srliw	s2,s7,0x3
   13a22:	00644333          	xor	t1,s0,t1
   13a26:	0196df1b          	srliw	t5,a3,0x19
   13a2a:	0076941b          	slliw	s0,a3,0x7
   13a2e:	01234333          	xor	t1,t1,s2
   13a32:	01e46f33          	or	t5,s0,t5
   13a36:	4946                	lw	s2,80(sp)
   13a38:	01e7c7b3          	xor	a5,a5,t5
   13a3c:	fff6cf13          	not	t5,a3
   13a40:	01df7eb3          	and	t4,t5,t4
   13a44:	00d5ff33          	and	t5,a1,a3
   13a48:	01eeceb3          	xor	t4,t4,t5
   13a4c:	00f907bb          	addw	a5,s2,a5
   13a50:	01d787bb          	addw	a5,a5,t4
   13a54:	00f8843b          	addw	s0,a7,a5
   13a58:	0064591b          	srliw	s2,s0,0x6
   13a5c:	011fde9b          	srliw	t4,t6,0x11
   13a60:	00ff949b          	slliw	s1,t6,0xf
   13a64:	c8ca                	sw	s2,80(sp)
   13a66:	00a7893b          	addw	s2,a5,a0
   13a6a:	013fd79b          	srliw	a5,t6,0x13
   13a6e:	00df951b          	slliw	a0,t6,0xd
   13a72:	01d4e4b3          	or	s1,s1,t4
   13a76:	8d5d                	or	a0,a0,a5
   13a78:	00afda9b          	srliw	s5,t6,0xa
   13a7c:	8d25                	xor	a0,a0,s1
   13a7e:	01554533          	xor	a0,a0,s5
   13a82:	7aa2                	ld	s5,40(sp)
   13a84:	88ca                	mv	a7,s2
   13a86:	00ec1f1b          	slliw	t5,s8,0xe
   13a8a:	c822                	sw	s0,16(sp)
   13a8c:	007c579b          	srliw	a5,s8,0x7
   13a90:	0029541b          	srliw	s0,s2,0x2
   13a94:	012c5e9b          	srliw	t4,s8,0x12
   13a98:	019c191b          	slliw	s2,s8,0x19
   13a9c:	01df6eb3          	or	t4,t5,t4
   13aa0:	0127e7b3          	or	a5,a5,s2
   13aa4:	017a8b3b          	addw	s6,s5,s7
   13aa8:	01d7c7b3          	xor	a5,a5,t4
   13aac:	003c5e9b          	srliw	t4,s8,0x3
   13ab0:	00ab053b          	addw	a0,s6,a0
   13ab4:	01d7c7b3          	xor	a5,a5,t4
   13ab8:	00f504bb          	addw	s1,a0,a5
   13abc:	77c2                	ld	a5,48(sp)
   13abe:	01e89b9b          	slliw	s7,a7,0x1e
   13ac2:	8946                	mv	s2,a7
   13ac4:	00d8de9b          	srliw	t4,a7,0xd
   13ac8:	00e7951b          	slliw	a0,a5,0xe
   13acc:	88be                	mv	a7,a5
   13ace:	0077df1b          	srliw	t5,a5,0x7
   13ad2:	01746bb3          	or	s7,s0,s7
   13ad6:	0197941b          	slliw	s0,a5,0x19
   13ada:	0127d79b          	srliw	a5,a5,0x12
   13ade:	8fc9                	or	a5,a5,a0
   13ae0:	008f6f33          	or	t5,t5,s0
   13ae4:	01391b1b          	slliw	s6,s2,0x13
   13ae8:	0038d41b          	srliw	s0,a7,0x3
   13aec:	016eeb33          	or	s6,t4,s6
   13af0:	00ff4f33          	xor	t5,t5,a5
   13af4:	6ee2                	ld	t4,24(sp)
   13af6:	008f4f33          	xor	t5,t5,s0
   13afa:	16012403          	lw	s0,352(sp)
   13afe:	018a07bb          	addw	a5,s4,s8
   13b02:	01e78f3b          	addw	t5,a5,t5
   13b06:	00ee9c1b          	slliw	s8,t4,0xe
   13b0a:	012ed79b          	srliw	a5,t4,0x12
   13b0e:	88ca                	mv	a7,s2
   13b10:	9c25                	addw	s0,s0,s1
   13b12:	00a91a9b          	slliw	s5,s2,0xa
   13b16:	00fc6c33          	or	s8,s8,a5
   13b1a:	0134d91b          	srliw	s2,s1,0x13
   13b1e:	00d4979b          	slliw	a5,s1,0xd
   13b22:	019e951b          	slliw	a0,t4,0x19
   13b26:	0127e7b3          	or	a5,a5,s2
   13b2a:	df22                	sw	s0,188(sp)
   13b2c:	00a2d91b          	srliw	s2,t0,0xa
   13b30:	007ed41b          	srliw	s0,t4,0x7
   13b34:	8c49                	or	s0,s0,a0
   13b36:	016bcbb3          	xor	s7,s7,s6
   13b3a:	0114d51b          	srliw	a0,s1,0x11
   13b3e:	00f49b1b          	slliw	s6,s1,0xf
   13b42:	012e4933          	xor	s2,t3,s2
   13b46:	5e1a                	lw	t3,164(sp)
   13b48:	01844eb3          	xor	t4,s0,s8
   13b4c:	00ab6533          	or	a0,s6,a0
   13b50:	6c62                	ld	s8,24(sp)
   13b52:	8d3d                	xor	a0,a0,a5
   13b54:	0168d79b          	srliw	a5,a7,0x16
   13b58:	00fae7b3          	or	a5,s5,a5
   13b5c:	012e093b          	addw	s2,t3,s2
   13b60:	8ac6                	mv	s5,a7
   13b62:	7886                	ld	a7,96(sp)
   13b64:	0069093b          	addw	s2,s2,t1
   13b68:	00fbcbb3          	xor	s7,s7,a5
   13b6c:	003c541b          	srliw	s0,s8,0x3
   13b70:	87d6                	mv	a5,s5
   13b72:	008ec433          	xor	s0,t4,s0
   13b76:	00f9131b          	slliw	t1,s2,0xf
   13b7a:	7ec2                	ld	t4,48(sp)
   13b7c:	01195e1b          	srliw	t3,s2,0x11
   13b80:	00fdfdb3          	and	s11,s11,a5
   13b84:	011dcdb3          	xor	s11,s11,a7
   13b88:	01c36e33          	or	t3,t1,t3
   13b8c:	58e2                	lw	a7,56(sp)
   13b8e:	00d9131b          	slliw	t1,s2,0xd
   13b92:	0139579b          	srliw	a5,s2,0x13
   13b96:	01bb8b3b          	addw	s6,s7,s11
   13b9a:	00f367b3          	or	a5,t1,a5
   13b9e:	6da6                	ld	s11,72(sp)
   13ba0:	00a4dc1b          	srliw	s8,s1,0xa
   13ba4:	8bd6                	mv	s7,s5
   13ba6:	01d98ebb          	addw	t4,s3,t4
   13baa:	00fe4e33          	xor	t3,t3,a5
   13bae:	00a9579b          	srliw	a5,s2,0xa
   13bb2:	0178c333          	xor	t1,a7,s7
   13bb6:	00fe4e33          	xor	t3,t3,a5
   13bba:	01854533          	xor	a0,a0,s8
   13bbe:	008e8ebb          	addw	t4,t4,s0
   13bc2:	01cf0f3b          	addw	t5,t5,t3
   13bc6:	00ae8ebb          	addw	t4,t4,a0
   13bca:	6c62                	ld	s8,24(sp)
   13bcc:	007dde1b          	srliw	t3,s11,0x7
   13bd0:	f09a                	sd	t1,96(sp)
   13bd2:	019d951b          	slliw	a0,s11,0x19
   13bd6:	012dd31b          	srliw	t1,s11,0x12
   13bda:	00ed979b          	slliw	a5,s11,0xe
   13bde:	0067e7b3          	or	a5,a5,t1
   13be2:	00ae6533          	or	a0,t3,a0
   13be6:	8d3d                	xor	a0,a0,a5
   13be8:	003dd79b          	srliw	a5,s11,0x3
   13bec:	8d3d                	xor	a0,a0,a5
   13bee:	018387bb          	addw	a5,t2,s8
   13bf2:	00a78bbb          	addw	s7,a5,a0
   13bf6:	019d1e1b          	slliw	t3,s10,0x19
   13bfa:	007d541b          	srliw	s0,s10,0x7
   13bfe:	01c46433          	or	s0,s0,t3
   13c02:	d75e                	sw	s7,172(sp)
   13c04:	16812e03          	lw	t3,360(sp)
   13c08:	15c12b83          	lw	s7,348(sp)
   13c0c:	012d579b          	srliw	a5,s10,0x12
   13c10:	01ce8e3b          	addw	t3,t4,t3
   13c14:	01790bbb          	addw	s7,s2,s7
   13c18:	00ed151b          	slliw	a0,s10,0xe
   13c1c:	d856                	sw	s5,48(sp)
   13c1e:	dd5e                	sw	s7,184(sp)
   13c20:	00de9a9b          	slliw	s5,t4,0xd
   13c24:	011edb9b          	srliw	s7,t4,0x11
   13c28:	c3f2                	sw	t3,196(sp)
   13c2a:	8d5d                	or	a0,a0,a5
   13c2c:	013ede1b          	srliw	t3,t4,0x13
   13c30:	00fe979b          	slliw	a5,t4,0xf
   13c34:	003d5c1b          	srliw	s8,s10,0x3
   13c38:	01caee33          	or	t3,s5,t3
   13c3c:	8d21                	xor	a0,a0,s0
   13c3e:	0177e7b3          	or	a5,a5,s7
   13c42:	7b82                	ld	s7,32(sp)
   13c44:	01b2843b          	addw	s0,t0,s11
   13c48:	01854533          	xor	a0,a0,s8
   13c4c:	01c7c7b3          	xor	a5,a5,t3
   13c50:	00aede1b          	srliw	t3,t4,0xa
   13c54:	01c7c7b3          	xor	a5,a5,t3
   13c58:	9d21                	addw	a0,a0,s0
   13c5a:	00f5043b          	addw	s0,a0,a5
   13c5e:	012bda9b          	srliw	s5,s7,0x12
   13c62:	007bd51b          	srliw	a0,s7,0x7
   13c66:	019b9e1b          	slliw	t3,s7,0x19
   13c6a:	00eb979b          	slliw	a5,s7,0xe
   13c6e:	0157e7b3          	or	a5,a5,s5
   13c72:	01c56e33          	or	t3,a0,t3
   13c76:	4dc2                	lw	s11,16(sp)
   13c78:	5c36                	lw	s8,108(sp)
   13c7a:	00fe4e33          	xor	t3,t3,a5
   13c7e:	17012783          	lw	a5,368(sp)
   13c82:	003bd51b          	srliw	a0,s7,0x3
   13c86:	00dc0c3b          	addw	s8,s8,a3
   13c8a:	9fa1                	addw	a5,a5,s0
   13c8c:	00ae4e33          	xor	t3,t3,a0
   13c90:	fffdcb93          	not	s7,s11
   13c94:	01af853b          	addw	a0,t6,s10
   13c98:	01c50e3b          	addw	t3,a0,t3
   13c9c:	012cda9b          	srliw	s5,s9,0x12
   13ca0:	d362                	sw	s8,164(sp)
   13ca2:	c7be                	sw	a5,204(sp)
   13ca4:	5c56                	lw	s8,116(sp)
   13ca6:	007cd51b          	srliw	a0,s9,0x7
   13caa:	00bbfbb3          	and	s7,s7,a1
   13cae:	00ec979b          	slliw	a5,s9,0xe
   13cb2:	019c959b          	slliw	a1,s9,0x19
   13cb6:	0157e7b3          	or	a5,a5,s5
   13cba:	8d4d                	or	a0,a0,a1
   13cbc:	00d41d1b          	slliw	s10,s0,0xd
   13cc0:	003cd59b          	srliw	a1,s9,0x3
   13cc4:	8d3d                	xor	a0,a0,a5
   13cc6:	00f41a9b          	slliw	s5,s0,0xf
   13cca:	0114579b          	srliw	a5,s0,0x11
   13cce:	cc6a                	sw	s10,24(sp)
   13cd0:	01bc0c3b          	addw	s8,s8,s11
   13cd4:	00faeab3          	or	s5,s5,a5
   13cd8:	007d9d1b          	slliw	s10,s11,0x7
   13cdc:	00ff131b          	slliw	t1,t5,0xf
   13ce0:	8d2d                	xor	a0,a0,a1
   13ce2:	019dd79b          	srliw	a5,s11,0x19
   13ce6:	011f559b          	srliw	a1,t5,0x11
   13cea:	c86e                	sw	s11,16(sp)
   13cec:	d562                	sw	s8,168(sp)
   13cee:	00b36333          	or	t1,t1,a1
   13cf2:	01b6fc33          	and	s8,a3,s11
   13cf6:	00df159b          	slliw	a1,t5,0xd
   13cfa:	00fd67b3          	or	a5,s10,a5
   13cfe:	015d9d1b          	slliw	s10,s11,0x15
   13d02:	013f5d9b          	srliw	s11,t5,0x13
   13d06:	01b5e5b3          	or	a1,a1,s11
   13d0a:	4dc2                	lw	s11,16(sp)
   13d0c:	00b34333          	xor	t1,t1,a1
   13d10:	018bcbb3          	xor	s7,s7,s8
   13d14:	00bdd59b          	srliw	a1,s11,0xb
   13d18:	01a5ed33          	or	s10,a1,s10
   13d1c:	c86e                	sw	s11,16(sp)
   13d1e:	01ad959b          	slliw	a1,s11,0x1a
   13d22:	6dc6                	ld	s11,80(sp)
   13d24:	01345c1b          	srliw	s8,s0,0x13
   13d28:	dc46                	sw	a7,56(sp)
   13d2a:	00bde5b3          	or	a1,s11,a1
   13d2e:	01a5cd33          	xor	s10,a1,s10
   13d32:	55a6                	lw	a1,104(sp)
   13d34:	00fd47b3          	xor	a5,s10,a5
   13d38:	8d46                	mv	s10,a7
   13d3a:	9fad                	addw	a5,a5,a1
   13d3c:	017787bb          	addw	a5,a5,s7
   13d40:	00f8083b          	addw	a6,a6,a5
   13d44:	0068559b          	srliw	a1,a6,0x6
   13d48:	016787bb          	addw	a5,a5,s6
   13d4c:	c4ae                	sw	a1,72(sp)
   13d4e:	01e79b9b          	slliw	s7,a5,0x1e
   13d52:	0027d59b          	srliw	a1,a5,0x2
   13d56:	0175ebb3          	or	s7,a1,s7
   13d5a:	65e2                	ld	a1,24(sp)
   13d5c:	00d7db1b          	srliw	s6,a5,0xd
   13d60:	58c2                	lw	a7,48(sp)
   13d62:	0185ec33          	or	s8,a1,s8
   13d66:	7582                	ld	a1,32(sp)
   13d68:	018acc33          	xor	s8,s5,s8
   13d6c:	00a45a9b          	srliw	s5,s0,0xa
   13d70:	9d2d                	addw	a0,a0,a1
   13d72:	0137959b          	slliw	a1,a5,0x13
   13d76:	00bb65b3          	or	a1,s6,a1
   13d7a:	00bbc5b3          	xor	a1,s7,a1
   13d7e:	0125053b          	addw	a0,a0,s2
   13d82:	015c4c33          	xor	s8,s8,s5
   13d86:	01275b9b          	srliw	s7,a4,0x12
   13d8a:	ec2e                	sd	a1,24(sp)
   13d8c:	00775a9b          	srliw	s5,a4,0x7
   13d90:	018505bb          	addw	a1,a0,s8
   13d94:	01971c1b          	slliw	s8,a4,0x19
   13d98:	00e7151b          	slliw	a0,a4,0xe
   13d9c:	01756533          	or	a0,a0,s7
   13da0:	018aeab3          	or	s5,s5,s8
   13da4:	76f99b37          	lui	s6,0x76f99
   13da8:	011d7d33          	and	s10,s10,a7
   13dac:	00375c1b          	srliw	s8,a4,0x3
   13db0:	8dab0b1b          	addiw	s6,s6,-1830
   13db4:	00aacab3          	xor	s5,s5,a0
   13db8:	f86a                	sd	s10,48(sp)
   13dba:	018acab3          	xor	s5,s5,s8
   13dbe:	01658d3b          	addw	s10,a1,s6
   13dc2:	00af551b          	srliw	a0,t5,0xa
   13dc6:	cbea                	sw	s10,212(sp)
   13dc8:	015c8abb          	addw	s5,s9,s5
   13dcc:	16412c83          	lw	s9,356(sp)
   13dd0:	5c3a                	lw	s8,172(sp)
   13dd2:	00a34333          	xor	t1,t1,a0
   13dd6:	550a                	lw	a0,160(sp)
   13dd8:	006c033b          	addw	t1,s8,t1
   13ddc:	019f0cbb          	addw	s9,t5,s9
   13de0:	c1e6                	sw	s9,192(sp)
   13de2:	00f31b1b          	slliw	s6,t1,0xf
   13de6:	01050cbb          	addw	s9,a0,a6
   13dea:	0113551b          	srliw	a0,t1,0x11
   13dee:	6c42                	ld	s8,16(sp)
   13df0:	d766                	sw	s9,172(sp)
   13df2:	00ab6b33          	or	s6,s6,a0
   13df6:	01335c9b          	srliw	s9,t1,0x13
   13dfa:	00d3151b          	slliw	a0,t1,0xd
   13dfe:	01956533          	or	a0,a0,s9
   13e02:	00ab4b33          	xor	s6,s6,a0
   13e06:	fff84513          	not	a0,a6
   13e0a:	010c7c33          	and	s8,s8,a6
   13e0e:	8ee9                	and	a3,a3,a0
   13e10:	0186c6b3          	xor	a3,a3,s8
   13e14:	e8b6                	sd	a3,80(sp)
   13e16:	16c12683          	lw	a3,364(sp)
   13e1a:	00a3551b          	srliw	a0,t1,0xa
   13e1e:	7d22                	ld	s10,40(sp)
   13e20:	00ab4533          	xor	a0,s6,a0
   13e24:	00ae053b          	addw	a0,t3,a0
   13e28:	00d306bb          	addw	a3,t1,a3
   13e2c:	00f51e1b          	slliw	t3,a0,0xf
   13e30:	c5b6                	sw	a3,200(sp)
   13e32:	0115569b          	srliw	a3,a0,0x11
   13e36:	007d5b9b          	srliw	s7,s10,0x7
   13e3a:	00de66b3          	or	a3,t3,a3
   13e3e:	012d5c1b          	srliw	s8,s10,0x12
   13e42:	019d1b1b          	slliw	s6,s10,0x19
   13e46:	00ed1e1b          	slliw	t3,s10,0xe
   13e4a:	018e6e33          	or	t3,t3,s8
   13e4e:	016beb33          	or	s6,s7,s6
   13e52:	003d5c1b          	srliw	s8,s10,0x3
   13e56:	01cb4b33          	xor	s6,s6,t3
   13e5a:	00d51c9b          	slliw	s9,a0,0xd
   13e5e:	018b4b33          	xor	s6,s6,s8
   13e62:	01355c1b          	srliw	s8,a0,0x13
   13e66:	0115dd9b          	srliw	s11,a1,0x11
   13e6a:	00d59d1b          	slliw	s10,a1,0xd
   13e6e:	00f59b9b          	slliw	s7,a1,0xf
   13e72:	0135de1b          	srliw	t3,a1,0x13
   13e76:	018cec33          	or	s8,s9,s8
   13e7a:	01bbebb3          	or	s7,s7,s11
   13e7e:	0186cc33          	xor	s8,a3,s8
   13e82:	01cd6e33          	or	t3,s10,t3
   13e86:	00a5569b          	srliw	a3,a0,0xa
   13e8a:	00dc4c33          	xor	s8,s8,a3
   13e8e:	00a5dd9b          	srliw	s11,a1,0xa
   13e92:	01670b3b          	addw	s6,a4,s6
   13e96:	01cbce33          	xor	t3,s7,t3
   13e9a:	00ea169b          	slliw	a3,s4,0xe
   13e9e:	012a5b9b          	srliw	s7,s4,0x12
   13ea2:	01be4e33          	xor	t3,t3,s11
   13ea6:	0176e6b3          	or	a3,a3,s7
   13eaa:	009a8abb          	addw	s5,s5,s1
   13eae:	01eb0b3b          	addw	s6,s6,t5
   13eb2:	983e5bb7          	lui	s7,0x983e5
   13eb6:	01cb0b3b          	addw	s6,s6,t3
   13eba:	018a8abb          	addw	s5,s5,s8
   13ebe:	007a571b          	srliw	a4,s4,0x7
   13ec2:	019a1c1b          	slliw	s8,s4,0x19
   13ec6:	a831ce37          	lui	t3,0xa831c
   13eca:	152b8b9b          	addiw	s7,s7,338
   13ece:	017a8bbb          	addw	s7,s5,s7
   13ed2:	66de0e1b          	addiw	t3,t3,1645
   13ed6:	01876733          	or	a4,a4,s8
   13eda:	01cb0cbb          	addw	s9,s6,t3
   13ede:	7d22                	ld	s10,40(sp)
   13ee0:	011adc1b          	srliw	s8,s5,0x11
   13ee4:	8f35                	xor	a4,a4,a3
   13ee6:	00fa9e1b          	slliw	t3,s5,0xf
   13eea:	00da969b          	slliw	a3,s5,0xd
   13eee:	cdde                	sw	s7,216(sp)
   13ef0:	013adb9b          	srliw	s7,s5,0x13
   13ef4:	0176e6b3          	or	a3,a3,s7
   13ef8:	cfe6                	sw	s9,220(sp)
   13efa:	018e6e33          	or	t3,t3,s8
   13efe:	003a5c9b          	srliw	s9,s4,0x3
   13f02:	01974733          	xor	a4,a4,s9
   13f06:	00de4e33          	xor	t3,t3,a3
   13f0a:	00aad69b          	srliw	a3,s5,0xa
   13f0e:	00de4e33          	xor	t3,t3,a3
   13f12:	0129db9b          	srliw	s7,s3,0x12
   13f16:	00ed073b          	addw	a4,s10,a4
   13f1a:	00e9969b          	slliw	a3,s3,0xe
   13f1e:	01d7073b          	addw	a4,a4,t4
   13f22:	0176e6b3          	or	a3,a3,s7
   13f26:	17412b83          	lw	s7,372(sp)
   13f2a:	01c70d3b          	addw	s10,a4,t3
   13f2e:	b0032e37          	lui	t3,0xb0032
   13f32:	01999c1b          	slliw	s8,s3,0x19
   13f36:	0079d71b          	srliw	a4,s3,0x7
   13f3a:	7c8e0e1b          	addiw	t3,t3,1992
   13f3e:	01cd0e3b          	addw	t3,s10,t3
   13f42:	01750bbb          	addw	s7,a0,s7
   13f46:	01876733          	or	a4,a4,s8
   13f4a:	0039dc9b          	srliw	s9,s3,0x3
   13f4e:	011b5c1b          	srliw	s8,s6,0x11
   13f52:	d1f2                	sw	t3,224(sp)
   13f54:	8f35                	xor	a4,a4,a3
   13f56:	00fb1e1b          	slliw	t3,s6,0xf
   13f5a:	00db169b          	slliw	a3,s6,0xd
   13f5e:	c9de                	sw	s7,208(sp)
   13f60:	013b5b9b          	srliw	s7,s6,0x13
   13f64:	0176e6b3          	or	a3,a3,s7
   13f68:	01974733          	xor	a4,a4,s9
   13f6c:	018e6e33          	or	t3,t3,s8
   13f70:	00de4e33          	xor	t3,t3,a3
   13f74:	00ea073b          	addw	a4,s4,a4
   13f78:	00ab569b          	srliw	a3,s6,0xa
   13f7c:	0067073b          	addw	a4,a4,t1
   13f80:	00de46b3          	xor	a3,t3,a3
   13f84:	bf598e37          	lui	t3,0xbf598
   13f88:	00d70dbb          	addw	s11,a4,a3
   13f8c:	01939b9b          	slliw	s7,t2,0x19
   13f90:	0123da1b          	srliw	s4,t2,0x12
   13f94:	0073d71b          	srliw	a4,t2,0x7
   13f98:	00e3969b          	slliw	a3,t2,0xe
   13f9c:	fc7e0e1b          	addiw	t3,t3,-57
   13fa0:	01cd8c3b          	addw	s8,s11,t3
   13fa4:	0146e6b3          	or	a3,a3,s4
   13fa8:	01776733          	or	a4,a4,s7
   13fac:	013d5a1b          	srliw	s4,s10,0x13
   13fb0:	011d5b9b          	srliw	s7,s10,0x11
   13fb4:	d3e2                	sw	s8,228(sp)
   13fb6:	8f35                	xor	a4,a4,a3
   13fb8:	0033dc1b          	srliw	s8,t2,0x3
   13fbc:	00fd1e1b          	slliw	t3,s10,0xf
   13fc0:	00dd169b          	slliw	a3,s10,0xd
   13fc4:	0146e6b3          	or	a3,a3,s4
   13fc8:	01874733          	xor	a4,a4,s8
   13fcc:	017e6e33          	or	t3,t3,s7
   13fd0:	00e9873b          	addw	a4,s3,a4
   13fd4:	00ad5b9b          	srliw	s7,s10,0xa
   13fd8:	00de4e33          	xor	t3,t3,a3
   13fdc:	017e46b3          	xor	a3,t3,s7
   13fe0:	9f21                	addw	a4,a4,s0
   13fe2:	00d70cbb          	addw	s9,a4,a3
   13fe6:	01929a1b          	slliw	s4,t0,0x19
   13fea:	0122d99b          	srliw	s3,t0,0x12
   13fee:	0072d69b          	srliw	a3,t0,0x7
   13ff2:	00e2971b          	slliw	a4,t0,0xe
   13ff6:	c6e01e37          	lui	t3,0xc6e01
   13ffa:	01376733          	or	a4,a4,s3
   13ffe:	bf3e0e1b          	addiw	t3,t3,-1037
   14002:	0146e6b3          	or	a3,a3,s4
   14006:	01cc8bbb          	addw	s7,s9,t3
   1400a:	0032d99b          	srliw	s3,t0,0x3
   1400e:	8eb9                	xor	a3,a3,a4
   14010:	d5de                	sw	s7,232(sp)
   14012:	0136c6b3          	xor	a3,a3,s3
   14016:	00a79b9b          	slliw	s7,a5,0xa
   1401a:	0167d99b          	srliw	s3,a5,0x16
   1401e:	013bebb3          	or	s7,s7,s3
   14022:	00d386bb          	addw	a3,t2,a3
   14026:	69e2                	ld	s3,24(sp)
   14028:	7386                	ld	t2,96(sp)
   1402a:	011ddc1b          	srliw	s8,s11,0x11
   1402e:	00dd9a1b          	slliw	s4,s11,0xd
   14032:	00fd971b          	slliw	a4,s11,0xf
   14036:	013dde1b          	srliw	t3,s11,0x13
   1403a:	0179cbb3          	xor	s7,s3,s7
   1403e:	00f3f9b3          	and	s3,t2,a5
   14042:	73c2                	ld	t2,48(sp)
   14044:	01ca6e33          	or	t3,s4,t3
   14048:	01876733          	or	a4,a4,s8
   1404c:	01c74733          	xor	a4,a4,t3
   14050:	00adde1b          	srliw	t3,s11,0xa
   14054:	0079c9b3          	xor	s3,s3,t2
   14058:	9ea9                	addw	a3,a3,a0
   1405a:	01c74733          	xor	a4,a4,t3
   1405e:	00e68a3b          	addw	s4,a3,a4
   14062:	012fd39b          	srliw	t2,t6,0x12
   14066:	013b8bbb          	addw	s7,s7,s3
   1406a:	007fd71b          	srliw	a4,t6,0x7
   1406e:	019f999b          	slliw	s3,t6,0x19
   14072:	00ef969b          	slliw	a3,t6,0xe
   14076:	d5a79e37          	lui	t3,0xd5a79
   1407a:	0076e6b3          	or	a3,a3,t2
   1407e:	147e0e1b          	addiw	t3,t3,327
   14082:	01376733          	or	a4,a4,s3
   14086:	cc52                	sw	s4,24(sp)
   14088:	01ca0c3b          	addw	s8,s4,t3
   1408c:	011cd99b          	srliw	s3,s9,0x11
   14090:	003fda1b          	srliw	s4,t6,0x3
   14094:	013cd39b          	srliw	t2,s9,0x13
   14098:	8f35                	xor	a4,a4,a3
   1409a:	00fc9e1b          	slliw	t3,s9,0xf
   1409e:	00dc969b          	slliw	a3,s9,0xd
   140a2:	0076e6b3          	or	a3,a3,t2
   140a6:	01474733          	xor	a4,a4,s4
   140aa:	013e6e33          	or	t3,t3,s3
   140ae:	00e2873b          	addw	a4,t0,a4
   140b2:	00de4e33          	xor	t3,t3,a3
   140b6:	00acd69b          	srliw	a3,s9,0xa
   140ba:	9f2d                	addw	a4,a4,a1
   140bc:	00de4e33          	xor	t3,t3,a3
   140c0:	4a62                	lw	s4,24(sp)
   140c2:	d7e2                	sw	s8,236(sp)
   140c4:	8c66                	mv	s8,s9
   140c6:	01c70cbb          	addw	s9,a4,t3
   140ca:	06ca6e37          	lui	t3,0x6ca6
   140ce:	0199139b          	slliw	t2,s2,0x19
   140d2:	0129529b          	srliw	t0,s2,0x12
   140d6:	0079571b          	srliw	a4,s2,0x7
   140da:	00e9169b          	slliw	a3,s2,0xe
   140de:	351e0e1b          	addiw	t3,t3,849
   140e2:	01cc89bb          	addw	s3,s9,t3
   140e6:	0056e6b3          	or	a3,a3,t0
   140ea:	00776733          	or	a4,a4,t2
   140ee:	00da129b          	slliw	t0,s4,0xd
   140f2:	011a539b          	srliw	t2,s4,0x11
   140f6:	d9ce                	sw	s3,240(sp)
   140f8:	8f35                	xor	a4,a4,a3
   140fa:	0039599b          	srliw	s3,s2,0x3
   140fe:	00fa1e1b          	slliw	t3,s4,0xf
   14102:	013a569b          	srliw	a3,s4,0x13
   14106:	00d2e6b3          	or	a3,t0,a3
   1410a:	01374733          	xor	a4,a4,s3
   1410e:	007e6e33          	or	t3,t3,t2
   14112:	00ef873b          	addw	a4,t6,a4
   14116:	00aa539b          	srliw	t2,s4,0xa
   1411a:	00de4e33          	xor	t3,t3,a3
   1411e:	007e4e33          	xor	t3,t3,t2
   14122:	0157073b          	addw	a4,a4,s5
   14126:	142932b7          	lui	t0,0x14293
   1412a:	01c7073b          	addw	a4,a4,t3
   1412e:	9672829b          	addiw	t0,t0,-1689
   14132:	005703bb          	addw	t2,a4,t0
   14136:	01949f9b          	slliw	t6,s1,0x19
   1413a:	0124de1b          	srliw	t3,s1,0x12
   1413e:	cc52                	sw	s4,24(sp)
   14140:	00e4969b          	slliw	a3,s1,0xe
   14144:	8a3a                	mv	s4,a4
   14146:	0074d71b          	srliw	a4,s1,0x7
   1414a:	01c6e6b3          	or	a3,a3,t3
   1414e:	01f76733          	or	a4,a4,t6
   14152:	011cd29b          	srliw	t0,s9,0x11
   14156:	013cdf9b          	srliw	t6,s9,0x13
   1415a:	db9e                	sw	t2,244(sp)
   1415c:	8f35                	xor	a4,a4,a3
   1415e:	0034d39b          	srliw	t2,s1,0x3
   14162:	00fc9e1b          	slliw	t3,s9,0xf
   14166:	00dc969b          	slliw	a3,s9,0xd
   1416a:	01f6e6b3          	or	a3,a3,t6
   1416e:	00774733          	xor	a4,a4,t2
   14172:	005e6e33          	or	t3,t3,t0
   14176:	00de4e33          	xor	t3,t3,a3
   1417a:	0127073b          	addw	a4,a4,s2
   1417e:	00acd69b          	srliw	a3,s9,0xa
   14182:	0167073b          	addw	a4,a4,s6
   14186:	00de46b3          	xor	a3,t3,a3
   1418a:	00e683bb          	addw	t2,a3,a4
   1418e:	019f129b          	slliw	t0,t5,0x19
   14192:	00ef171b          	slliw	a4,t5,0xe
   14196:	012f5f9b          	srliw	t6,t5,0x12
   1419a:	007f569b          	srliw	a3,t5,0x7
   1419e:	27b71e37          	lui	t3,0x27b71
   141a2:	0056e6b3          	or	a3,a3,t0
   141a6:	a85e0e1b          	addiw	t3,t3,-1403
   141aa:	01f762b3          	or	t0,a4,t6
   141ae:	01c3893b          	addw	s2,t2,t3
   141b2:	0056c2b3          	xor	t0,a3,t0
   141b6:	00fa1f9b          	slliw	t6,s4,0xf
   141ba:	003f569b          	srliw	a3,t5,0x3
   141be:	011a5e1b          	srliw	t3,s4,0x11
   141c2:	00d2c6b3          	xor	a3,t0,a3
   141c6:	00da171b          	slliw	a4,s4,0xd
   141ca:	62a6                	ld	t0,72(sp)
   141cc:	01cfee33          	or	t3,t6,t3
   141d0:	013a5f9b          	srliw	t6,s4,0x13
   141d4:	01f76733          	or	a4,a4,t6
   141d8:	00ee4e33          	xor	t3,t3,a4
   141dc:	01a8171b          	slliw	a4,a6,0x1a
   141e0:	00e2e733          	or	a4,t0,a4
   141e4:	9cb5                	addw	s1,s1,a3
   141e6:	00aa529b          	srliw	t0,s4,0xa
   141ea:	01a484bb          	addw	s1,s1,s10
   141ee:	005e4e33          	xor	t3,t3,t0
   141f2:	009e02bb          	addw	t0,t3,s1
   141f6:	d0e6                	sw	s9,96(sp)
   141f8:	d01e                	sw	t2,32(sp)
   141fa:	00f8ccb3          	xor	s9,a7,a5
   141fe:	019e939b          	slliw	t2,t4,0x19
   14202:	ddca                	sw	s2,248(sp)
   14204:	007ed69b          	srliw	a3,t4,0x7
   14208:	00f8f933          	and	s2,a7,a5
   1420c:	d846                	sw	a7,48(sp)
   1420e:	00ee9e1b          	slliw	t3,t4,0xe
   14212:	8896                	mv	a7,t0
   14214:	012ed29b          	srliw	t0,t4,0x12
   14218:	005e6e33          	or	t3,t3,t0
   1421c:	0076e6b3          	or	a3,a3,t2
   14220:	dad2                	sw	s4,116(sp)
   14222:	01c6c6b3          	xor	a3,a3,t3
   14226:	5e02                	lw	t3,32(sp)
   14228:	2e1b23b7          	lui	t2,0x2e1b2
   1422c:	1383839b          	addiw	t2,t2,312
   14230:	d072                	sw	t3,32(sp)
   14232:	d6c6                	sw	a7,108(sp)
   14234:	007888bb          	addw	a7,a7,t2
   14238:	dfc6                	sw	a7,252(sp)
   1423a:	5882                	lw	a7,32(sp)
   1423c:	003eda1b          	srliw	s4,t4,0x3
   14240:	011e549b          	srliw	s1,t3,0x11
   14244:	0138d39b          	srliw	t2,a7,0x13
   14248:	00fe129b          	slliw	t0,t3,0xf
   1424c:	00de1e1b          	slliw	t3,t3,0xd
   14250:	007e6e33          	or	t3,t3,t2
   14254:	0146c6b3          	xor	a3,a3,s4
   14258:	0092e2b3          	or	t0,t0,s1
   1425c:	01c2c2b3          	xor	t0,t0,t3
   14260:	01e686bb          	addw	a3,a3,t5
   14264:	00a8de1b          	srliw	t3,a7,0xa
   14268:	01b686bb          	addw	a3,a3,s11
   1426c:	01c2ce33          	xor	t3,t0,t3
   14270:	d046                	sw	a7,32(sp)
   14272:	0193139b          	slliw	t2,t1,0x19
   14276:	00de08bb          	addw	a7,t3,a3
   1427a:	0123529b          	srliw	t0,t1,0x12
   1427e:	00735f1b          	srliw	t5,t1,0x7
   14282:	00e3169b          	slliw	a3,t1,0xe
   14286:	0056e6b3          	or	a3,a3,t0
   1428a:	007f6f33          	or	t5,t5,t2
   1428e:	00df4f33          	xor	t5,t5,a3
   14292:	0198599b          	srliw	s3,a6,0x19
   14296:	0078169b          	slliw	a3,a6,0x7
   1429a:	00b85f9b          	srliw	t6,a6,0xb
   1429e:	0136e9b3          	or	s3,a3,s3
   142a2:	4d2c7e37          	lui	t3,0x4d2c7
   142a6:	0158169b          	slliw	a3,a6,0x15
   142aa:	dfce0e1b          	addiw	t3,t3,-516
   142ae:	00dfe6b3          	or	a3,t6,a3
   142b2:	5fc6                	lw	t6,112(sp)
   142b4:	01c88a3b          	addw	s4,a7,t3
   142b8:	8eb9                	xor	a3,a3,a4
   142ba:	6746                	ld	a4,80(sp)
   142bc:	11412023          	sw	s4,256(sp)
   142c0:	0136c6b3          	xor	a3,a3,s3
   142c4:	5a36                	lw	s4,108(sp)
   142c6:	00df86bb          	addw	a3,t6,a3
   142ca:	9eb9                	addw	a3,a3,a4
   142cc:	01768bbb          	addw	s7,a3,s7
   142d0:	9e35                	addw	a2,a2,a3
   142d2:	00fa139b          	slliw	t2,s4,0xf
   142d6:	00da1f9b          	slliw	t6,s4,0xd
   142da:	011a569b          	srliw	a3,s4,0x11
   142de:	013a571b          	srliw	a4,s4,0x13
   142e2:	00efe733          	or	a4,t6,a4
   142e6:	00335e1b          	srliw	t3,t1,0x3
   142ea:	00d3e6b3          	or	a3,t2,a3
   142ee:	00dbd99b          	srliw	s3,s7,0xd
   142f2:	002bd49b          	srliw	s1,s7,0x2
   142f6:	01cf4e33          	xor	t3,t5,t3
   142fa:	8eb9                	xor	a3,a3,a4
   142fc:	01eb9f1b          	slliw	t5,s7,0x1e
   14300:	013b971b          	slliw	a4,s7,0x13
   14304:	00e9e733          	or	a4,s3,a4
   14308:	01e4e4b3          	or	s1,s1,t5
   1430c:	01de0e3b          	addw	t3,t3,t4
   14310:	8cb9                	xor	s1,s1,a4
   14312:	00aa571b          	srliw	a4,s4,0xa
   14316:	018e0e3b          	addw	t3,t3,s8
   1431a:	8eb9                	xor	a3,a3,a4
   1431c:	01c689bb          	addw	s3,a3,t3
   14320:	53381e37          	lui	t3,0x53381
   14324:	01941f1b          	slliw	t5,s0,0x19
   14328:	01245e9b          	srliw	t4,s0,0x12
   1432c:	0074571b          	srliw	a4,s0,0x7
   14330:	00e4169b          	slliw	a3,s0,0xe
   14334:	d13e0e1b          	addiw	t3,t3,-749
   14338:	01c98fbb          	addw	t6,s3,t3
   1433c:	01d6e6b3          	or	a3,a3,t4
   14340:	01e76733          	or	a4,a4,t5
   14344:	11f12223          	sw	t6,260(sp)
   14348:	8f35                	xor	a4,a4,a3
   1434a:	00345f9b          	srliw	t6,s0,0x3
   1434e:	d6d2                	sw	s4,108(sp)
   14350:	0118df1b          	srliw	t5,a7,0x11
   14354:	4a62                	lw	s4,24(sp)
   14356:	0138de9b          	srliw	t4,a7,0x13
   1435a:	00f89e1b          	slliw	t3,a7,0xf
   1435e:	00d8969b          	slliw	a3,a7,0xd
   14362:	01f74733          	xor	a4,a4,t6
   14366:	5fca                	lw	t6,176(sp)
   14368:	01d6e6b3          	or	a3,a3,t4
   1436c:	01ee6e33          	or	t3,t3,t5
   14370:	00de4e33          	xor	t3,t3,a3
   14374:	0067073b          	addw	a4,a4,t1
   14378:	00a8d69b          	srliw	a3,a7,0xa
   1437c:	00cf833b          	addw	t1,t6,a2
   14380:	0147073b          	addw	a4,a4,s4
   14384:	00de46b3          	xor	a3,t3,a3
   14388:	01951e9b          	slliw	t4,a0,0x19
   1438c:	01255e1b          	srliw	t3,a0,0x12
   14390:	db62                	sw	s8,180(sp)
   14392:	d91a                	sw	t1,176(sp)
   14394:	00e68c3b          	addw	s8,a3,a4
   14398:	650a7337          	lui	t1,0x650a7
   1439c:	0075571b          	srliw	a4,a0,0x7
   143a0:	00e5169b          	slliw	a3,a0,0xe
   143a4:	01c6e6b3          	or	a3,a3,t3
   143a8:	01d76733          	or	a4,a4,t4
   143ac:	3543031b          	addiw	t1,t1,852
   143b0:	006c033b          	addw	t1,s8,t1
   143b4:	8f35                	xor	a4,a4,a3
   143b6:	00355f1b          	srliw	t5,a0,0x3
   143ba:	0119de9b          	srliw	t4,s3,0x11
   143be:	00d99e1b          	slliw	t3,s3,0xd
   143c2:	10612423          	sw	t1,264(sp)
   143c6:	0139d69b          	srliw	a3,s3,0x13
   143ca:	00f9931b          	slliw	t1,s3,0xf
   143ce:	01e74f33          	xor	t5,a4,t5
   143d2:	5706                	lw	a4,96(sp)
   143d4:	01d36333          	or	t1,t1,t4
   143d8:	00de66b3          	or	a3,t3,a3
   143dc:	00a9de9b          	srliw	t4,s3,0xa
   143e0:	008f0f3b          	addw	t5,t5,s0
   143e4:	00d346b3          	xor	a3,t1,a3
   143e8:	00ef0f3b          	addw	t5,t5,a4
   143ec:	01d6c6b3          	xor	a3,a3,t4
   143f0:	01e6843b          	addw	s0,a3,t5
   143f4:	01959e9b          	slliw	t4,a1,0x19
   143f8:	0125d69b          	srliw	a3,a1,0x12
   143fc:	0075de1b          	srliw	t3,a1,0x7
   14400:	00e5971b          	slliw	a4,a1,0xe
   14404:	8f55                	or	a4,a4,a3
   14406:	011c539b          	srliw	t2,s8,0x11
