
reed_muller_custom.riscv:     file format elf64-littleriscv


Disassembly of section .text:

00000000000100e8 <exit>:
   100e8:	1141                	addi	sp,sp,-16
   100ea:	4581                	li	a1,0
   100ec:	e022                	sd	s0,0(sp)
   100ee:	e406                	sd	ra,8(sp)
   100f0:	842a                	mv	s0,a0
   100f2:	28d0b0ef          	jal	ra,1bb7e <__call_exitprocs>
   100f6:	6781b503          	ld	a0,1656(gp) # 2bd98 <_global_impure_ptr>
   100fa:	6d3c                	ld	a5,88(a0)
   100fc:	c391                	beqz	a5,10100 <exit+0x18>
   100fe:	9782                	jalr	a5
   10100:	8522                	mv	a0,s0
   10102:	11b140ef          	jal	ra,24a1c <_exit>

0000000000010106 <main>:
   10106:	1141                	addi	sp,sp,-16
   10108:	e406                	sd	ra,8(sp)
   1010a:	160060ef          	jal	ra,1626a <_Z26test_expand_and_sum_customv>
   1010e:	60a2                	ld	ra,8(sp)
   10110:	4501                	li	a0,0
   10112:	0141                	addi	sp,sp,16
   10114:	8082                	ret

0000000000010116 <register_fini>:
   10116:	00000793          	li	a5,0
   1011a:	c791                	beqz	a5,10126 <register_fini+0x10>
   1011c:	6571                	lui	a0,0x1c
   1011e:	0ce50513          	addi	a0,a0,206 # 1c0ce <__libc_fini_array>
   10122:	3751206f          	j	22c96 <atexit>
   10126:	8082                	ret

0000000000010128 <_start>:
   10128:	0001b197          	auipc	gp,0x1b
   1012c:	5f818193          	addi	gp,gp,1528 # 2b720 <__global_pointer$>
   10130:	6a018513          	addi	a0,gp,1696 # 2bdc0 <_PathLocale>
   10134:	0001c617          	auipc	a2,0x1c
   10138:	dec60613          	addi	a2,a2,-532 # 2bf20 <__BSS_END__>
   1013c:	8e09                	sub	a2,a2,a0
   1013e:	4581                	li	a1,0
   10140:	201090ef          	jal	ra,19b40 <memset>
   10144:	00013517          	auipc	a0,0x13
   10148:	b5250513          	addi	a0,a0,-1198 # 22c96 <atexit>
   1014c:	c519                	beqz	a0,1015a <_start+0x32>
   1014e:	0000c517          	auipc	a0,0xc
   10152:	f8050513          	addi	a0,a0,-128 # 1c0ce <__libc_fini_array>
   10156:	341120ef          	jal	ra,22c96 <atexit>
   1015a:	02f090ef          	jal	ra,19988 <__libc_init_array>
   1015e:	4502                	lw	a0,0(sp)
   10160:	002c                	addi	a1,sp,8
   10162:	4601                	li	a2,0
   10164:	fa3ff0ef          	jal	ra,10106 <main>
   10168:	b741                	j	100e8 <exit>

000000000001016a <__do_global_dtors_aux>:
   1016a:	1141                	addi	sp,sp,-16
   1016c:	e022                	sd	s0,0(sp)
   1016e:	6d01c783          	lbu	a5,1744(gp) # 2bdf0 <completed.1>
   10172:	e406                	sd	ra,8(sp)
   10174:	ef99                	bnez	a5,10192 <__do_global_dtors_aux+0x28>
   10176:	00000793          	li	a5,0
   1017a:	cb89                	beqz	a5,1018c <__do_global_dtors_aux+0x22>
   1017c:	00029537          	lui	a0,0x29
   10180:	20050513          	addi	a0,a0,512 # 29200 <__EH_FRAME_BEGIN__>
   10184:	00000097          	auipc	ra,0x0
   10188:	000000e7          	jalr	zero # 0 <exit-0x100e8>
   1018c:	4785                	li	a5,1
   1018e:	6cf18823          	sb	a5,1744(gp) # 2bdf0 <completed.1>
   10192:	60a2                	ld	ra,8(sp)
   10194:	6402                	ld	s0,0(sp)
   10196:	0141                	addi	sp,sp,16
   10198:	8082                	ret

000000000001019a <frame_dummy>:
   1019a:	00000793          	li	a5,0
   1019e:	cb99                	beqz	a5,101b4 <frame_dummy+0x1a>
   101a0:	00029537          	lui	a0,0x29
   101a4:	6d818593          	addi	a1,gp,1752 # 2bdf8 <object.0>
   101a8:	20050513          	addi	a0,a0,512 # 29200 <__EH_FRAME_BEGIN__>
   101ac:	00000317          	auipc	t1,0x0
   101b0:	00000067          	jr	zero # 0 <exit-0x100e8>
   101b4:	8082                	ret

00000000000101b6 <_Z11code_encodePmPKm>:
   101b6:	7139                	addi	sp,sp,-64
   101b8:	f822                	sd	s0,48(sp)
   101ba:	842a                	mv	s0,a0
   101bc:	850a                	mv	a0,sp
   101be:	fc06                	sd	ra,56(sp)
   101c0:	e002                	sd	zero,0(sp)
   101c2:	e402                	sd	zero,8(sp)
   101c4:	e802                	sd	zero,16(sp)
   101c6:	ec02                	sd	zero,24(sp)
   101c8:	f002                	sd	zero,32(sp)
   101ca:	f402                	sd	zero,40(sp)
   101cc:	2f0070ef          	jal	ra,174bc <_Z19reed_solomon_encodePmPKm>
   101d0:	858a                	mv	a1,sp
   101d2:	8522                	mv	a0,s0
   101d4:	097050ef          	jal	ra,15a6a <_Z18reed_muller_encodePmPKm>
   101d8:	70e2                	ld	ra,56(sp)
   101da:	7442                	ld	s0,48(sp)
   101dc:	6121                	addi	sp,sp,64
   101de:	8082                	ret

00000000000101e0 <_Z11code_decodePmPKm>:
   101e0:	7139                	addi	sp,sp,-64
   101e2:	f822                	sd	s0,48(sp)
   101e4:	842a                	mv	s0,a0
   101e6:	850a                	mv	a0,sp
   101e8:	fc06                	sd	ra,56(sp)
   101ea:	e002                	sd	zero,0(sp)
   101ec:	e402                	sd	zero,8(sp)
   101ee:	e802                	sd	zero,16(sp)
   101f0:	ec02                	sd	zero,24(sp)
   101f2:	f002                	sd	zero,32(sp)
   101f4:	f402                	sd	zero,40(sp)
   101f6:	161050ef          	jal	ra,15b56 <_Z18reed_muller_decodePmPKm>
   101fa:	858a                	mv	a1,sp
   101fc:	8522                	mv	a0,s0
   101fe:	416070ef          	jal	ra,17614 <_Z19reed_solomon_decodePmS_>
   10202:	70e2                	ld	ra,56(sp)
   10204:	7442                	ld	s0,48(sp)
   10206:	6121                	addi	sp,sp,64
   10208:	8082                	ret

000000000001020a <_Z18code_encode_customPmPKm>:
   1020a:	7139                	addi	sp,sp,-64
   1020c:	f822                	sd	s0,48(sp)
   1020e:	842a                	mv	s0,a0
   10210:	850a                	mv	a0,sp
   10212:	fc06                	sd	ra,56(sp)
   10214:	e002                	sd	zero,0(sp)
   10216:	e402                	sd	zero,8(sp)
   10218:	e802                	sd	zero,16(sp)
   1021a:	ec02                	sd	zero,24(sp)
   1021c:	f002                	sd	zero,32(sp)
   1021e:	f402                	sd	zero,40(sp)
   10220:	7d6070ef          	jal	ra,179f6 <_Z26reed_solomon_encode_customPmPKm>
   10224:	858a                	mv	a1,sp
   10226:	8522                	mv	a0,s0
   10228:	54b050ef          	jal	ra,15f72 <_Z25reed_muller_encode_customPmPKm>
   1022c:	70e2                	ld	ra,56(sp)
   1022e:	7442                	ld	s0,48(sp)
   10230:	6121                	addi	sp,sp,64
   10232:	8082                	ret

0000000000010234 <_Z18code_decode_customPmPKm>:
   10234:	7139                	addi	sp,sp,-64
   10236:	f822                	sd	s0,48(sp)
   10238:	842a                	mv	s0,a0
   1023a:	850a                	mv	a0,sp
   1023c:	fc06                	sd	ra,56(sp)
   1023e:	e002                	sd	zero,0(sp)
   10240:	e402                	sd	zero,8(sp)
   10242:	e802                	sd	zero,16(sp)
   10244:	ec02                	sd	zero,24(sp)
   10246:	f002                	sd	zero,32(sp)
   10248:	f402                	sd	zero,40(sp)
   1024a:	615050ef          	jal	ra,1605e <_Z25reed_muller_decode_customPmPKm>
   1024e:	858a                	mv	a1,sp
   10250:	8522                	mv	a0,s0
   10252:	11d070ef          	jal	ra,17b6e <_Z26reed_solomon_decode_customPmS_>
   10256:	70e2                	ld	ra,56(sp)
   10258:	7442                	ld	s0,48(sp)
   1025a:	6121                	addi	sp,sp,64
   1025c:	8082                	ret

000000000001025e <_ZL5radixPtS_PKtj>:
   1025e:	478d                	li	a5,3
   10260:	02f68c63          	beq	a3,a5,10298 <_ZL5radixPtS_PKtj+0x3a>
   10264:	0ad7e863          	bltu	a5,a3,10314 <_ZL5radixPtS_PKtj+0xb6>
   10268:	4785                	li	a5,1
   1026a:	08f68c63          	beq	a3,a5,10302 <_ZL5radixPtS_PKtj+0xa4>
   1026e:	00065783          	lhu	a5,0(a2)
   10272:	00f51023          	sh	a5,0(a0)
   10276:	00665703          	lhu	a4,6(a2)
   1027a:	00465783          	lhu	a5,4(a2)
   1027e:	8fb9                	xor	a5,a5,a4
   10280:	00f51123          	sh	a5,2(a0)
   10284:	00265703          	lhu	a4,2(a2)
   10288:	8fb9                	xor	a5,a5,a4
   1028a:	00f59023          	sh	a5,0(a1)
   1028e:	00665783          	lhu	a5,6(a2)
   10292:	00f59123          	sh	a5,2(a1)
   10296:	8082                	ret
   10298:	00065783          	lhu	a5,0(a2)
   1029c:	00f51023          	sh	a5,0(a0)
   102a0:	00c65703          	lhu	a4,12(a2)
   102a4:	00865783          	lhu	a5,8(a2)
   102a8:	8fb9                	xor	a5,a5,a4
   102aa:	00f51223          	sh	a5,4(a0)
   102ae:	00e65703          	lhu	a4,14(a2)
   102b2:	00c65783          	lhu	a5,12(a2)
   102b6:	8fb9                	xor	a5,a5,a4
   102b8:	00f51323          	sh	a5,6(a0)
   102bc:	00a65683          	lhu	a3,10(a2)
   102c0:	00665783          	lhu	a5,6(a2)
   102c4:	00e65703          	lhu	a4,14(a2)
   102c8:	8fb5                	xor	a5,a5,a3
   102ca:	8fb9                	xor	a5,a5,a4
   102cc:	00f59123          	sh	a5,2(a1)
   102d0:	00a65703          	lhu	a4,10(a2)
   102d4:	00c65683          	lhu	a3,12(a2)
   102d8:	8f35                	xor	a4,a4,a3
   102da:	00e59223          	sh	a4,4(a1)
   102de:	00e65703          	lhu	a4,14(a2)
   102e2:	00e59323          	sh	a4,6(a1)
   102e6:	00465703          	lhu	a4,4(a2)
   102ea:	00455683          	lhu	a3,4(a0)
   102ee:	8f35                	xor	a4,a4,a3
   102f0:	8fb9                	xor	a5,a5,a4
   102f2:	00f51123          	sh	a5,2(a0)
   102f6:	00265703          	lhu	a4,2(a2)
   102fa:	8fb9                	xor	a5,a5,a4
   102fc:	00f59023          	sh	a5,0(a1)
   10300:	8082                	ret
   10302:	00065783          	lhu	a5,0(a2)
   10306:	00f51023          	sh	a5,0(a0)
   1030a:	00265783          	lhu	a5,2(a2)
   1030e:	00f59023          	sh	a5,0(a1)
   10312:	8082                	ret
   10314:	01865703          	lhu	a4,24(a2)
   10318:	01065783          	lhu	a5,16(a2)
   1031c:	8fb9                	xor	a5,a5,a4
   1031e:	00f51423          	sh	a5,8(a0)
   10322:	01c65703          	lhu	a4,28(a2)
   10326:	01865783          	lhu	a5,24(a2)
   1032a:	8fb9                	xor	a5,a5,a4
   1032c:	00f51623          	sh	a5,12(a0)
   10330:	01e65703          	lhu	a4,30(a2)
   10334:	01c65783          	lhu	a5,28(a2)
   10338:	8fb9                	xor	a5,a5,a4
   1033a:	00f51723          	sh	a5,14(a0)
   1033e:	01a65703          	lhu	a4,26(a2)
   10342:	01665783          	lhu	a5,22(a2)
   10346:	8fb9                	xor	a5,a5,a4
   10348:	00f59523          	sh	a5,10(a1)
   1034c:	01c65683          	lhu	a3,28(a2)
   10350:	01a65703          	lhu	a4,26(a2)
   10354:	8f35                	xor	a4,a4,a3
   10356:	00e59623          	sh	a4,12(a1)
   1035a:	01e65703          	lhu	a4,30(a2)
   1035e:	00e59723          	sh	a4,14(a1)
   10362:	01865683          	lhu	a3,24(a2)
   10366:	01465703          	lhu	a4,20(a2)
   1036a:	8f35                	xor	a4,a4,a3
   1036c:	8fb9                	xor	a5,a5,a4
   1036e:	00f51523          	sh	a5,10(a0)
   10372:	01a65683          	lhu	a3,26(a2)
   10376:	01265703          	lhu	a4,18(a2)
   1037a:	8f35                	xor	a4,a4,a3
   1037c:	8fb9                	xor	a5,a5,a4
   1037e:	00f59423          	sh	a5,8(a1)
   10382:	00065783          	lhu	a5,0(a2)
   10386:	00f51023          	sh	a5,0(a0)
   1038a:	01665683          	lhu	a3,22(a2)
   1038e:	00e65783          	lhu	a5,14(a2)
   10392:	01e65703          	lhu	a4,30(a2)
   10396:	8fb5                	xor	a5,a5,a3
   10398:	8fb9                	xor	a5,a5,a4
   1039a:	00f59323          	sh	a5,6(a1)
   1039e:	01465803          	lhu	a6,20(a2)
   103a2:	00c65703          	lhu	a4,12(a2)
   103a6:	01c65683          	lhu	a3,28(a2)
   103aa:	01074733          	xor	a4,a4,a6
   103ae:	8f35                	xor	a4,a4,a3
   103b0:	8fb9                	xor	a5,a5,a4
   103b2:	00f51323          	sh	a5,6(a0)
   103b6:	00855703          	lhu	a4,8(a0)
   103ba:	0065d803          	lhu	a6,6(a1)
   103be:	00865683          	lhu	a3,8(a2)
   103c2:	01074733          	xor	a4,a4,a6
   103c6:	8f35                	xor	a4,a4,a3
   103c8:	8fb9                	xor	a5,a5,a4
   103ca:	00f51223          	sh	a5,4(a0)
   103ce:	00665783          	lhu	a5,6(a2)
   103d2:	00a65883          	lhu	a7,10(a2)
   103d6:	0065d803          	lhu	a6,6(a1)
   103da:	01265683          	lhu	a3,18(a2)
   103de:	01a65703          	lhu	a4,26(a2)
   103e2:	0117c7b3          	xor	a5,a5,a7
   103e6:	0107c7b3          	xor	a5,a5,a6
   103ea:	8fb5                	xor	a5,a5,a3
   103ec:	8fb9                	xor	a5,a5,a4
   103ee:	00f59123          	sh	a5,2(a1)
   103f2:	00665703          	lhu	a4,6(a2)
   103f6:	00655683          	lhu	a3,6(a0)
   103fa:	8f35                	xor	a4,a4,a3
   103fc:	8f3d                	xor	a4,a4,a5
   103fe:	00e59223          	sh	a4,4(a1)
   10402:	b5d5                	j	102e6 <_ZL5radixPtS_PKtj+0x88>

0000000000010404 <_ZL14fft_rec_customPtS_mhjPKt.constprop.2>:
   10404:	7179                	addi	sp,sp,-48
   10406:	f022                	sd	s0,32(sp)
   10408:	ec26                	sd	s1,24(sp)
   1040a:	f406                	sd	ra,40(sp)
   1040c:	84ae                	mv	s1,a1
   1040e:	842a                	mv	s0,a0
   10410:	85b6                	mv	a1,a3
   10412:	e002                	sd	zero,0(sp)
   10414:	00011423          	sh	zero,8(sp)
   10418:	11d00793          	li	a5,285
   1041c:	00f3e7db          	pqccsrrw	a5,a5,7
   10420:	0024d603          	lhu	a2,2(s1)
   10424:	4695                	li	a3,5
   10426:	850a                	mv	a0,sp
   10428:	441030ef          	jal	ra,14068 <_Z19gfmul_vx_custom_u16PtPKttj>
   1042c:	0004d703          	lhu	a4,0(s1)
   10430:	858a                	mv	a1,sp
   10432:	00a10313          	addi	t1,sp,10
   10436:	00e41023          	sh	a4,0(s0)
   1043a:	4605                	li	a2,1
   1043c:	00240893          	addi	a7,s0,2
   10440:	0606                	slli	a2,a2,0x1
   10442:	0005d803          	lhu	a6,0(a1)
   10446:	87c6                	mv	a5,a7
   10448:	00c40533          	add	a0,s0,a2
   1044c:	a021                	j	10454 <_ZL14fft_rec_customPtS_mhjPKt.constprop.2+0x50>
   1044e:	0007d703          	lhu	a4,0(a5)
   10452:	0789                	addi	a5,a5,2
   10454:	00c786b3          	add	a3,a5,a2
   10458:	00e84733          	xor	a4,a6,a4
   1045c:	fee69f23          	sh	a4,-2(a3)
   10460:	fef517e3          	bne	a0,a5,1044e <_ZL14fft_rec_customPtS_mhjPKt.constprop.2+0x4a>
   10464:	0589                	addi	a1,a1,2
   10466:	00658563          	beq	a1,t1,10470 <_ZL14fft_rec_customPtS_mhjPKt.constprop.2+0x6c>
   1046a:	00045703          	lhu	a4,0(s0)
   1046e:	bfc9                	j	10440 <_ZL14fft_rec_customPtS_mhjPKt.constprop.2+0x3c>
   10470:	70a2                	ld	ra,40(sp)
   10472:	7402                	ld	s0,32(sp)
   10474:	64e2                	ld	s1,24(sp)
   10476:	6145                	addi	sp,sp,48
   10478:	8082                	ret

000000000001047a <_ZL7fft_recPtS_mhjPKt.constprop.3>:
   1047a:	715d                	addi	sp,sp,-80
   1047c:	e0a2                	sd	s0,64(sp)
   1047e:	840a                	mv	s0,sp
   10480:	fc26                	sd	s1,56(sp)
   10482:	f84a                	sd	s2,48(sp)
   10484:	f44e                	sd	s3,40(sp)
   10486:	f052                	sd	s4,32(sp)
   10488:	ec56                	sd	s5,24(sp)
   1048a:	e486                	sd	ra,72(sp)
   1048c:	892a                	mv	s2,a0
   1048e:	8a2e                	mv	s4,a1
   10490:	e002                	sd	zero,0(sp)
   10492:	00011423          	sh	zero,8(sp)
   10496:	84b6                	mv	s1,a3
   10498:	00a10a93          	addi	s5,sp,10
   1049c:	89a2                	mv	s3,s0
   1049e:	0004d503          	lhu	a0,0(s1)
   104a2:	002a5583          	lhu	a1,2(s4)
   104a6:	0989                	addi	s3,s3,2
   104a8:	0489                	addi	s1,s1,2
   104aa:	67c030ef          	jal	ra,13b26 <_Z6gf_multt>
   104ae:	fea99f23          	sh	a0,-2(s3)
   104b2:	ff5996e3          	bne	s3,s5,1049e <_ZL7fft_recPtS_mhjPKt.constprop.3+0x24>
   104b6:	000a5703          	lhu	a4,0(s4)
   104ba:	4605                	li	a2,1
   104bc:	00290513          	addi	a0,s2,2
   104c0:	00e91023          	sh	a4,0(s2)
   104c4:	0606                	slli	a2,a2,0x1
   104c6:	00045803          	lhu	a6,0(s0)
   104ca:	87aa                	mv	a5,a0
   104cc:	00c905b3          	add	a1,s2,a2
   104d0:	a021                	j	104d8 <_ZL7fft_recPtS_mhjPKt.constprop.3+0x5e>
   104d2:	0007d703          	lhu	a4,0(a5)
   104d6:	0789                	addi	a5,a5,2
   104d8:	00c786b3          	add	a3,a5,a2
   104dc:	00e84733          	xor	a4,a6,a4
   104e0:	fee69f23          	sh	a4,-2(a3)
   104e4:	fef597e3          	bne	a1,a5,104d2 <_ZL7fft_recPtS_mhjPKt.constprop.3+0x58>
   104e8:	0409                	addi	s0,s0,2
   104ea:	01540563          	beq	s0,s5,104f4 <_ZL7fft_recPtS_mhjPKt.constprop.3+0x7a>
   104ee:	00095703          	lhu	a4,0(s2)
   104f2:	bfc9                	j	104c4 <_ZL7fft_recPtS_mhjPKt.constprop.3+0x4a>
   104f4:	60a6                	ld	ra,72(sp)
   104f6:	6406                	ld	s0,64(sp)
   104f8:	74e2                	ld	s1,56(sp)
   104fa:	7942                	ld	s2,48(sp)
   104fc:	79a2                	ld	s3,40(sp)
   104fe:	7a02                	ld	s4,32(sp)
   10500:	6ae2                	ld	s5,24(sp)
   10502:	6161                	addi	sp,sp,80
   10504:	8082                	ret

0000000000010506 <_ZL14fft_rec_customPtS_mhjPKt.constprop.1>:
   10506:	7105                	addi	sp,sp,-480
   10508:	eba2                	sd	s0,464(sp)
   1050a:	e7a6                	sd	s1,456(sp)
   1050c:	ff4e                	sd	s3,440(sp)
   1050e:	842a                	mv	s0,a0
   10510:	89ae                	mv	s3,a1
   10512:	84b2                	mv	s1,a2
   10514:	4581                	li	a1,0
   10516:	08000613          	li	a2,128
   1051a:	1808                	addi	a0,sp,48
   1051c:	ef86                	sd	ra,472(sp)
   1051e:	e3ca                	sd	s2,448(sp)
   10520:	e002                	sd	zero,0(sp)
   10522:	8936                	mv	s2,a3
   10524:	e402                	sd	zero,8(sp)
   10526:	e802                	sd	zero,16(sp)
   10528:	cc02                	sw	zero,24(sp)
   1052a:	f002                	sd	zero,32(sp)
   1052c:	d402                	sw	zero,40(sp)
   1052e:	612090ef          	jal	ra,19b40 <memset>
   10532:	08000613          	li	a2,128
   10536:	4581                	li	a1,0
   10538:	1908                	addi	a0,sp,176
   1053a:	606090ef          	jal	ra,19b40 <memset>
   1053e:	08000613          	li	a2,128
   10542:	4581                	li	a1,0
   10544:	1a08                	addi	a0,sp,304
   10546:	5fa090ef          	jal	ra,19b40 <memset>
   1054a:	11d00793          	li	a5,285
   1054e:	00f3e7db          	pqccsrrw	a5,a5,7
   10552:	00a95783          	lhu	a5,10(s2)
   10556:	4705                	li	a4,1
   10558:	06e78963          	beq	a5,a4,105ca <_ZL14fft_rec_customPtS_mhjPKt.constprop.1+0xc4>
   1055c:	c480f6d7          	vsetivli	a3,1,e16,m1,ta,mu
   10560:	04807657          	vsetvli	a2,zero,e16,m1,ta,mu
   10564:	4605                	li	a2,1
   10566:	5e003c57          	vmv.v.i	v24,0
   1056a:	0086f057          	vsetvli	zero,a3,e16,m1,tu,mu
   1056e:	42066c57          	vmv.s.x	v24,a2
   10572:	008776d7          	vsetvli	a3,a4,e16,m1,tu,mu
   10576:	3787ac2b          	gfmul.vx	v24,v24,a5
   1057a:	0029d783          	lhu	a5,2(s3)
   1057e:	3787acab          	gfmul.vx	v25,v24,a5
   10582:	c4807057          	vsetivli	zero,0,e16,m1,ta,mu
   10586:	439027d7          	vmv.x.s	a5,v25
   1058a:	00f99123          	sh	a5,2(s3)
   1058e:	008777d7          	vsetvli	a5,a4,e16,m1,tu,mu
   10592:	00a95783          	lhu	a5,10(s2)
   10596:	3787ac2b          	gfmul.vx	v24,v24,a5
   1059a:	0049d783          	lhu	a5,4(s3)
   1059e:	3787acab          	gfmul.vx	v25,v24,a5
   105a2:	439027d7          	vmv.x.s	a5,v25
   105a6:	00f99223          	sh	a5,4(s3)
   105aa:	00877757          	vsetvli	a4,a4,e16,m1,tu,mu
   105ae:	00a95783          	lhu	a5,10(s2)
   105b2:	3787ac2b          	gfmul.vx	v24,v24,a5
   105b6:	0069d783          	lhu	a5,6(s3)
   105ba:	3787ac2b          	gfmul.vx	v24,v24,a5
   105be:	438027d7          	vmv.x.s	a5,v24
   105c2:	00f99323          	sh	a5,6(s3)
   105c6:	00a95783          	lhu	a5,10(s2)
   105ca:	0069d683          	lhu	a3,6(s3)
   105ce:	0049d703          	lhu	a4,4(s3)
   105d2:	0029d583          	lhu	a1,2(s3)
   105d6:	0009d603          	lhu	a2,0(s3)
   105da:	8f35                	xor	a4,a4,a3
   105dc:	00b749b3          	xor	s3,a4,a1
   105e0:	00c11023          	sh	a2,0(sp)
   105e4:	00e11123          	sh	a4,2(sp)
   105e8:	01311423          	sh	s3,8(sp)
   105ec:	00d11523          	sh	a3,10(sp)
   105f0:	2007e7db          	gfinv	a5,a5
   105f4:	03079693          	slli	a3,a5,0x30
   105f8:	92c1                	srli	a3,a3,0x30
   105fa:	100c                	addi	a1,sp,32
   105fc:	0810                	addi	a2,sp,16
   105fe:	4715                	li	a4,5
   10600:	048777d7          	vsetvli	a5,a4,e16,m1,ta,mu
   10604:	02095c07          	vle16.v	v24,(s2)
   10608:	3786ac2b          	gfmul.vx	v24,v24,a3
   1060c:	0487f057          	vsetvli	zero,a5,e16,m1,ta,mu
   10610:	02065c27          	vse16.v	v24,(a2)
   10614:	3b8c0cab          	gfmul.vv	v25,v24,v24
   10618:	00179513          	slli	a0,a5,0x1
   1061c:	2f9c0c57          	vxor.vv	v24,v25,v24
   10620:	8f1d                	sub	a4,a4,a5
   10622:	0205dc27          	vse16.v	v24,(a1)
   10626:	962a                	add	a2,a2,a0
   10628:	95aa                	add	a1,a1,a0
   1062a:	992a                	add	s2,s2,a0
   1062c:	fb71                	bnez	a4,10600 <_ZL14fft_rec_customPtS_mhjPKt.constprop.1+0xfa>
   1062e:	02011823          	sh	zero,48(sp)
   10632:	01010893          	addi	a7,sp,16
   10636:	4801                	li	a6,0
   10638:	4681                	li	a3,0
   1063a:	4e05                	li	t3,1
   1063c:	4315                	li	t1,5
   1063e:	0008d503          	lhu	a0,0(a7)
   10642:	010e163b          	sllw	a2,t3,a6
   10646:	4781                	li	a5,0
   10648:	4701                	li	a4,0
   1064a:	a019                	j	10650 <_ZL14fft_rec_customPtS_mhjPKt.constprop.1+0x14a>
   1064c:	e805d683          	lhu	a3,-384(a1)
   10650:	9fb1                	addw	a5,a5,a2
   10652:	2705                	addiw	a4,a4,1
   10654:	0786                	slli	a5,a5,0x1
   10656:	1742                	slli	a4,a4,0x30
   10658:	9341                	srli	a4,a4,0x30
   1065a:	1b078793          	addi	a5,a5,432
   1065e:	978a                	add	a5,a5,sp
   10660:	8ea9                	xor	a3,a3,a0
   10662:	00171593          	slli	a1,a4,0x1
   10666:	1b058593          	addi	a1,a1,432
   1066a:	e8d79023          	sh	a3,-384(a5)
   1066e:	958a                	add	a1,a1,sp
   10670:	0007079b          	sext.w	a5,a4
   10674:	fcc74ce3          	blt	a4,a2,1064c <_ZL14fft_rec_customPtS_mhjPKt.constprop.1+0x146>
   10678:	2805                	addiw	a6,a6,1
   1067a:	0889                	addi	a7,a7,2
   1067c:	00680563          	beq	a6,t1,10686 <_ZL14fft_rec_customPtS_mhjPKt.constprop.1+0x180>
   10680:	03015683          	lhu	a3,48(sp)
   10684:	bf6d                	j	1063e <_ZL14fft_rec_customPtS_mhjPKt.constprop.1+0x138>
   10686:	00148613          	addi	a2,s1,1
   1068a:	1014                	addi	a3,sp,32
   1068c:	8205                	srli	a2,a2,0x1
   1068e:	858a                	mv	a1,sp
   10690:	1908                	addi	a0,sp,176
   10692:	d73ff0ef          	jal	ra,10404 <_ZL14fft_rec_customPtS_mhjPKt.constprop.2>
   10696:	478d                	li	a5,3
   10698:	00240913          	addi	s2,s0,2
   1069c:	0697e263          	bltu	a5,s1,10700 <_ZL14fft_rec_customPtS_mhjPKt.constprop.1+0x1fa>
   106a0:	0b015783          	lhu	a5,176(sp)
   106a4:	0b210593          	addi	a1,sp,178
   106a8:	03210613          	addi	a2,sp,50
   106ac:	0137c733          	xor	a4,a5,s3
   106b0:	04e41023          	sh	a4,64(s0)
   106b4:	00f41023          	sh	a5,0(s0)
   106b8:	477d                	li	a4,31
   106ba:	884e                	mv	a6,s3
   106bc:	048777d7          	vsetvli	a5,a4,e16,m1,ta,mu
   106c0:	02065c07          	vle16.v	v24,(a2)
   106c4:	0205dc87          	vle16.v	v25,(a1)
   106c8:	3789ac2b          	gfmul.vx	v24,v24,s3
   106cc:	04090513          	addi	a0,s2,64
   106d0:	0487f057          	vsetvli	zero,a5,e16,m1,ta,mu
   106d4:	00179693          	slli	a3,a5,0x1
   106d8:	2f8c8c57          	vxor.vv	v24,v24,v25
   106dc:	8f1d                	sub	a4,a4,a5
   106de:	02095c27          	vse16.v	v24,(s2)
   106e2:	2f884c57          	vxor.vx	v24,v24,a6
   106e6:	02055c27          	vse16.v	v24,(a0)
   106ea:	9636                	add	a2,a2,a3
   106ec:	9936                	add	s2,s2,a3
   106ee:	95b6                	add	a1,a1,a3
   106f0:	f771                	bnez	a4,106bc <_ZL14fft_rec_customPtS_mhjPKt.constprop.1+0x1b6>
   106f2:	60fe                	ld	ra,472(sp)
   106f4:	645e                	ld	s0,464(sp)
   106f6:	64be                	ld	s1,456(sp)
   106f8:	691e                	ld	s2,448(sp)
   106fa:	79fa                	ld	s3,440(sp)
   106fc:	613d                	addi	sp,sp,480
   106fe:	8082                	ret
   10700:	1014                	addi	a3,sp,32
   10702:	0014d613          	srli	a2,s1,0x1
   10706:	002c                	addi	a1,sp,8
   10708:	1a08                	addi	a0,sp,304
   1070a:	cfbff0ef          	jal	ra,10404 <_ZL14fft_rec_customPtS_mhjPKt.constprop.2>
   1070e:	1a0c                	addi	a1,sp,304
   10710:	04000613          	li	a2,64
   10714:	04040513          	addi	a0,s0,64
   10718:	2e2090ef          	jal	ra,199fa <memcpy>
   1071c:	04045703          	lhu	a4,64(s0)
   10720:	0b015783          	lhu	a5,176(sp)
   10724:	13210813          	addi	a6,sp,306
   10728:	0b210513          	addi	a0,sp,178
   1072c:	00f41023          	sh	a5,0(s0)
   10730:	8fb9                	xor	a5,a5,a4
   10732:	04f41023          	sh	a5,64(s0)
   10736:	03210593          	addi	a1,sp,50
   1073a:	477d                	li	a4,31
   1073c:	04090613          	addi	a2,s2,64
   10740:	048777d7          	vsetvli	a5,a4,e16,m1,ta,mu
   10744:	0205dc07          	vle16.v	v24,(a1)
   10748:	02055d07          	vle16.v	v26,(a0)
   1074c:	02085d87          	vle16.v	v27,(a6)
   10750:	02065c87          	vle16.v	v25,(a2)
   10754:	3b8d8c2b          	gfmul.vv	v24,v24,v27
   10758:	00179693          	slli	a3,a5,0x1
   1075c:	0487f057          	vsetvli	zero,a5,e16,m1,ta,mu
   10760:	8f1d                	sub	a4,a4,a5
   10762:	2f8d0c57          	vxor.vv	v24,v24,v26
   10766:	02095c27          	vse16.v	v24,(s2)
   1076a:	2f8c8c57          	vxor.vv	v24,v24,v25
   1076e:	02065c27          	vse16.v	v24,(a2)
   10772:	95b6                	add	a1,a1,a3
   10774:	9936                	add	s2,s2,a3
   10776:	9536                	add	a0,a0,a3
   10778:	9836                	add	a6,a6,a3
   1077a:	f369                	bnez	a4,1073c <_ZL14fft_rec_customPtS_mhjPKt.constprop.1+0x236>
   1077c:	60fe                	ld	ra,472(sp)
   1077e:	645e                	ld	s0,464(sp)
   10780:	64be                	ld	s1,456(sp)
   10782:	691e                	ld	s2,448(sp)
   10784:	79fa                	ld	s3,440(sp)
   10786:	613d                	addi	sp,sp,480
   10788:	8082                	ret

000000000001078a <_ZL7fft_recPtS_mhjPKt.constprop.2>:
   1078a:	df010113          	addi	sp,sp,-528
   1078e:	20813023          	sd	s0,512(sp)
   10792:	fbca                	sd	s2,496(sp)
   10794:	f3d2                	sd	s4,480(sp)
   10796:	842a                	mv	s0,a0
   10798:	8a2e                	mv	s4,a1
   1079a:	8932                	mv	s2,a2
   1079c:	4581                	li	a1,0
   1079e:	08000613          	li	a2,128
   107a2:	1808                	addi	a0,sp,48
   107a4:	20113423          	sd	ra,520(sp)
   107a8:	ebda                	sd	s6,464(sp)
   107aa:	ffa6                	sd	s1,504(sp)
   107ac:	8b36                	mv	s6,a3
   107ae:	f7ce                	sd	s3,488(sp)
   107b0:	efd6                	sd	s5,472(sp)
   107b2:	e7de                	sd	s7,456(sp)
   107b4:	e3e2                	sd	s8,448(sp)
   107b6:	ff66                	sd	s9,440(sp)
   107b8:	e002                	sd	zero,0(sp)
   107ba:	e402                	sd	zero,8(sp)
   107bc:	e802                	sd	zero,16(sp)
   107be:	cc02                	sw	zero,24(sp)
   107c0:	f002                	sd	zero,32(sp)
   107c2:	d402                	sw	zero,40(sp)
   107c4:	37c090ef          	jal	ra,19b40 <memset>
   107c8:	08000613          	li	a2,128
   107cc:	4581                	li	a1,0
   107ce:	1908                	addi	a0,sp,176
   107d0:	370090ef          	jal	ra,19b40 <memset>
   107d4:	08000613          	li	a2,128
   107d8:	4581                	li	a1,0
   107da:	1a08                	addi	a0,sp,304
   107dc:	364090ef          	jal	ra,19b40 <memset>
   107e0:	00ab5503          	lhu	a0,10(s6)
   107e4:	4785                	li	a5,1
   107e6:	02f50763          	beq	a0,a5,10814 <_ZL7fft_recPtS_mhjPKt.constprop.2+0x8a>
   107ea:	002a0493          	addi	s1,s4,2
   107ee:	008a0a93          	addi	s5,s4,8
   107f2:	4985                	li	s3,1
   107f4:	85aa                	mv	a1,a0
   107f6:	854e                	mv	a0,s3
   107f8:	32e030ef          	jal	ra,13b26 <_Z6gf_multt>
   107fc:	0004d583          	lhu	a1,0(s1)
   10800:	89aa                	mv	s3,a0
   10802:	0489                	addi	s1,s1,2
   10804:	322030ef          	jal	ra,13b26 <_Z6gf_multt>
   10808:	fea49f23          	sh	a0,-2(s1)
   1080c:	00ab5503          	lhu	a0,10(s6)
   10810:	ff5492e3          	bne	s1,s5,107f4 <_ZL7fft_recPtS_mhjPKt.constprop.2+0x6a>
   10814:	006a5703          	lhu	a4,6(s4)
   10818:	004a5783          	lhu	a5,4(s4)
   1081c:	002a5483          	lhu	s1,2(s4)
   10820:	000a5683          	lhu	a3,0(s4)
   10824:	8fb9                	xor	a5,a5,a4
   10826:	8cbd                	xor	s1,s1,a5
   10828:	01010a13          	addi	s4,sp,16
   1082c:	00d11023          	sh	a3,0(sp)
   10830:	00f11123          	sh	a5,2(sp)
   10834:	00911423          	sh	s1,8(sp)
   10838:	00e11523          	sh	a4,10(sp)
   1083c:	8ada                	mv	s5,s6
   1083e:	02010c93          	addi	s9,sp,32
   10842:	008b0c13          	addi	s8,s6,8
   10846:	8bd2                	mv	s7,s4
   10848:	a021                	j	10850 <_ZL7fft_recPtS_mhjPKt.constprop.2+0xc6>
   1084a:	00ab5503          	lhu	a0,10(s6)
   1084e:	0a89                	addi	s5,s5,2
   10850:	000ad983          	lhu	s3,0(s5)
   10854:	3a8030ef          	jal	ra,13bfc <_Z10gf_inverset>
   10858:	85aa                	mv	a1,a0
   1085a:	854e                	mv	a0,s3
   1085c:	2ca030ef          	jal	ra,13b26 <_Z6gf_multt>
   10860:	00ab9023          	sh	a0,0(s7)
   10864:	89aa                	mv	s3,a0
   10866:	312030ef          	jal	ra,13b78 <_Z9gf_squaret>
   1086a:	00a9c9b3          	xor	s3,s3,a0
   1086e:	013c9023          	sh	s3,0(s9)
   10872:	0b89                	addi	s7,s7,2
   10874:	0c89                	addi	s9,s9,2
   10876:	fd8a9ae3          	bne	s5,s8,1084a <_ZL7fft_recPtS_mhjPKt.constprop.2+0xc0>
   1087a:	4801                	li	a6,0
   1087c:	4681                	li	a3,0
   1087e:	4305                	li	t1,1
   10880:	4895                	li	a7,5
   10882:	000a5503          	lhu	a0,0(s4)
   10886:	0103163b          	sllw	a2,t1,a6
   1088a:	4781                	li	a5,0
   1088c:	4701                	li	a4,0
   1088e:	a019                	j	10894 <_ZL7fft_recPtS_mhjPKt.constprop.2+0x10a>
   10890:	e805d683          	lhu	a3,-384(a1)
   10894:	9fb1                	addw	a5,a5,a2
   10896:	2705                	addiw	a4,a4,1
   10898:	0786                	slli	a5,a5,0x1
   1089a:	1742                	slli	a4,a4,0x30
   1089c:	9341                	srli	a4,a4,0x30
   1089e:	1b078793          	addi	a5,a5,432
   108a2:	978a                	add	a5,a5,sp
   108a4:	8ea9                	xor	a3,a3,a0
   108a6:	00171593          	slli	a1,a4,0x1
   108aa:	1b058593          	addi	a1,a1,432
   108ae:	e8d79023          	sh	a3,-384(a5)
   108b2:	958a                	add	a1,a1,sp
   108b4:	0007079b          	sext.w	a5,a4
   108b8:	fcc74ce3          	blt	a4,a2,10890 <_ZL7fft_recPtS_mhjPKt.constprop.2+0x106>
   108bc:	2805                	addiw	a6,a6,1
   108be:	0a09                	addi	s4,s4,2
   108c0:	01180563          	beq	a6,a7,108ca <_ZL7fft_recPtS_mhjPKt.constprop.2+0x140>
   108c4:	03015683          	lhu	a3,48(sp)
   108c8:	bf6d                	j	10882 <_ZL7fft_recPtS_mhjPKt.constprop.2+0xf8>
   108ca:	00190613          	addi	a2,s2,1
   108ce:	1014                	addi	a3,sp,32
   108d0:	8205                	srli	a2,a2,0x1
   108d2:	858a                	mv	a1,sp
   108d4:	1908                	addi	a0,sp,176
   108d6:	ba5ff0ef          	jal	ra,1047a <_ZL7fft_recPtS_mhjPKt.constprop.3>
   108da:	478d                	li	a5,3
   108dc:	0727e763          	bltu	a5,s2,1094a <_ZL7fft_recPtS_mhjPKt.constprop.2+0x1c0>
   108e0:	0b015783          	lhu	a5,176(sp)
   108e4:	0b210993          	addi	s3,sp,178
   108e8:	03210a13          	addi	s4,sp,50
   108ec:	0097c733          	xor	a4,a5,s1
   108f0:	00f41023          	sh	a5,0(s0)
   108f4:	04e41023          	sh	a4,64(s0)
   108f8:	0f010a93          	addi	s5,sp,240
   108fc:	0409                	addi	s0,s0,2
   108fe:	000a5503          	lhu	a0,0(s4)
   10902:	0009d903          	lhu	s2,0(s3)
   10906:	85a6                	mv	a1,s1
   10908:	21e030ef          	jal	ra,13b26 <_Z6gf_multt>
   1090c:	00a94533          	xor	a0,s2,a0
   10910:	1542                	slli	a0,a0,0x30
   10912:	9141                	srli	a0,a0,0x30
   10914:	009547b3          	xor	a5,a0,s1
   10918:	00a41023          	sh	a0,0(s0)
   1091c:	04f41023          	sh	a5,64(s0)
   10920:	0989                	addi	s3,s3,2
   10922:	0a09                	addi	s4,s4,2
   10924:	0409                	addi	s0,s0,2
   10926:	fd3a9ce3          	bne	s5,s3,108fe <_ZL7fft_recPtS_mhjPKt.constprop.2+0x174>
   1092a:	20813083          	ld	ra,520(sp)
   1092e:	20013403          	ld	s0,512(sp)
   10932:	74fe                	ld	s1,504(sp)
   10934:	795e                	ld	s2,496(sp)
   10936:	79be                	ld	s3,488(sp)
   10938:	7a1e                	ld	s4,480(sp)
   1093a:	6afe                	ld	s5,472(sp)
   1093c:	6b5e                	ld	s6,464(sp)
   1093e:	6bbe                	ld	s7,456(sp)
   10940:	6c1e                	ld	s8,448(sp)
   10942:	7cfa                	ld	s9,440(sp)
   10944:	21010113          	addi	sp,sp,528
   10948:	8082                	ret
   1094a:	00195613          	srli	a2,s2,0x1
   1094e:	1014                	addi	a3,sp,32
   10950:	002c                	addi	a1,sp,8
   10952:	1a08                	addi	a0,sp,304
   10954:	b27ff0ef          	jal	ra,1047a <_ZL7fft_recPtS_mhjPKt.constprop.3>
   10958:	04040513          	addi	a0,s0,64
   1095c:	04000613          	li	a2,64
   10960:	1a0c                	addi	a1,sp,304
   10962:	098090ef          	jal	ra,199fa <memcpy>
   10966:	04045703          	lhu	a4,64(s0)
   1096a:	0b015783          	lhu	a5,176(sp)
   1096e:	0b210913          	addi	s2,sp,178
   10972:	03210a13          	addi	s4,sp,50
   10976:	00f41023          	sh	a5,0(s0)
   1097a:	8fb9                	xor	a5,a5,a4
   1097c:	04f41023          	sh	a5,64(s0)
   10980:	13210993          	addi	s3,sp,306
   10984:	04240413          	addi	s0,s0,66
   10988:	0f010a93          	addi	s5,sp,240
   1098c:	0009d583          	lhu	a1,0(s3)
   10990:	000a5503          	lhu	a0,0(s4)
   10994:	00095483          	lhu	s1,0(s2)
   10998:	0909                	addi	s2,s2,2
   1099a:	18c030ef          	jal	ra,13b26 <_Z6gf_multt>
   1099e:	00045703          	lhu	a4,0(s0)
   109a2:	00a4c7b3          	xor	a5,s1,a0
   109a6:	17c2                	slli	a5,a5,0x30
   109a8:	93c1                	srli	a5,a5,0x30
   109aa:	8f3d                	xor	a4,a4,a5
   109ac:	fcf41023          	sh	a5,-64(s0)
   109b0:	00e41023          	sh	a4,0(s0)
   109b4:	0a09                	addi	s4,s4,2
   109b6:	0989                	addi	s3,s3,2
   109b8:	0409                	addi	s0,s0,2
   109ba:	fd2a99e3          	bne	s5,s2,1098c <_ZL7fft_recPtS_mhjPKt.constprop.2+0x202>
   109be:	b7b5                	j	1092a <_ZL7fft_recPtS_mhjPKt.constprop.2+0x1a0>

00000000000109c0 <_ZL14fft_rec_customPtS_mhjPKt.constprop.0>:
   109c0:	7105                	addi	sp,sp,-480
   109c2:	eba2                	sd	s0,464(sp)
   109c4:	e7a6                	sd	s1,456(sp)
   109c6:	ff4e                	sd	s3,440(sp)
   109c8:	842a                	mv	s0,a0
   109ca:	89ae                	mv	s3,a1
   109cc:	84b2                	mv	s1,a2
   109ce:	4581                	li	a1,0
   109d0:	08000613          	li	a2,128
   109d4:	1808                	addi	a0,sp,48
   109d6:	ef86                	sd	ra,472(sp)
   109d8:	e3ca                	sd	s2,448(sp)
   109da:	e802                	sd	zero,16(sp)
   109dc:	8936                	mv	s2,a3
   109de:	cc02                	sw	zero,24(sp)
   109e0:	f002                	sd	zero,32(sp)
   109e2:	d402                	sw	zero,40(sp)
   109e4:	15c090ef          	jal	ra,19b40 <memset>
   109e8:	08000613          	li	a2,128
   109ec:	4581                	li	a1,0
   109ee:	1908                	addi	a0,sp,176
   109f0:	150090ef          	jal	ra,19b40 <memset>
   109f4:	08000613          	li	a2,128
   109f8:	4581                	li	a1,0
   109fa:	1a08                	addi	a0,sp,304
   109fc:	144090ef          	jal	ra,19b40 <memset>
   10a00:	11d00793          	li	a5,285
   10a04:	00f3e7db          	pqccsrrw	a5,a5,7
   10a08:	00c95783          	lhu	a5,12(s2)
   10a0c:	4705                	li	a4,1
   10a0e:	0ee78163          	beq	a5,a4,10af0 <_ZL14fft_rec_customPtS_mhjPKt.constprop.0+0x130>
   10a12:	c480f6d7          	vsetivli	a3,1,e16,m1,ta,mu
   10a16:	04807657          	vsetvli	a2,zero,e16,m1,ta,mu
   10a1a:	4605                	li	a2,1
   10a1c:	5e003c57          	vmv.v.i	v24,0
   10a20:	0086f057          	vsetvli	zero,a3,e16,m1,tu,mu
   10a24:	42066c57          	vmv.s.x	v24,a2
   10a28:	008776d7          	vsetvli	a3,a4,e16,m1,tu,mu
   10a2c:	3787ac2b          	gfmul.vx	v24,v24,a5
   10a30:	0029d783          	lhu	a5,2(s3)
   10a34:	3787acab          	gfmul.vx	v25,v24,a5
   10a38:	c4807057          	vsetivli	zero,0,e16,m1,ta,mu
   10a3c:	439027d7          	vmv.x.s	a5,v25
   10a40:	00f99123          	sh	a5,2(s3)
   10a44:	008777d7          	vsetvli	a5,a4,e16,m1,tu,mu
   10a48:	00c95783          	lhu	a5,12(s2)
   10a4c:	3787ac2b          	gfmul.vx	v24,v24,a5
   10a50:	0049d783          	lhu	a5,4(s3)
   10a54:	3787acab          	gfmul.vx	v25,v24,a5
   10a58:	439027d7          	vmv.x.s	a5,v25
   10a5c:	00f99223          	sh	a5,4(s3)
   10a60:	008777d7          	vsetvli	a5,a4,e16,m1,tu,mu
   10a64:	00c95783          	lhu	a5,12(s2)
   10a68:	3787ac2b          	gfmul.vx	v24,v24,a5
   10a6c:	0069d783          	lhu	a5,6(s3)
   10a70:	3787acab          	gfmul.vx	v25,v24,a5
   10a74:	439027d7          	vmv.x.s	a5,v25
   10a78:	00f99323          	sh	a5,6(s3)
   10a7c:	008777d7          	vsetvli	a5,a4,e16,m1,tu,mu
   10a80:	00c95783          	lhu	a5,12(s2)
   10a84:	3787ac2b          	gfmul.vx	v24,v24,a5
   10a88:	0089d783          	lhu	a5,8(s3)
   10a8c:	3787acab          	gfmul.vx	v25,v24,a5
   10a90:	439027d7          	vmv.x.s	a5,v25
   10a94:	00f99423          	sh	a5,8(s3)
   10a98:	008777d7          	vsetvli	a5,a4,e16,m1,tu,mu
   10a9c:	00c95783          	lhu	a5,12(s2)
   10aa0:	3787ac2b          	gfmul.vx	v24,v24,a5
   10aa4:	00a9d783          	lhu	a5,10(s3)
   10aa8:	3787acab          	gfmul.vx	v25,v24,a5
   10aac:	439027d7          	vmv.x.s	a5,v25
   10ab0:	00f99523          	sh	a5,10(s3)
   10ab4:	008777d7          	vsetvli	a5,a4,e16,m1,tu,mu
   10ab8:	00c95783          	lhu	a5,12(s2)
   10abc:	3787ac2b          	gfmul.vx	v24,v24,a5
   10ac0:	00c9d783          	lhu	a5,12(s3)
   10ac4:	3787acab          	gfmul.vx	v25,v24,a5
   10ac8:	439027d7          	vmv.x.s	a5,v25
   10acc:	00f99623          	sh	a5,12(s3)
   10ad0:	00877757          	vsetvli	a4,a4,e16,m1,tu,mu
   10ad4:	00c95783          	lhu	a5,12(s2)
   10ad8:	3787ac2b          	gfmul.vx	v24,v24,a5
   10adc:	00e9d783          	lhu	a5,14(s3)
   10ae0:	3787ac2b          	gfmul.vx	v24,v24,a5
   10ae4:	438027d7          	vmv.x.s	a5,v24
   10ae8:	00f99723          	sh	a5,14(s3)
   10aec:	00c95783          	lhu	a5,12(s2)
   10af0:	00c9d603          	lhu	a2,12(s3)
   10af4:	00e9d503          	lhu	a0,14(s3)
   10af8:	0089d583          	lhu	a1,8(s3)
   10afc:	0069d683          	lhu	a3,6(s3)
   10b00:	00a9d803          	lhu	a6,10(s3)
   10b04:	0049d703          	lhu	a4,4(s3)
   10b08:	8db1                	xor	a1,a1,a2
   10b0a:	0029de03          	lhu	t3,2(s3)
   10b0e:	8ea9                	xor	a3,a3,a0
   10b10:	0009d303          	lhu	t1,0(s3)
   10b14:	00d846b3          	xor	a3,a6,a3
   10b18:	8f2d                	xor	a4,a4,a1
   10b1a:	8f35                	xor	a4,a4,a3
   10b1c:	00a648b3          	xor	a7,a2,a0
   10b20:	01c749b3          	xor	s3,a4,t3
   10b24:	01064633          	xor	a2,a2,a6
   10b28:	00611023          	sh	t1,0(sp)
   10b2c:	00b11223          	sh	a1,4(sp)
   10b30:	01111323          	sh	a7,6(sp)
   10b34:	00d11523          	sh	a3,10(sp)
   10b38:	00c11623          	sh	a2,12(sp)
   10b3c:	00a11723          	sh	a0,14(sp)
   10b40:	00e11123          	sh	a4,2(sp)
   10b44:	01311423          	sh	s3,8(sp)
   10b48:	2007e7db          	gfinv	a5,a5
   10b4c:	03079513          	slli	a0,a5,0x30
   10b50:	9141                	srli	a0,a0,0x30
   10b52:	100c                	addi	a1,sp,32
   10b54:	0810                	addi	a2,sp,16
   10b56:	4719                	li	a4,6
   10b58:	048777d7          	vsetvli	a5,a4,e16,m1,ta,mu
   10b5c:	02095c07          	vle16.v	v24,(s2)
   10b60:	37852c2b          	gfmul.vx	v24,v24,a0
   10b64:	0487f057          	vsetvli	zero,a5,e16,m1,ta,mu
   10b68:	02065c27          	vse16.v	v24,(a2)
   10b6c:	3b8c0cab          	gfmul.vv	v25,v24,v24
   10b70:	00179693          	slli	a3,a5,0x1
   10b74:	2f9c0c57          	vxor.vv	v24,v25,v24
   10b78:	8f1d                	sub	a4,a4,a5
   10b7a:	0205dc27          	vse16.v	v24,(a1)
   10b7e:	9636                	add	a2,a2,a3
   10b80:	95b6                	add	a1,a1,a3
   10b82:	9936                	add	s2,s2,a3
   10b84:	fb71                	bnez	a4,10b58 <_ZL14fft_rec_customPtS_mhjPKt.constprop.0+0x198>
   10b86:	02011823          	sh	zero,48(sp)
   10b8a:	01010893          	addi	a7,sp,16
   10b8e:	4801                	li	a6,0
   10b90:	4681                	li	a3,0
   10b92:	4e05                	li	t3,1
   10b94:	4319                	li	t1,6
   10b96:	0008d503          	lhu	a0,0(a7)
   10b9a:	010e163b          	sllw	a2,t3,a6
   10b9e:	4781                	li	a5,0
   10ba0:	4701                	li	a4,0
   10ba2:	a019                	j	10ba8 <_ZL14fft_rec_customPtS_mhjPKt.constprop.0+0x1e8>
   10ba4:	e805d683          	lhu	a3,-384(a1)
   10ba8:	9fb1                	addw	a5,a5,a2
   10baa:	2705                	addiw	a4,a4,1
   10bac:	0786                	slli	a5,a5,0x1
   10bae:	1742                	slli	a4,a4,0x30
   10bb0:	9341                	srli	a4,a4,0x30
   10bb2:	1b078793          	addi	a5,a5,432
   10bb6:	978a                	add	a5,a5,sp
   10bb8:	8ea9                	xor	a3,a3,a0
   10bba:	00171593          	slli	a1,a4,0x1
   10bbe:	1b058593          	addi	a1,a1,432
   10bc2:	e8d79023          	sh	a3,-384(a5)
   10bc6:	958a                	add	a1,a1,sp
   10bc8:	0007079b          	sext.w	a5,a4
   10bcc:	fcc74ce3          	blt	a4,a2,10ba4 <_ZL14fft_rec_customPtS_mhjPKt.constprop.0+0x1e4>
   10bd0:	2805                	addiw	a6,a6,1
   10bd2:	0889                	addi	a7,a7,2
   10bd4:	00680563          	beq	a6,t1,10bde <_ZL14fft_rec_customPtS_mhjPKt.constprop.0+0x21e>
   10bd8:	03015683          	lhu	a3,48(sp)
   10bdc:	bf6d                	j	10b96 <_ZL14fft_rec_customPtS_mhjPKt.constprop.0+0x1d6>
   10bde:	00148613          	addi	a2,s1,1
   10be2:	1014                	addi	a3,sp,32
   10be4:	8205                	srli	a2,a2,0x1
   10be6:	858a                	mv	a1,sp
   10be8:	1908                	addi	a0,sp,176
   10bea:	91dff0ef          	jal	ra,10506 <_ZL14fft_rec_customPtS_mhjPKt.constprop.1>
   10bee:	478d                	li	a5,3
   10bf0:	00240913          	addi	s2,s0,2
   10bf4:	0697e363          	bltu	a5,s1,10c5a <_ZL14fft_rec_customPtS_mhjPKt.constprop.0+0x29a>
   10bf8:	0b015783          	lhu	a5,176(sp)
   10bfc:	0b210593          	addi	a1,sp,178
   10c00:	03210613          	addi	a2,sp,50
   10c04:	0137c733          	xor	a4,a5,s3
   10c08:	08e41023          	sh	a4,128(s0)
   10c0c:	00f41023          	sh	a5,0(s0)
   10c10:	03f00713          	li	a4,63
   10c14:	884e                	mv	a6,s3
   10c16:	048777d7          	vsetvli	a5,a4,e16,m1,ta,mu
   10c1a:	02065c07          	vle16.v	v24,(a2)
   10c1e:	0205dc87          	vle16.v	v25,(a1)
   10c22:	3789ac2b          	gfmul.vx	v24,v24,s3
   10c26:	08090513          	addi	a0,s2,128
   10c2a:	0487f057          	vsetvli	zero,a5,e16,m1,ta,mu
   10c2e:	00179693          	slli	a3,a5,0x1
   10c32:	2f8c8c57          	vxor.vv	v24,v24,v25
   10c36:	8f1d                	sub	a4,a4,a5
   10c38:	02095c27          	vse16.v	v24,(s2)
   10c3c:	2f884c57          	vxor.vx	v24,v24,a6
   10c40:	02055c27          	vse16.v	v24,(a0)
   10c44:	9636                	add	a2,a2,a3
   10c46:	9936                	add	s2,s2,a3
   10c48:	95b6                	add	a1,a1,a3
   10c4a:	f771                	bnez	a4,10c16 <_ZL14fft_rec_customPtS_mhjPKt.constprop.0+0x256>
   10c4c:	60fe                	ld	ra,472(sp)
   10c4e:	645e                	ld	s0,464(sp)
   10c50:	64be                	ld	s1,456(sp)
   10c52:	691e                	ld	s2,448(sp)
   10c54:	79fa                	ld	s3,440(sp)
   10c56:	613d                	addi	sp,sp,480
   10c58:	8082                	ret
   10c5a:	1014                	addi	a3,sp,32
   10c5c:	0014d613          	srli	a2,s1,0x1
   10c60:	002c                	addi	a1,sp,8
   10c62:	1a08                	addi	a0,sp,304
   10c64:	8a3ff0ef          	jal	ra,10506 <_ZL14fft_rec_customPtS_mhjPKt.constprop.1>
   10c68:	1a0c                	addi	a1,sp,304
   10c6a:	08000613          	li	a2,128
   10c6e:	08040513          	addi	a0,s0,128
   10c72:	589080ef          	jal	ra,199fa <memcpy>
   10c76:	08045703          	lhu	a4,128(s0)
   10c7a:	0b015783          	lhu	a5,176(sp)
   10c7e:	13210813          	addi	a6,sp,306
   10c82:	0b210513          	addi	a0,sp,178
   10c86:	00f41023          	sh	a5,0(s0)
   10c8a:	8fb9                	xor	a5,a5,a4
   10c8c:	08f41023          	sh	a5,128(s0)
   10c90:	03210593          	addi	a1,sp,50
   10c94:	03f00713          	li	a4,63
   10c98:	08090613          	addi	a2,s2,128
   10c9c:	048777d7          	vsetvli	a5,a4,e16,m1,ta,mu
   10ca0:	0205dc07          	vle16.v	v24,(a1)
   10ca4:	02055d07          	vle16.v	v26,(a0)
   10ca8:	02085d87          	vle16.v	v27,(a6)
   10cac:	02065c87          	vle16.v	v25,(a2)
   10cb0:	3b8d8c2b          	gfmul.vv	v24,v24,v27
   10cb4:	00179693          	slli	a3,a5,0x1
   10cb8:	0487f057          	vsetvli	zero,a5,e16,m1,ta,mu
   10cbc:	8f1d                	sub	a4,a4,a5
   10cbe:	2f8d0c57          	vxor.vv	v24,v24,v26
   10cc2:	02095c27          	vse16.v	v24,(s2)
   10cc6:	2f8c8c57          	vxor.vv	v24,v24,v25
   10cca:	02065c27          	vse16.v	v24,(a2)
   10cce:	95b6                	add	a1,a1,a3
   10cd0:	9936                	add	s2,s2,a3
   10cd2:	9536                	add	a0,a0,a3
   10cd4:	9836                	add	a6,a6,a3
   10cd6:	f369                	bnez	a4,10c98 <_ZL14fft_rec_customPtS_mhjPKt.constprop.0+0x2d8>
   10cd8:	60fe                	ld	ra,472(sp)
   10cda:	645e                	ld	s0,464(sp)
   10cdc:	64be                	ld	s1,456(sp)
   10cde:	691e                	ld	s2,448(sp)
   10ce0:	79fa                	ld	s3,440(sp)
   10ce2:	613d                	addi	sp,sp,480
   10ce4:	8082                	ret

0000000000010ce6 <_ZL7fft_recPtS_mhjPKt.constprop.1>:
   10ce6:	df010113          	addi	sp,sp,-528
   10cea:	20813023          	sd	s0,512(sp)
   10cee:	f7ce                	sd	s3,488(sp)
   10cf0:	efd6                	sd	s5,472(sp)
   10cf2:	842a                	mv	s0,a0
   10cf4:	8aae                	mv	s5,a1
   10cf6:	89b2                	mv	s3,a2
   10cf8:	4581                	li	a1,0
   10cfa:	08000613          	li	a2,128
   10cfe:	1808                	addi	a0,sp,48
   10d00:	20113423          	sd	ra,520(sp)
   10d04:	fbca                	sd	s2,496(sp)
   10d06:	e7de                	sd	s7,456(sp)
   10d08:	ffa6                	sd	s1,504(sp)
   10d0a:	8bb6                	mv	s7,a3
   10d0c:	f3d2                	sd	s4,480(sp)
   10d0e:	ebda                	sd	s6,464(sp)
   10d10:	e3e2                	sd	s8,448(sp)
   10d12:	ff66                	sd	s9,440(sp)
   10d14:	fb6a                	sd	s10,432(sp)
   10d16:	e002                	sd	zero,0(sp)
   10d18:	e402                	sd	zero,8(sp)
   10d1a:	e802                	sd	zero,16(sp)
   10d1c:	cc02                	sw	zero,24(sp)
   10d1e:	f002                	sd	zero,32(sp)
   10d20:	d402                	sw	zero,40(sp)
   10d22:	61f080ef          	jal	ra,19b40 <memset>
   10d26:	08000613          	li	a2,128
   10d2a:	4581                	li	a1,0
   10d2c:	1908                	addi	a0,sp,176
   10d2e:	613080ef          	jal	ra,19b40 <memset>
   10d32:	13010913          	addi	s2,sp,304
   10d36:	08000613          	li	a2,128
   10d3a:	4581                	li	a1,0
   10d3c:	854a                	mv	a0,s2
   10d3e:	603080ef          	jal	ra,19b40 <memset>
   10d42:	00cbd503          	lhu	a0,12(s7)
   10d46:	4785                	li	a5,1
   10d48:	02f50763          	beq	a0,a5,10d76 <_ZL7fft_recPtS_mhjPKt.constprop.1+0x90>
   10d4c:	002a8493          	addi	s1,s5,2
   10d50:	010a8b13          	addi	s6,s5,16
   10d54:	4a05                	li	s4,1
   10d56:	85aa                	mv	a1,a0
   10d58:	8552                	mv	a0,s4
   10d5a:	5cd020ef          	jal	ra,13b26 <_Z6gf_multt>
   10d5e:	0004d583          	lhu	a1,0(s1)
   10d62:	8a2a                	mv	s4,a0
   10d64:	0489                	addi	s1,s1,2
   10d66:	5c1020ef          	jal	ra,13b26 <_Z6gf_multt>
   10d6a:	fea49f23          	sh	a0,-2(s1)
   10d6e:	00cbd503          	lhu	a0,12(s7)
   10d72:	fe9b12e3          	bne	s6,s1,10d56 <_ZL7fft_recPtS_mhjPKt.constprop.1+0x70>
   10d76:	00cad683          	lhu	a3,12(s5)
   10d7a:	00ead583          	lhu	a1,14(s5)
   10d7e:	008ad603          	lhu	a2,8(s5)
   10d82:	006ad703          	lhu	a4,6(s5)
   10d86:	00aad803          	lhu	a6,10(s5)
   10d8a:	004ad783          	lhu	a5,4(s5)
   10d8e:	8e35                	xor	a2,a2,a3
   10d90:	002ad483          	lhu	s1,2(s5)
   10d94:	8f2d                	xor	a4,a4,a1
   10d96:	000ad303          	lhu	t1,0(s5)
   10d9a:	00e84733          	xor	a4,a6,a4
   10d9e:	8fb1                	xor	a5,a5,a2
   10da0:	8fb9                	xor	a5,a5,a4
   10da2:	00b6c8b3          	xor	a7,a3,a1
   10da6:	8cbd                	xor	s1,s1,a5
   10da8:	0106c6b3          	xor	a3,a3,a6
   10dac:	01010a93          	addi	s5,sp,16
   10db0:	00611023          	sh	t1,0(sp)
   10db4:	00c11223          	sh	a2,4(sp)
   10db8:	01111323          	sh	a7,6(sp)
   10dbc:	00e11523          	sh	a4,10(sp)
   10dc0:	00d11623          	sh	a3,12(sp)
   10dc4:	00b11723          	sh	a1,14(sp)
   10dc8:	00f11123          	sh	a5,2(sp)
   10dcc:	00911423          	sh	s1,8(sp)
   10dd0:	8cde                	mv	s9,s7
   10dd2:	02010d13          	addi	s10,sp,32
   10dd6:	00ab8c13          	addi	s8,s7,10
   10dda:	8b56                	mv	s6,s5
   10ddc:	a021                	j	10de4 <_ZL7fft_recPtS_mhjPKt.constprop.1+0xfe>
   10dde:	00cbd503          	lhu	a0,12(s7)
   10de2:	0c89                	addi	s9,s9,2
   10de4:	000cda03          	lhu	s4,0(s9)
   10de8:	615020ef          	jal	ra,13bfc <_Z10gf_inverset>
   10dec:	85aa                	mv	a1,a0
   10dee:	8552                	mv	a0,s4
   10df0:	537020ef          	jal	ra,13b26 <_Z6gf_multt>
   10df4:	00ab1023          	sh	a0,0(s6)
   10df8:	8a2a                	mv	s4,a0
   10dfa:	57f020ef          	jal	ra,13b78 <_Z9gf_squaret>
   10dfe:	00aa4a33          	xor	s4,s4,a0
   10e02:	014d1023          	sh	s4,0(s10)
   10e06:	0b09                	addi	s6,s6,2
   10e08:	0d09                	addi	s10,s10,2
   10e0a:	fd9c1ae3          	bne	s8,s9,10dde <_ZL7fft_recPtS_mhjPKt.constprop.1+0xf8>
   10e0e:	4801                	li	a6,0
   10e10:	4681                	li	a3,0
   10e12:	4305                	li	t1,1
   10e14:	4899                	li	a7,6
   10e16:	000ad503          	lhu	a0,0(s5)
   10e1a:	010315bb          	sllw	a1,t1,a6
   10e1e:	4781                	li	a5,0
   10e20:	4701                	li	a4,0
   10e22:	a019                	j	10e28 <_ZL7fft_recPtS_mhjPKt.constprop.1+0x142>
   10e24:	e8065683          	lhu	a3,-384(a2)
   10e28:	9fad                	addw	a5,a5,a1
   10e2a:	2705                	addiw	a4,a4,1
   10e2c:	0786                	slli	a5,a5,0x1
   10e2e:	1742                	slli	a4,a4,0x30
   10e30:	9341                	srli	a4,a4,0x30
   10e32:	1b078793          	addi	a5,a5,432
   10e36:	978a                	add	a5,a5,sp
   10e38:	8ea9                	xor	a3,a3,a0
   10e3a:	00171613          	slli	a2,a4,0x1
   10e3e:	1b060613          	addi	a2,a2,432
   10e42:	e8d79023          	sh	a3,-384(a5)
   10e46:	960a                	add	a2,a2,sp
   10e48:	0007079b          	sext.w	a5,a4
   10e4c:	fcb74ce3          	blt	a4,a1,10e24 <_ZL7fft_recPtS_mhjPKt.constprop.1+0x13e>
   10e50:	2805                	addiw	a6,a6,1
   10e52:	0a89                	addi	s5,s5,2
   10e54:	01180563          	beq	a6,a7,10e5e <_ZL7fft_recPtS_mhjPKt.constprop.1+0x178>
   10e58:	03015683          	lhu	a3,48(sp)
   10e5c:	bf6d                	j	10e16 <_ZL7fft_recPtS_mhjPKt.constprop.1+0x130>
   10e5e:	00198613          	addi	a2,s3,1
   10e62:	1014                	addi	a3,sp,32
   10e64:	8205                	srli	a2,a2,0x1
   10e66:	858a                	mv	a1,sp
   10e68:	1908                	addi	a0,sp,176
   10e6a:	921ff0ef          	jal	ra,1078a <_ZL7fft_recPtS_mhjPKt.constprop.2>
   10e6e:	478d                	li	a5,3
   10e70:	0737e663          	bltu	a5,s3,10edc <_ZL7fft_recPtS_mhjPKt.constprop.1+0x1f6>
   10e74:	0b015783          	lhu	a5,176(sp)
   10e78:	0b210a13          	addi	s4,sp,178
   10e7c:	03210a93          	addi	s5,sp,50
   10e80:	0097c733          	xor	a4,a5,s1
   10e84:	00f41023          	sh	a5,0(s0)
   10e88:	08e41023          	sh	a4,128(s0)
   10e8c:	0409                	addi	s0,s0,2
   10e8e:	000ad503          	lhu	a0,0(s5)
   10e92:	000a5983          	lhu	s3,0(s4)
   10e96:	85a6                	mv	a1,s1
   10e98:	48f020ef          	jal	ra,13b26 <_Z6gf_multt>
   10e9c:	00a9c533          	xor	a0,s3,a0
   10ea0:	1542                	slli	a0,a0,0x30
   10ea2:	9141                	srli	a0,a0,0x30
   10ea4:	009547b3          	xor	a5,a0,s1
   10ea8:	00a41023          	sh	a0,0(s0)
   10eac:	08f41023          	sh	a5,128(s0)
   10eb0:	0a09                	addi	s4,s4,2
   10eb2:	0a89                	addi	s5,s5,2
   10eb4:	0409                	addi	s0,s0,2
   10eb6:	fd491ce3          	bne	s2,s4,10e8e <_ZL7fft_recPtS_mhjPKt.constprop.1+0x1a8>
   10eba:	20813083          	ld	ra,520(sp)
   10ebe:	20013403          	ld	s0,512(sp)
   10ec2:	74fe                	ld	s1,504(sp)
   10ec4:	795e                	ld	s2,496(sp)
   10ec6:	79be                	ld	s3,488(sp)
   10ec8:	7a1e                	ld	s4,480(sp)
   10eca:	6afe                	ld	s5,472(sp)
   10ecc:	6b5e                	ld	s6,464(sp)
   10ece:	6bbe                	ld	s7,456(sp)
   10ed0:	6c1e                	ld	s8,448(sp)
   10ed2:	7cfa                	ld	s9,440(sp)
   10ed4:	7d5a                	ld	s10,432(sp)
   10ed6:	21010113          	addi	sp,sp,528
   10eda:	8082                	ret
   10edc:	0019d613          	srli	a2,s3,0x1
   10ee0:	1014                	addi	a3,sp,32
   10ee2:	002c                	addi	a1,sp,8
   10ee4:	854a                	mv	a0,s2
   10ee6:	8a5ff0ef          	jal	ra,1078a <_ZL7fft_recPtS_mhjPKt.constprop.2>
   10eea:	08040513          	addi	a0,s0,128
   10eee:	08000613          	li	a2,128
   10ef2:	85ca                	mv	a1,s2
   10ef4:	307080ef          	jal	ra,199fa <memcpy>
   10ef8:	08045703          	lhu	a4,128(s0)
   10efc:	0b015783          	lhu	a5,176(sp)
   10f00:	0b210993          	addi	s3,sp,178
   10f04:	03210a93          	addi	s5,sp,50
   10f08:	00f41023          	sh	a5,0(s0)
   10f0c:	8fb9                	xor	a5,a5,a4
   10f0e:	08f41023          	sh	a5,128(s0)
   10f12:	13210a13          	addi	s4,sp,306
   10f16:	08240413          	addi	s0,s0,130
   10f1a:	000a5583          	lhu	a1,0(s4)
   10f1e:	000ad503          	lhu	a0,0(s5)
   10f22:	0009d483          	lhu	s1,0(s3)
   10f26:	0989                	addi	s3,s3,2
   10f28:	3ff020ef          	jal	ra,13b26 <_Z6gf_multt>
   10f2c:	00045703          	lhu	a4,0(s0)
   10f30:	00a4c7b3          	xor	a5,s1,a0
   10f34:	17c2                	slli	a5,a5,0x30
   10f36:	93c1                	srli	a5,a5,0x30
   10f38:	8f3d                	xor	a4,a4,a5
   10f3a:	f8f41023          	sh	a5,-128(s0)
   10f3e:	00e41023          	sh	a4,0(s0)
   10f42:	0a89                	addi	s5,s5,2
   10f44:	0a09                	addi	s4,s4,2
   10f46:	0409                	addi	s0,s0,2
   10f48:	fd3919e3          	bne	s2,s3,10f1a <_ZL7fft_recPtS_mhjPKt.constprop.1+0x234>
   10f4c:	b7bd                	j	10eba <_ZL7fft_recPtS_mhjPKt.constprop.1+0x1d4>

0000000000010f4e <_Z3fftPtPKtm>:
   10f4e:	c8010113          	addi	sp,sp,-896
   10f52:	36813823          	sd	s0,880(sp)
   10f56:	36913423          	sd	s1,872(sp)
   10f5a:	35313c23          	sd	s3,856(sp)
   10f5e:	84aa                	mv	s1,a0
   10f60:	89ae                	mv	s3,a1
   10f62:	8432                	mv	s0,a2
   10f64:	4581                	li	a1,0
   10f66:	10000613          	li	a2,256
   10f6a:	0088                	addi	a0,sp,64
   10f6c:	36113c23          	sd	ra,888(sp)
   10f70:	37213023          	sd	s2,864(sp)
   10f74:	35413823          	sd	s4,848(sp)
   10f78:	35513423          	sd	s5,840(sp)
   10f7c:	35613023          	sd	s6,832(sp)
   10f80:	3c1080ef          	jal	ra,19b40 <memset>
   10f84:	10000613          	li	a2,256
   10f88:	4581                	li	a1,0
   10f8a:	0288                	addi	a0,sp,320
   10f8c:	f002                	sd	zero,32(sp)
   10f8e:	f402                	sd	zero,40(sp)
   10f90:	f802                	sd	zero,48(sp)
   10f92:	fc02                	sd	zero,56(sp)
   10f94:	e802                	sd	zero,16(sp)
   10f96:	cc02                	sw	zero,24(sp)
   10f98:	00011e23          	sh	zero,28(sp)
   10f9c:	24010913          	addi	s2,sp,576
   10fa0:	3a1080ef          	jal	ra,19b40 <memset>
   10fa4:	10000613          	li	a2,256
   10fa8:	4581                	li	a1,0
   10faa:	854a                	mv	a0,s2
   10fac:	395080ef          	jal	ra,19b40 <memset>
   10fb0:	6281b783          	ld	a5,1576(gp) # 2bd48 <__SDATA_BEGIN__>
   10fb4:	8a0a                	mv	s4,sp
   10fb6:	88d2                	mv	a7,s4
   10fb8:	e03e                	sd	a5,0(sp)
   10fba:	000407b7          	lui	a5,0x40
   10fbe:	07a1                	addi	a5,a5,8 # 40008 <__BSS_END__+0x140e8>
   10fc0:	c43e                	sw	a5,8(sp)
   10fc2:	4789                	li	a5,2
   10fc4:	00f11623          	sh	a5,12(sp)
   10fc8:	4801                	li	a6,0
   10fca:	4681                	li	a3,0
   10fcc:	4e05                	li	t3,1
   10fce:	431d                	li	t1,7
   10fd0:	0008d503          	lhu	a0,0(a7)
   10fd4:	010e15bb          	sllw	a1,t3,a6
   10fd8:	4781                	li	a5,0
   10fda:	4701                	li	a4,0
   10fdc:	a019                	j	10fe2 <_Z3fftPtPKtm+0x94>
   10fde:	d0065683          	lhu	a3,-768(a2)
   10fe2:	9fad                	addw	a5,a5,a1
   10fe4:	2705                	addiw	a4,a4,1
   10fe6:	0786                	slli	a5,a5,0x1
   10fe8:	1742                	slli	a4,a4,0x30
   10fea:	9341                	srli	a4,a4,0x30
   10fec:	34078793          	addi	a5,a5,832
   10ff0:	978a                	add	a5,a5,sp
   10ff2:	8ea9                	xor	a3,a3,a0
   10ff4:	00171613          	slli	a2,a4,0x1
   10ff8:	34060613          	addi	a2,a2,832
   10ffc:	d0d79023          	sh	a3,-768(a5)
   11000:	960a                	add	a2,a2,sp
   11002:	0007079b          	sext.w	a5,a4
   11006:	fcb74ce3          	blt	a4,a1,10fde <_Z3fftPtPKtm+0x90>
   1100a:	2805                	addiw	a6,a6,1
   1100c:	0889                	addi	a7,a7,2
   1100e:	00680563          	beq	a6,t1,11018 <_Z3fftPtPKtm+0xca>
   11012:	04015683          	lhu	a3,64(sp)
   11016:	bf6d                	j	10fd0 <_Z3fftPtPKtm+0x82>
   11018:	4691                	li	a3,4
   1101a:	864e                	mv	a2,s3
   1101c:	180c                	addi	a1,sp,48
   1101e:	1008                	addi	a0,sp,32
   11020:	a3eff0ef          	jal	ra,1025e <_ZL5radixPtS_PKtj>
   11024:	01010a93          	addi	s5,sp,16
   11028:	00ea0b13          	addi	s6,s4,14
   1102c:	000a5983          	lhu	s3,0(s4)
   11030:	0a89                	addi	s5,s5,2
   11032:	0a09                	addi	s4,s4,2
   11034:	854e                	mv	a0,s3
   11036:	343020ef          	jal	ra,13b78 <_Z9gf_squaret>
   1103a:	00a9c9b3          	xor	s3,s3,a0
   1103e:	ff3a9f23          	sh	s3,-2(s5)
   11042:	ff6a15e3          	bne	s4,s6,1102c <_Z3fftPtPKtm+0xde>
   11046:	00140613          	addi	a2,s0,1
   1104a:	8205                	srli	a2,a2,0x1
   1104c:	100c                	addi	a1,sp,32
   1104e:	0288                	addi	a0,sp,320
   11050:	0814                	addi	a3,sp,16
   11052:	c95ff0ef          	jal	ra,10ce6 <_ZL7fft_recPtS_mhjPKt.constprop.1>
   11056:	0814                	addi	a3,sp,16
   11058:	00145613          	srli	a2,s0,0x1
   1105c:	180c                	addi	a1,sp,48
   1105e:	854a                	mv	a0,s2
   11060:	c87ff0ef          	jal	ra,10ce6 <_ZL7fft_recPtS_mhjPKt.constprop.1>
   11064:	10048513          	addi	a0,s1,256
   11068:	10000613          	li	a2,256
   1106c:	85ca                	mv	a1,s2
   1106e:	18d080ef          	jal	ra,199fa <memcpy>
   11072:	1004d703          	lhu	a4,256(s1)
   11076:	14015783          	lhu	a5,320(sp)
   1107a:	14210993          	addi	s3,sp,322
   1107e:	04210a93          	addi	s5,sp,66
   11082:	00f49023          	sh	a5,0(s1)
   11086:	8fb9                	xor	a5,a5,a4
   11088:	10f49023          	sh	a5,256(s1)
   1108c:	24210a13          	addi	s4,sp,578
   11090:	10248493          	addi	s1,s1,258
   11094:	000a5583          	lhu	a1,0(s4)
   11098:	000ad503          	lhu	a0,0(s5)
   1109c:	0009d403          	lhu	s0,0(s3)
   110a0:	0989                	addi	s3,s3,2
   110a2:	285020ef          	jal	ra,13b26 <_Z6gf_multt>
   110a6:	0004d783          	lhu	a5,0(s1)
   110aa:	8d21                	xor	a0,a0,s0
   110ac:	1542                	slli	a0,a0,0x30
   110ae:	9141                	srli	a0,a0,0x30
   110b0:	8fa9                	xor	a5,a5,a0
   110b2:	f0a49023          	sh	a0,-256(s1)
   110b6:	00f49023          	sh	a5,0(s1)
   110ba:	0a89                	addi	s5,s5,2
   110bc:	0a09                	addi	s4,s4,2
   110be:	0489                	addi	s1,s1,2
   110c0:	fd391ae3          	bne	s2,s3,11094 <_Z3fftPtPKtm+0x146>
   110c4:	37813083          	ld	ra,888(sp)
   110c8:	37013403          	ld	s0,880(sp)
   110cc:	36813483          	ld	s1,872(sp)
   110d0:	36013903          	ld	s2,864(sp)
   110d4:	35813983          	ld	s3,856(sp)
   110d8:	35013a03          	ld	s4,848(sp)
   110dc:	34813a83          	ld	s5,840(sp)
   110e0:	34013b03          	ld	s6,832(sp)
   110e4:	38010113          	addi	sp,sp,896
   110e8:	8082                	ret

00000000000110ea <_Z10fft_customPtPKtm>:
   110ea:	ca010113          	addi	sp,sp,-864
   110ee:	34813823          	sd	s0,848(sp)
   110f2:	34913423          	sd	s1,840(sp)
   110f6:	35213023          	sd	s2,832(sp)
   110fa:	842a                	mv	s0,a0
   110fc:	892e                	mv	s2,a1
   110fe:	84b2                	mv	s1,a2
   11100:	4581                	li	a1,0
   11102:	10000613          	li	a2,256
   11106:	0088                	addi	a0,sp,64
   11108:	34113c23          	sd	ra,856(sp)
   1110c:	235080ef          	jal	ra,19b40 <memset>
   11110:	10000613          	li	a2,256
   11114:	4581                	li	a1,0
   11116:	0288                	addi	a0,sp,320
   11118:	f002                	sd	zero,32(sp)
   1111a:	f402                	sd	zero,40(sp)
   1111c:	f802                	sd	zero,48(sp)
   1111e:	fc02                	sd	zero,56(sp)
   11120:	e802                	sd	zero,16(sp)
   11122:	cc02                	sw	zero,24(sp)
   11124:	00011e23          	sh	zero,28(sp)
   11128:	219080ef          	jal	ra,19b40 <memset>
   1112c:	10000613          	li	a2,256
   11130:	4581                	li	a1,0
   11132:	0488                	addi	a0,sp,576
   11134:	20d080ef          	jal	ra,19b40 <memset>
   11138:	11d00793          	li	a5,285
   1113c:	00f3e7db          	pqccsrrw	a5,a5,7
   11140:	6281b783          	ld	a5,1576(gp) # 2bd48 <__SDATA_BEGIN__>
   11144:	888a                	mv	a7,sp
   11146:	4501                	li	a0,0
   11148:	e03e                	sd	a5,0(sp)
   1114a:	000407b7          	lui	a5,0x40
   1114e:	07a1                	addi	a5,a5,8 # 40008 <__BSS_END__+0x140e8>
   11150:	c43e                	sw	a5,8(sp)
   11152:	4789                	li	a5,2
   11154:	00f11623          	sh	a5,12(sp)
   11158:	4681                	li	a3,0
   1115a:	4e05                	li	t3,1
   1115c:	431d                	li	t1,7
   1115e:	0008d583          	lhu	a1,0(a7)
   11162:	00ae163b          	sllw	a2,t3,a0
   11166:	4781                	li	a5,0
   11168:	4701                	li	a4,0
   1116a:	a019                	j	11170 <_Z10fft_customPtPKtm+0x86>
   1116c:	d0085683          	lhu	a3,-768(a6)
   11170:	9fb1                	addw	a5,a5,a2
   11172:	2705                	addiw	a4,a4,1
   11174:	0786                	slli	a5,a5,0x1
   11176:	1742                	slli	a4,a4,0x30
   11178:	9341                	srli	a4,a4,0x30
   1117a:	34078793          	addi	a5,a5,832
   1117e:	978a                	add	a5,a5,sp
   11180:	8ead                	xor	a3,a3,a1
   11182:	00171813          	slli	a6,a4,0x1
   11186:	34080813          	addi	a6,a6,832
   1118a:	d0d79023          	sh	a3,-768(a5)
   1118e:	980a                	add	a6,a6,sp
   11190:	0007079b          	sext.w	a5,a4
   11194:	fcc74ce3          	blt	a4,a2,1116c <_Z10fft_customPtPKtm+0x82>
   11198:	2505                	addiw	a0,a0,1
   1119a:	0889                	addi	a7,a7,2
   1119c:	00650563          	beq	a0,t1,111a6 <_Z10fft_customPtPKtm+0xbc>
   111a0:	04015683          	lhu	a3,64(sp)
   111a4:	bf6d                	j	1115e <_Z10fft_customPtPKtm+0x74>
   111a6:	4691                	li	a3,4
   111a8:	864a                	mv	a2,s2
   111aa:	180c                	addi	a1,sp,48
   111ac:	1008                	addi	a0,sp,32
   111ae:	8b0ff0ef          	jal	ra,1025e <_ZL5radixPtS_PKtj>
   111b2:	860a                	mv	a2,sp
   111b4:	0814                	addi	a3,sp,16
   111b6:	471d                	li	a4,7
   111b8:	048777d7          	vsetvli	a5,a4,e16,m1,ta,mu
   111bc:	02065c07          	vle16.v	v24,(a2)
   111c0:	3b8c0cab          	gfmul.vv	v25,v24,v24
   111c4:	00179593          	slli	a1,a5,0x1
   111c8:	0487f057          	vsetvli	zero,a5,e16,m1,ta,mu
   111cc:	8f1d                	sub	a4,a4,a5
   111ce:	2f8c8c57          	vxor.vv	v24,v24,v25
   111d2:	0206dc27          	vse16.v	v24,(a3)
   111d6:	962e                	add	a2,a2,a1
   111d8:	96ae                	add	a3,a3,a1
   111da:	ff79                	bnez	a4,111b8 <_Z10fft_customPtPKtm+0xce>
   111dc:	00148613          	addi	a2,s1,1
   111e0:	8205                	srli	a2,a2,0x1
   111e2:	100c                	addi	a1,sp,32
   111e4:	0288                	addi	a0,sp,320
   111e6:	0814                	addi	a3,sp,16
   111e8:	fd8ff0ef          	jal	ra,109c0 <_ZL14fft_rec_customPtS_mhjPKt.constprop.0>
   111ec:	0814                	addi	a3,sp,16
   111ee:	0014d613          	srli	a2,s1,0x1
   111f2:	180c                	addi	a1,sp,48
   111f4:	0488                	addi	a0,sp,576
   111f6:	fcaff0ef          	jal	ra,109c0 <_ZL14fft_rec_customPtS_mhjPKt.constprop.0>
   111fa:	10000613          	li	a2,256
   111fe:	048c                	addi	a1,sp,576
   11200:	10040513          	addi	a0,s0,256
   11204:	7f6080ef          	jal	ra,199fa <memcpy>
   11208:	10045703          	lhu	a4,256(s0)
   1120c:	14015783          	lhu	a5,320(sp)
   11210:	00240693          	addi	a3,s0,2
   11214:	24210893          	addi	a7,sp,578
   11218:	00f41023          	sh	a5,0(s0)
   1121c:	8fb9                	xor	a5,a5,a4
   1121e:	10f41023          	sh	a5,256(s0)
   11222:	14210813          	addi	a6,sp,322
   11226:	04210513          	addi	a0,sp,66
   1122a:	07f00713          	li	a4,127
   1122e:	10068593          	addi	a1,a3,256
   11232:	048777d7          	vsetvli	a5,a4,e16,m1,ta,mu
   11236:	02055c07          	vle16.v	v24,(a0)
   1123a:	02085d07          	vle16.v	v26,(a6)
   1123e:	0208dd87          	vle16.v	v27,(a7)
   11242:	0205dc87          	vle16.v	v25,(a1)
   11246:	3b8d8c2b          	gfmul.vv	v24,v24,v27
   1124a:	00179613          	slli	a2,a5,0x1
   1124e:	0487f057          	vsetvli	zero,a5,e16,m1,ta,mu
   11252:	8f1d                	sub	a4,a4,a5
   11254:	2f8d0c57          	vxor.vv	v24,v24,v26
   11258:	0206dc27          	vse16.v	v24,(a3)
   1125c:	2f8c8c57          	vxor.vv	v24,v24,v25
   11260:	0205dc27          	vse16.v	v24,(a1)
   11264:	9532                	add	a0,a0,a2
   11266:	96b2                	add	a3,a3,a2
   11268:	9832                	add	a6,a6,a2
   1126a:	98b2                	add	a7,a7,a2
   1126c:	f369                	bnez	a4,1122e <_Z10fft_customPtPKtm+0x144>
   1126e:	35813083          	ld	ra,856(sp)
   11272:	35013403          	ld	s0,848(sp)
   11276:	34813483          	ld	s1,840(sp)
   1127a:	34013903          	ld	s2,832(sp)
   1127e:	36010113          	addi	sp,sp,864
   11282:	8082                	ret

0000000000011284 <_Z23fft_retrieve_error_polyPhPKt>:
   11284:	7169                	addi	sp,sp,-304
   11286:	f222                	sd	s0,288(sp)
   11288:	ee26                	sd	s1,280(sp)
   1128a:	842a                	mv	s0,a0
   1128c:	84ae                	mv	s1,a1
   1128e:	10000613          	li	a2,256
   11292:	4581                	li	a1,0
   11294:	0808                	addi	a0,sp,16
   11296:	f606                	sd	ra,296(sp)
   11298:	0a9080ef          	jal	ra,19b40 <memset>
   1129c:	6281b783          	ld	a5,1576(gp) # 2bd48 <__SDATA_BEGIN__>
   112a0:	830a                	mv	t1,sp
   112a2:	4881                	li	a7,0
   112a4:	e03e                	sd	a5,0(sp)
   112a6:	000407b7          	lui	a5,0x40
   112aa:	07a1                	addi	a5,a5,8 # 40008 <__BSS_END__+0x140e8>
   112ac:	c43e                	sw	a5,8(sp)
   112ae:	4789                	li	a5,2
   112b0:	00f11623          	sh	a5,12(sp)
   112b4:	4681                	li	a3,0
   112b6:	4e85                	li	t4,1
   112b8:	4e1d                	li	t3,7
   112ba:	00035803          	lhu	a6,0(t1) # 101ac <frame_dummy+0x12>
   112be:	011e953b          	sllw	a0,t4,a7
   112c2:	4781                	li	a5,0
   112c4:	4701                	li	a4,0
   112c6:	a019                	j	112cc <_Z23fft_retrieve_error_polyPhPKt+0x48>
   112c8:	f0065683          	lhu	a3,-256(a2)
   112cc:	9fa9                	addw	a5,a5,a0
   112ce:	2705                	addiw	a4,a4,1
   112d0:	0786                	slli	a5,a5,0x1
   112d2:	1742                	slli	a4,a4,0x30
   112d4:	9341                	srli	a4,a4,0x30
   112d6:	11078793          	addi	a5,a5,272
   112da:	978a                	add	a5,a5,sp
   112dc:	00d846b3          	xor	a3,a6,a3
   112e0:	00171613          	slli	a2,a4,0x1
   112e4:	11060613          	addi	a2,a2,272
   112e8:	f0d79023          	sh	a3,-256(a5)
   112ec:	960a                	add	a2,a2,sp
   112ee:	0007079b          	sext.w	a5,a4
   112f2:	fca74be3          	blt	a4,a0,112c8 <_Z23fft_retrieve_error_polyPhPKt+0x44>
   112f6:	2885                	addiw	a7,a7,1
   112f8:	0309                	addi	t1,t1,2
   112fa:	01c88563          	beq	a7,t3,11304 <_Z23fft_retrieve_error_polyPhPKt+0x80>
   112fe:	01015683          	lhu	a3,16(sp)
   11302:	bf65                	j	112ba <_Z23fft_retrieve_error_polyPhPKt+0x36>
   11304:	0004d703          	lhu	a4,0(s1)
   11308:	00044783          	lbu	a5,0(s0)
   1130c:	00026537          	lui	a0,0x26
   11310:	40e0073b          	negw	a4,a4
   11314:	0107171b          	slliw	a4,a4,0x10
   11318:	0107571b          	srliw	a4,a4,0x10
   1131c:	00f7571b          	srliw	a4,a4,0xf
   11320:	8fb9                	xor	a5,a5,a4
   11322:	0017c793          	xori	a5,a5,1
   11326:	0ff7f793          	zext.b	a5,a5
   1132a:	00f40023          	sb	a5,0(s0)
   1132e:	1004d703          	lhu	a4,256(s1)
   11332:	01210613          	addi	a2,sp,18
   11336:	10248593          	addi	a1,s1,258
   1133a:	40e0073b          	negw	a4,a4
   1133e:	0107171b          	slliw	a4,a4,0x10
   11342:	0107571b          	srliw	a4,a4,0x10
   11346:	00f7571b          	srliw	a4,a4,0xf
   1134a:	8fb9                	xor	a5,a5,a4
   1134c:	0017c793          	xori	a5,a5,1
   11350:	00f40023          	sb	a5,0(s0)
   11354:	11010893          	addi	a7,sp,272
   11358:	2c850513          	addi	a0,a0,712 # 262c8 <_ZL6gf_log>
   1135c:	0ff00813          	li	a6,255
   11360:	00065783          	lhu	a5,0(a2)
   11364:	f005d703          	lhu	a4,-256(a1)
   11368:	0609                	addi	a2,a2,2
   1136a:	00179693          	slli	a3,a5,0x1
   1136e:	96aa                	add	a3,a3,a0
   11370:	0006d683          	lhu	a3,0(a3)
   11374:	40e0073b          	negw	a4,a4
   11378:	0107171b          	slliw	a4,a4,0x10
   1137c:	40d806bb          	subw	a3,a6,a3
   11380:	96a2                	add	a3,a3,s0
   11382:	0006c303          	lbu	t1,0(a3)
   11386:	0107571b          	srliw	a4,a4,0x10
   1138a:	0017c793          	xori	a5,a5,1
   1138e:	00f7571b          	srliw	a4,a4,0xf
   11392:	0786                	slli	a5,a5,0x1
   11394:	00e34333          	xor	t1,t1,a4
   11398:	97aa                	add	a5,a5,a0
   1139a:	0007d703          	lhu	a4,0(a5)
   1139e:	00134793          	xori	a5,t1,1
   113a2:	00f68023          	sb	a5,0(a3)
   113a6:	0005d783          	lhu	a5,0(a1)
   113aa:	40e8073b          	subw	a4,a6,a4
   113ae:	9722                	add	a4,a4,s0
   113b0:	40f007bb          	negw	a5,a5
   113b4:	00074683          	lbu	a3,0(a4)
   113b8:	0107979b          	slliw	a5,a5,0x10
   113bc:	0107d79b          	srliw	a5,a5,0x10
   113c0:	00f7d79b          	srliw	a5,a5,0xf
   113c4:	8fb5                	xor	a5,a5,a3
   113c6:	0017c793          	xori	a5,a5,1
   113ca:	00f70023          	sb	a5,0(a4)
   113ce:	0589                	addi	a1,a1,2
   113d0:	f91618e3          	bne	a2,a7,11360 <_Z23fft_retrieve_error_polyPhPKt+0xdc>
   113d4:	70b2                	ld	ra,296(sp)
   113d6:	7412                	ld	s0,288(sp)
   113d8:	64f2                	ld	s1,280(sp)
   113da:	6155                	addi	sp,sp,304
   113dc:	8082                	ret

00000000000113de <_Z30fft_retrieve_error_poly_customPhPKt>:
   113de:	7169                	addi	sp,sp,-304
   113e0:	f222                	sd	s0,288(sp)
   113e2:	ee26                	sd	s1,280(sp)
   113e4:	842e                	mv	s0,a1
   113e6:	84aa                	mv	s1,a0
   113e8:	4581                	li	a1,0
   113ea:	10000613          	li	a2,256
   113ee:	0808                	addi	a0,sp,16
   113f0:	f606                	sd	ra,296(sp)
   113f2:	74e080ef          	jal	ra,19b40 <memset>
   113f6:	6281b783          	ld	a5,1576(gp) # 2bd48 <__SDATA_BEGIN__>
   113fa:	850a                	mv	a0,sp
   113fc:	4581                	li	a1,0
   113fe:	e03e                	sd	a5,0(sp)
   11400:	000407b7          	lui	a5,0x40
   11404:	07a1                	addi	a5,a5,8 # 40008 <__BSS_END__+0x140e8>
   11406:	c43e                	sw	a5,8(sp)
   11408:	4789                	li	a5,2
   1140a:	00f11623          	sh	a5,12(sp)
   1140e:	4681                	li	a3,0
   11410:	4e05                	li	t3,1
   11412:	431d                	li	t1,7
   11414:	00055883          	lhu	a7,0(a0)
   11418:	00be183b          	sllw	a6,t3,a1
   1141c:	4781                	li	a5,0
   1141e:	4701                	li	a4,0
   11420:	a019                	j	11426 <_Z30fft_retrieve_error_poly_customPhPKt+0x48>
   11422:	f0065683          	lhu	a3,-256(a2)
   11426:	00f807bb          	addw	a5,a6,a5
   1142a:	2705                	addiw	a4,a4,1
   1142c:	0786                	slli	a5,a5,0x1
   1142e:	1742                	slli	a4,a4,0x30
   11430:	9341                	srli	a4,a4,0x30
   11432:	11078793          	addi	a5,a5,272
   11436:	978a                	add	a5,a5,sp
   11438:	00d8c6b3          	xor	a3,a7,a3
   1143c:	00171613          	slli	a2,a4,0x1
   11440:	11060613          	addi	a2,a2,272
   11444:	f0d79023          	sh	a3,-256(a5)
   11448:	960a                	add	a2,a2,sp
   1144a:	0007079b          	sext.w	a5,a4
   1144e:	fd074ae3          	blt	a4,a6,11422 <_Z30fft_retrieve_error_poly_customPhPKt+0x44>
   11452:	2585                	addiw	a1,a1,1
   11454:	0509                	addi	a0,a0,2
   11456:	00658563          	beq	a1,t1,11460 <_Z30fft_retrieve_error_poly_customPhPKt+0x82>
   1145a:	01015683          	lhu	a3,16(sp)
   1145e:	bf5d                	j	11414 <_Z30fft_retrieve_error_poly_customPhPKt+0x36>
   11460:	00045703          	lhu	a4,0(s0)
   11464:	0004c783          	lbu	a5,0(s1)
   11468:	00026537          	lui	a0,0x26
   1146c:	40e0073b          	negw	a4,a4
   11470:	0107171b          	slliw	a4,a4,0x10
   11474:	0107571b          	srliw	a4,a4,0x10
   11478:	00f7571b          	srliw	a4,a4,0xf
   1147c:	8fb9                	xor	a5,a5,a4
   1147e:	0017c793          	xori	a5,a5,1
   11482:	0ff7f793          	zext.b	a5,a5
   11486:	00f48023          	sb	a5,0(s1)
   1148a:	10045703          	lhu	a4,256(s0)
   1148e:	00240593          	addi	a1,s0,2
   11492:	01210693          	addi	a3,sp,18
   11496:	40e0073b          	negw	a4,a4
   1149a:	0107171b          	slliw	a4,a4,0x10
   1149e:	0107571b          	srliw	a4,a4,0x10
   114a2:	00f7571b          	srliw	a4,a4,0xf
   114a6:	8fb9                	xor	a5,a5,a4
   114a8:	0017c793          	xori	a5,a5,1
   114ac:	00f48023          	sb	a5,0(s1)
   114b0:	07f00713          	li	a4,127
   114b4:	2c850513          	addi	a0,a0,712 # 262c8 <_ZL6gf_log>
   114b8:	0ff00813          	li	a6,255
   114bc:	04a777d7          	vsetvli	a5,a4,e16,m4,ta,mu
   114c0:	0206d607          	vle16.v	v12,(a3)
   114c4:	0205dc07          	vle16.v	v24,(a1)
   114c8:	2ec0b457          	vxor.vi	v8,v12,1
   114cc:	0f803c57          	vrsub.vi	v24,v24,0
   114d0:	96c0b657          	vsll.vi	v12,v12,1
   114d4:	a387bc57          	vsrl.vi	v24,v24,15
   114d8:	06c55e07          	vluxei16.v	v28,(a0),v12
   114dc:	2f80bc57          	vxor.vi	v24,v24,1
   114e0:	0fc84e57          	vrsub.vx	v28,v28,a6
   114e4:	04107057          	vsetvli	zero,zero,e8,m2,ta,mu
   114e8:	10058613          	addi	a2,a1,256
   114ec:	b3c03e57          	vnsrl.wi	v28,v28,0
   114f0:	b3803c57          	vnsrl.wi	v24,v24,0
   114f4:	0417f057          	vsetvli	zero,a5,e8,m2,ta,mu
   114f8:	07c48d07          	vluxei8.v	v26,(s1),v28
   114fc:	2fac0c57          	vxor.vv	v24,v26,v24
   11500:	07c48c27          	vsuxei8.v	v24,(s1),v28
   11504:	04a07057          	vsetvli	zero,zero,e16,m4,ta,mu
   11508:	02065c07          	vle16.v	v24,(a2)
   1150c:	0f803c57          	vrsub.vi	v24,v24,0
   11510:	a387bc57          	vsrl.vi	v24,v24,15
   11514:	2f80bc57          	vxor.vi	v24,v24,1
   11518:	00179613          	slli	a2,a5,0x1
   1151c:	9680b457          	vsll.vi	v8,v8,1
   11520:	8f1d                	sub	a4,a4,a5
   11522:	06855e07          	vluxei16.v	v28,(a0),v8
   11526:	0fc84e57          	vrsub.vx	v28,v28,a6
   1152a:	04107057          	vsetvli	zero,zero,e8,m2,ta,mu
   1152e:	b3c03e57          	vnsrl.wi	v28,v28,0
   11532:	b3803c57          	vnsrl.wi	v24,v24,0
   11536:	07c48d07          	vluxei8.v	v26,(s1),v28
   1153a:	2fac0c57          	vxor.vv	v24,v26,v24
   1153e:	07c48c27          	vsuxei8.v	v24,(s1),v28
   11542:	96b2                	add	a3,a3,a2
   11544:	95b2                	add	a1,a1,a2
   11546:	fb3d                	bnez	a4,114bc <_Z30fft_retrieve_error_poly_customPhPKt+0xde>
   11548:	70b2                	ld	ra,296(sp)
   1154a:	7412                	ld	s0,288(sp)
   1154c:	64f2                	ld	s1,280(sp)
   1154e:	6155                	addi	sp,sp,304
   11550:	8082                	ret

0000000000011552 <_Z19test_fft_rec_customv>:
   11552:	000266b7          	lui	a3,0x26
   11556:	dd010113          	addi	sp,sp,-560
   1155a:	2c868693          	addi	a3,a3,712 # 262c8 <_ZL6gf_log>
   1155e:	20068793          	addi	a5,a3,512
   11562:	22113423          	sd	ra,552(sp)
   11566:	22813023          	sd	s0,544(sp)
   1156a:	1018                	addi	a4,sp,32
   1156c:	30068693          	addi	a3,a3,768
   11570:	0007b803          	ld	a6,0(a5)
   11574:	6788                	ld	a0,8(a5)
   11576:	6b8c                	ld	a1,16(a5)
   11578:	6f90                	ld	a2,24(a5)
   1157a:	01073023          	sd	a6,0(a4)
   1157e:	e708                	sd	a0,8(a4)
   11580:	eb0c                	sd	a1,16(a4)
   11582:	ef10                	sd	a2,24(a4)
   11584:	02078793          	addi	a5,a5,32
   11588:	02070713          	addi	a4,a4,32
   1158c:	fed792e3          	bne	a5,a3,11570 <_Z19test_fft_rec_customv+0x1e>
   11590:	1200                	addi	s0,sp,288
   11592:	10000613          	li	a2,256
   11596:	4581                	li	a1,0
   11598:	8522                	mv	a0,s0
   1159a:	5a6080ef          	jal	ra,19b40 <memset>
   1159e:	6301b783          	ld	a5,1584(gp) # 2bd50 <__SDATA_BEGIN__+0x8>
   115a2:	4705                	li	a4,1
   115a4:	868a                	mv	a3,sp
   115a6:	e03e                	sd	a5,0(sp)
   115a8:	001407b7          	lui	a5,0x140
   115ac:	04878793          	addi	a5,a5,72 # 140048 <__BSS_END__+0x114128>
   115b0:	c43e                	sw	a5,8(sp)
   115b2:	4621                	li	a2,8
   115b4:	4799                	li	a5,6
   115b6:	080c                	addi	a1,sp,16
   115b8:	8522                	mv	a0,s0
   115ba:	e83a                	sd	a4,16(sp)
   115bc:	00f11623          	sh	a5,12(sp)
   115c0:	ec02                	sd	zero,24(sp)
   115c2:	bfeff0ef          	jal	ra,109c0 <_ZL14fft_rec_customPtS_mhjPKt.constprop.0>
   115c6:	101c                	addi	a5,sp,32
   115c8:	8722                	mv	a4,s0
   115ca:	a019                	j	115d0 <_Z19test_fft_rec_customv+0x7e>
   115cc:	02f40a63          	beq	s0,a5,11600 <_Z19test_fft_rec_customv+0xae>
   115d0:	0007d603          	lhu	a2,0(a5)
   115d4:	00075683          	lhu	a3,0(a4)
   115d8:	0789                	addi	a5,a5,2
   115da:	0709                	addi	a4,a4,2
   115dc:	fed608e3          	beq	a2,a3,115cc <_Z19test_fft_rec_customv+0x7a>
   115e0:	4581                	li	a1,0
   115e2:	4401                	li	s0,0
   115e4:	00026537          	lui	a0,0x26
   115e8:	1e050513          	addi	a0,a0,480 # 261e0 <__clzdi2+0x3e>
   115ec:	620080ef          	jal	ra,19c0c <printf>
   115f0:	22813083          	ld	ra,552(sp)
   115f4:	8522                	mv	a0,s0
   115f6:	22013403          	ld	s0,544(sp)
   115fa:	23010113          	addi	sp,sp,560
   115fe:	8082                	ret
   11600:	4585                	li	a1,1
   11602:	4405                	li	s0,1
   11604:	b7c5                	j	115e4 <_Z19test_fft_rec_customv+0x92>

0000000000011606 <_Z15test_fft_customv>:
   11606:	7125                	addi	sp,sp,-416
   11608:	ef06                	sd	ra,408(sp)
   1160a:	eb22                	sd	s0,400(sp)
   1160c:	e726                	sd	s1,392(sp)
   1160e:	e34a                	sd	s2,384(sp)
   11610:	fece                	sd	s3,376(sp)
   11612:	fad2                	sd	s4,368(sp)
   11614:	f6d6                	sd	s5,360(sp)
   11616:	f2da                	sd	s6,352(sp)
   11618:	eede                	sd	s7,344(sp)
   1161a:	eae2                	sd	s8,336(sp)
   1161c:	e6e6                	sd	s9,328(sp)
   1161e:	e2ea                	sd	s10,320(sp)
   11620:	fe6e                	sd	s11,312(sp)
   11622:	4501                	li	a0,0
   11624:	81010113          	addi	sp,sp,-2032
   11628:	e102                	sd	zero,128(sp)
   1162a:	e502                	sd	zero,136(sp)
   1162c:	e902                	sd	zero,144(sp)
   1162e:	ed02                	sd	zero,152(sp)
   11630:	70a080ef          	jal	ra,19d3a <time>
   11634:	2501                	sext.w	a0,a0
   11636:	6de080ef          	jal	ra,19d14 <srand>
   1163a:	747d                	lui	s0,0xfffff
   1163c:	6785                	lui	a5,0x1
   1163e:	76040413          	addi	s0,s0,1888 # fffffffffffff760 <__BSS_END__+0xfffffffffffd3840>
   11642:	91078793          	addi	a5,a5,-1776 # 910 <exit-0xf7d8>
   11646:	97a2                	add	a5,a5,s0
   11648:	0818                	addi	a4,sp,16
   1164a:	00e78433          	add	s0,a5,a4
   1164e:	02040493          	addi	s1,s0,32
   11652:	6ce080ef          	jal	ra,19d20 <rand>
   11656:	0ff57513          	zext.b	a0,a0
   1165a:	00a41023          	sh	a0,0(s0)
   1165e:	0409                	addi	s0,s0,2
   11660:	fe9419e3          	bne	s0,s1,11652 <_Z15test_fft_customv+0x4c>
   11664:	52010913          	addi	s2,sp,1312
   11668:	20000613          	li	a2,512
   1166c:	4581                	li	a1,0
   1166e:	854a                	mv	a0,s2
   11670:	4d0080ef          	jal	ra,19b40 <memset>
   11674:	72010993          	addi	s3,sp,1824
   11678:	20000613          	li	a2,512
   1167c:	4581                	li	a1,0
   1167e:	854e                	mv	a0,s3
   11680:	4c0080ef          	jal	ra,19b40 <memset>
   11684:	c00027f3          	rdcycle	a5
   11688:	1400                	addi	s0,sp,544
   1168a:	10000613          	li	a2,256
   1168e:	4581                	li	a1,0
   11690:	8522                	mv	a0,s0
   11692:	e43e                	sd	a5,8(sp)
   11694:	4ac080ef          	jal	ra,19b40 <memset>
   11698:	10000613          	li	a2,256
   1169c:	4581                	li	a1,0
   1169e:	1608                	addi	a0,sp,800
   116a0:	f082                	sd	zero,96(sp)
   116a2:	f482                	sd	zero,104(sp)
   116a4:	f882                	sd	zero,112(sp)
   116a6:	fc82                	sd	zero,120(sp)
   116a8:	e882                	sd	zero,80(sp)
   116aa:	cc82                	sw	zero,88(sp)
   116ac:	04011e23          	sh	zero,92(sp)
   116b0:	42010493          	addi	s1,sp,1056
   116b4:	48c080ef          	jal	ra,19b40 <memset>
   116b8:	10000613          	li	a2,256
   116bc:	4581                	li	a1,0
   116be:	8526                	mv	a0,s1
   116c0:	480080ef          	jal	ra,19b40 <memset>
   116c4:	6281b783          	ld	a5,1576(gp) # 2bd48 <__SDATA_BEGIN__>
   116c8:	7afd                	lui	s5,0xfffff
   116ca:	6705                	lui	a4,0x1
   116cc:	720a8a93          	addi	s5,s5,1824 # fffffffffffff720 <__BSS_END__+0xfffffffffffd3800>
   116d0:	91070713          	addi	a4,a4,-1776 # 910 <exit-0xf7d8>
   116d4:	e0be                	sd	a5,64(sp)
   116d6:	000407b7          	lui	a5,0x40
   116da:	0814                	addi	a3,sp,16
   116dc:	07a1                	addi	a5,a5,8 # 40008 <__BSS_END__+0x140e8>
   116de:	9756                	add	a4,a4,s5
   116e0:	00d70ab3          	add	s5,a4,a3
   116e4:	c4be                	sw	a5,72(sp)
   116e6:	4789                	li	a5,2
   116e8:	04f11623          	sh	a5,76(sp)
   116ec:	88d6                	mv	a7,s5
   116ee:	4801                	li	a6,0
   116f0:	4681                	li	a3,0
   116f2:	4e05                	li	t3,1
   116f4:	431d                	li	t1,7
   116f6:	0008d503          	lhu	a0,0(a7)
   116fa:	010e15bb          	sllw	a1,t3,a6
   116fe:	4781                	li	a5,0
   11700:	4701                	li	a4,0
   11702:	a019                	j	11708 <_Z15test_fft_customv+0x102>
   11704:	90065683          	lhu	a3,-1792(a2)
   11708:	6e85                	lui	t4,0x1
   1170a:	9fad                	addw	a5,a5,a1
   1170c:	2705                	addiw	a4,a4,1
   1170e:	0786                	slli	a5,a5,0x1
   11710:	910e8613          	addi	a2,t4,-1776 # 910 <exit-0xf7d8>
   11714:	1742                	slli	a4,a4,0x30
   11716:	963e                	add	a2,a2,a5
   11718:	9341                	srli	a4,a4,0x30
   1171a:	081c                	addi	a5,sp,16
   1171c:	97b2                	add	a5,a5,a2
   1171e:	8ea9                	xor	a3,a3,a0
   11720:	00171613          	slli	a2,a4,0x1
   11724:	910e8e93          	addi	t4,t4,-1776
   11728:	9eb2                	add	t4,t4,a2
   1172a:	90d79023          	sh	a3,-1792(a5)
   1172e:	0810                	addi	a2,sp,16
   11730:	9676                	add	a2,a2,t4
   11732:	0007079b          	sext.w	a5,a4
   11736:	fcb747e3          	blt	a4,a1,11704 <_Z15test_fft_customv+0xfe>
   1173a:	2805                	addiw	a6,a6,1
   1173c:	0889                	addi	a7,a7,2
   1173e:	00680563          	beq	a6,t1,11748 <_Z15test_fft_customv+0x142>
   11742:	22015683          	lhu	a3,544(sp)
   11746:	bf45                	j	116f6 <_Z15test_fft_customv+0xf0>
   11748:	7b7d                	lui	s6,0xfffff
   1174a:	6a05                	lui	s4,0x1
   1174c:	760b0613          	addi	a2,s6,1888 # fffffffffffff760 <__BSS_END__+0xfffffffffffd3840>
   11750:	910a0793          	addi	a5,s4,-1776 # 910 <exit-0xf7d8>
   11754:	0818                	addi	a4,sp,16
   11756:	97b2                	add	a5,a5,a2
   11758:	750b0593          	addi	a1,s6,1872
   1175c:	00e78633          	add	a2,a5,a4
   11760:	910a0793          	addi	a5,s4,-1776
   11764:	97ae                	add	a5,a5,a1
   11766:	740b0513          	addi	a0,s6,1856
   1176a:	00e785b3          	add	a1,a5,a4
   1176e:	910a0793          	addi	a5,s4,-1776
   11772:	97aa                	add	a5,a5,a0
   11774:	00e78533          	add	a0,a5,a4
   11778:	4691                	li	a3,4
   1177a:	ae5fe0ef          	jal	ra,1025e <_ZL5radixPtS_PKtj>
   1177e:	730b0b13          	addi	s6,s6,1840
   11782:	910a0793          	addi	a5,s4,-1776
   11786:	97da                	add	a5,a5,s6
   11788:	0818                	addi	a4,sp,16
   1178a:	00e78bb3          	add	s7,a5,a4
   1178e:	00ea8c93          	addi	s9,s5,14
   11792:	8c5e                	mv	s8,s7
   11794:	000adb03          	lhu	s6,0(s5)
   11798:	0c09                	addi	s8,s8,2
   1179a:	0a89                	addi	s5,s5,2
   1179c:	855a                	mv	a0,s6
   1179e:	3da020ef          	jal	ra,13b78 <_Z9gf_squaret>
   117a2:	00ab4b33          	xor	s6,s6,a0
   117a6:	ff6c1f23          	sh	s6,-2(s8)
   117aa:	ff9a95e3          	bne	s5,s9,11794 <_Z15test_fft_customv+0x18e>
   117ae:	6705                	lui	a4,0x1
   117b0:	7b7d                	lui	s6,0xfffff
   117b2:	730b0693          	addi	a3,s6,1840 # fffffffffffff730 <__BSS_END__+0xfffffffffffd3810>
   117b6:	91070793          	addi	a5,a4,-1776 # 910 <exit-0xf7d8>
   117ba:	97b6                	add	a5,a5,a3
   117bc:	0814                	addi	a3,sp,16
   117be:	96be                	add	a3,a3,a5
   117c0:	740b0593          	addi	a1,s6,1856
   117c4:	91070793          	addi	a5,a4,-1776
   117c8:	97ae                	add	a5,a5,a1
   117ca:	0818                	addi	a4,sp,16
   117cc:	00e785b3          	add	a1,a5,a4
   117d0:	4621                	li	a2,8
   117d2:	1608                	addi	a0,sp,800
   117d4:	d12ff0ef          	jal	ra,10ce6 <_ZL7fft_recPtS_mhjPKt.constprop.1>
   117d8:	08000613          	li	a2,128
   117dc:	4581                	li	a1,0
   117de:	1108                	addi	a0,sp,160
   117e0:	e802                	sd	zero,16(sp)
   117e2:	ec02                	sd	zero,24(sp)
   117e4:	f002                	sd	zero,32(sp)
   117e6:	d402                	sw	zero,40(sp)
   117e8:	f802                	sd	zero,48(sp)
   117ea:	dc02                	sw	zero,56(sp)
   117ec:	354080ef          	jal	ra,19b40 <memset>
   117f0:	08000613          	li	a2,128
   117f4:	4581                	li	a1,0
   117f6:	1208                	addi	a0,sp,288
   117f8:	348080ef          	jal	ra,19b40 <memset>
   117fc:	1a010a93          	addi	s5,sp,416
   11800:	08000613          	li	a2,128
   11804:	4581                	li	a1,0
   11806:	8556                	mv	a0,s5
   11808:	338080ef          	jal	ra,19b40 <memset>
   1180c:	05c15d03          	lhu	s10,92(sp)
   11810:	4785                	li	a5,1
   11812:	02fd0c63          	beq	s10,a5,1184a <_Z15test_fft_customv+0x244>
   11816:	6785                	lui	a5,0x1
   11818:	750b0b13          	addi	s6,s6,1872
   1181c:	91078793          	addi	a5,a5,-1776 # 910 <exit-0xf7d8>
   11820:	97da                	add	a5,a5,s6
   11822:	0818                	addi	a4,sp,16
   11824:	00e78b33          	add	s6,a5,a4
   11828:	00eb0c93          	addi	s9,s6,14
   1182c:	4c05                	li	s8,1
   1182e:	85ea                	mv	a1,s10
   11830:	8562                	mv	a0,s8
   11832:	2f4020ef          	jal	ra,13b26 <_Z6gf_multt>
   11836:	002b5583          	lhu	a1,2(s6)
   1183a:	8c2a                	mv	s8,a0
   1183c:	0b09                	addi	s6,s6,2
   1183e:	2e8020ef          	jal	ra,13b26 <_Z6gf_multt>
   11842:	00ab1023          	sh	a0,0(s6)
   11846:	ff6c94e3          	bne	s9,s6,1182e <_Z15test_fft_customv+0x228>
   1184a:	07c15603          	lhu	a2,124(sp)
   1184e:	07e15803          	lhu	a6,126(sp)
   11852:	07815583          	lhu	a1,120(sp)
   11856:	07615683          	lhu	a3,118(sp)
   1185a:	07a15883          	lhu	a7,122(sp)
   1185e:	07415703          	lhu	a4,116(sp)
   11862:	8db1                	xor	a1,a1,a2
   11864:	07215503          	lhu	a0,114(sp)
   11868:	00d846b3          	xor	a3,a6,a3
   1186c:	00d8c6b3          	xor	a3,a7,a3
   11870:	77fd                	lui	a5,0xfffff
   11872:	6e85                	lui	t4,0x1
   11874:	8f2d                	xor	a4,a4,a1
   11876:	8f35                	xor	a4,a4,a3
   11878:	70078c13          	addi	s8,a5,1792 # fffffffffffff700 <__BSS_END__+0xfffffffffffd37e0>
   1187c:	01064333          	xor	t1,a2,a6
   11880:	07015e03          	lhu	t3,112(sp)
   11884:	01164633          	xor	a2,a2,a7
   11888:	910e8893          	addi	a7,t4,-1776 # 910 <exit-0xf7d8>
   1188c:	8d39                	xor	a0,a0,a4
   1188e:	01010f13          	addi	t5,sp,16
   11892:	98e2                	add	a7,a7,s8
   11894:	71078793          	addi	a5,a5,1808
   11898:	00e11923          	sh	a4,18(sp)
   1189c:	910e8713          	addi	a4,t4,-1776
   118a0:	01e88c33          	add	s8,a7,t5
   118a4:	973e                	add	a4,a4,a5
   118a6:	01c11823          	sh	t3,16(sp)
   118aa:	00b11a23          	sh	a1,20(sp)
   118ae:	00611b23          	sh	t1,22(sp)
   118b2:	00d11d23          	sh	a3,26(sp)
   118b6:	00c11e23          	sh	a2,28(sp)
   118ba:	01011f23          	sh	a6,30(sp)
   118be:	00a11c23          	sh	a0,24(sp)
   118c2:	01e70a33          	add	s4,a4,t5
   118c6:	00cb8d93          	addi	s11,s7,12
   118ca:	8ce2                	mv	s9,s8
   118cc:	000bdb03          	lhu	s6,0(s7)
   118d0:	856a                	mv	a0,s10
   118d2:	32a020ef          	jal	ra,13bfc <_Z10gf_inverset>
   118d6:	85aa                	mv	a1,a0
   118d8:	855a                	mv	a0,s6
   118da:	24c020ef          	jal	ra,13b26 <_Z6gf_multt>
   118de:	00ac9023          	sh	a0,0(s9)
   118e2:	8b2a                	mv	s6,a0
   118e4:	294020ef          	jal	ra,13b78 <_Z9gf_squaret>
   118e8:	00ab4b33          	xor	s6,s6,a0
   118ec:	016a1023          	sh	s6,0(s4)
   118f0:	0b89                	addi	s7,s7,2
   118f2:	0c89                	addi	s9,s9,2
   118f4:	0a09                	addi	s4,s4,2
   118f6:	fd7d9be3          	bne	s11,s7,118cc <_Z15test_fft_customv+0x2c6>
   118fa:	6785                	lui	a5,0x1
   118fc:	7b7d                	lui	s6,0xfffff
   118fe:	91078793          	addi	a5,a5,-1776 # 910 <exit-0xf7d8>
   11902:	97da                	add	a5,a5,s6
   11904:	0818                	addi	a4,sp,16
   11906:	4801                	li	a6,0
   11908:	4681                	li	a3,0
   1190a:	4305                	li	t1,1
   1190c:	4899                	li	a7,6
   1190e:	00e78e33          	add	t3,a5,a4
   11912:	000c5503          	lhu	a0,0(s8)
   11916:	010315bb          	sllw	a1,t1,a6
   1191a:	4781                	li	a5,0
   1191c:	4701                	li	a4,0
   1191e:	a019                	j	11924 <_Z15test_fft_customv+0x31e>
   11920:	7806d683          	lhu	a3,1920(a3)
   11924:	6e85                	lui	t4,0x1
   11926:	9fad                	addw	a5,a5,a1
   11928:	2705                	addiw	a4,a4,1
   1192a:	0786                	slli	a5,a5,0x1
   1192c:	910e8613          	addi	a2,t4,-1776 # 910 <exit-0xf7d8>
   11930:	1742                	slli	a4,a4,0x30
   11932:	963e                	add	a2,a2,a5
   11934:	9341                	srli	a4,a4,0x30
   11936:	081c                	addi	a5,sp,16
   11938:	97b2                	add	a5,a5,a2
   1193a:	910e8e93          	addi	t4,t4,-1776
   1193e:	00a6c633          	xor	a2,a3,a0
   11942:	00171693          	slli	a3,a4,0x1
   11946:	97da                	add	a5,a5,s6
   11948:	9eb6                	add	t4,t4,a3
   1194a:	0814                	addi	a3,sp,16
   1194c:	96f6                	add	a3,a3,t4
   1194e:	78c79023          	sh	a2,1920(a5)
   11952:	96da                	add	a3,a3,s6
   11954:	0007079b          	sext.w	a5,a4
   11958:	fcb744e3          	blt	a4,a1,11920 <_Z15test_fft_customv+0x31a>
   1195c:	2805                	addiw	a6,a6,1
   1195e:	0c09                	addi	s8,s8,2
   11960:	01180563          	beq	a6,a7,1196a <_Z15test_fft_customv+0x364>
   11964:	780e5683          	lhu	a3,1920(t3)
   11968:	b76d                	j	11912 <_Z15test_fft_customv+0x30c>
   1196a:	6a05                	lui	s4,0x1
   1196c:	710b0b93          	addi	s7,s6,1808 # fffffffffffff710 <__BSS_END__+0xfffffffffffd37f0>
   11970:	910a0793          	addi	a5,s4,-1776 # 910 <exit-0xf7d8>
   11974:	0818                	addi	a4,sp,16
   11976:	97de                	add	a5,a5,s7
   11978:	00e78bb3          	add	s7,a5,a4
   1197c:	6f0b0593          	addi	a1,s6,1776
   11980:	910a0793          	addi	a5,s4,-1776
   11984:	97ae                	add	a5,a5,a1
   11986:	00e785b3          	add	a1,a5,a4
   1198a:	86de                	mv	a3,s7
   1198c:	4611                	li	a2,4
   1198e:	1208                	addi	a0,sp,288
   11990:	dfbfe0ef          	jal	ra,1078a <_ZL7fft_recPtS_mhjPKt.constprop.2>
   11994:	6f8b0593          	addi	a1,s6,1784
   11998:	910a0793          	addi	a5,s4,-1776
   1199c:	97ae                	add	a5,a5,a1
   1199e:	0818                	addi	a4,sp,16
   119a0:	00e785b3          	add	a1,a5,a4
   119a4:	86de                	mv	a3,s7
   119a6:	4611                	li	a2,4
   119a8:	8556                	mv	a0,s5
   119aa:	de1fe0ef          	jal	ra,1078a <_ZL7fft_recPtS_mhjPKt.constprop.2>
   119ae:	87d6                	mv	a5,s5
   119b0:	4a010713          	addi	a4,sp,1184
   119b4:	6388                	ld	a0,0(a5)
   119b6:	678c                	ld	a1,8(a5)
   119b8:	6b90                	ld	a2,16(a5)
   119ba:	6f94                	ld	a3,24(a5)
   119bc:	e308                	sd	a0,0(a4)
   119be:	e70c                	sd	a1,8(a4)
   119c0:	eb10                	sd	a2,16(a4)
   119c2:	ef14                	sd	a3,24(a4)
   119c4:	02078793          	addi	a5,a5,32
   119c8:	02070713          	addi	a4,a4,32
   119cc:	fe8794e3          	bne	a5,s0,119b4 <_Z15test_fft_customv+0x3ae>
   119d0:	12015703          	lhu	a4,288(sp)
   119d4:	4a015783          	lhu	a5,1184(sp)
   119d8:	6685                	lui	a3,0x1
   119da:	7c7d                	lui	s8,0xfffff
   119dc:	91068693          	addi	a3,a3,-1776 # 910 <exit-0xf7d8>
   119e0:	96e2                	add	a3,a3,s8
   119e2:	0810                	addi	a2,sp,16
   119e4:	00c68c33          	add	s8,a3,a2
   119e8:	8fb9                	xor	a5,a5,a4
   119ea:	42e11023          	sh	a4,1056(sp)
   119ee:	4af11023          	sh	a5,1184(sp)
   119f2:	12210b93          	addi	s7,sp,290
   119f6:	782c0c13          	addi	s8,s8,1922 # fffffffffffff782 <__BSS_END__+0xfffffffffffd3862>
   119fa:	1a210c93          	addi	s9,sp,418
   119fe:	4a210b13          	addi	s6,sp,1186
   11a02:	000cd583          	lhu	a1,0(s9)
   11a06:	000c5503          	lhu	a0,0(s8)
   11a0a:	000bd403          	lhu	s0,0(s7)
   11a0e:	0b89                	addi	s7,s7,2
   11a10:	116020ef          	jal	ra,13b26 <_Z6gf_multt>
   11a14:	000b5783          	lhu	a5,0(s6)
   11a18:	8d21                	xor	a0,a0,s0
   11a1a:	1542                	slli	a0,a0,0x30
   11a1c:	9141                	srli	a0,a0,0x30
   11a1e:	8fa9                	xor	a5,a5,a0
   11a20:	f8ab1023          	sh	a0,-128(s6)
   11a24:	00fb1023          	sh	a5,0(s6)
   11a28:	0c09                	addi	s8,s8,2
   11a2a:	0c89                	addi	s9,s9,2
   11a2c:	0b09                	addi	s6,s6,2
   11a2e:	fd7a9ae3          	bne	s5,s7,11a02 <_Z15test_fft_customv+0x3fc>
   11a32:	87a6                	mv	a5,s1
   11a34:	62010713          	addi	a4,sp,1568
   11a38:	6388                	ld	a0,0(a5)
   11a3a:	678c                	ld	a1,8(a5)
   11a3c:	6b90                	ld	a2,16(a5)
   11a3e:	6f94                	ld	a3,24(a5)
   11a40:	e308                	sd	a0,0(a4)
   11a42:	e70c                	sd	a1,8(a4)
   11a44:	eb10                	sd	a2,16(a4)
   11a46:	ef14                	sd	a3,24(a4)
   11a48:	02078793          	addi	a5,a5,32
   11a4c:	02070713          	addi	a4,a4,32
   11a50:	ff2794e3          	bne	a5,s2,11a38 <_Z15test_fft_customv+0x432>
   11a54:	32015783          	lhu	a5,800(sp)
   11a58:	62015703          	lhu	a4,1568(sp)
   11a5c:	32210b13          	addi	s6,sp,802
   11a60:	52f11023          	sh	a5,1312(sp)
   11a64:	8fb9                	xor	a5,a5,a4
   11a66:	62f11023          	sh	a5,1568(sp)
   11a6a:	22210c13          	addi	s8,sp,546
   11a6e:	42210b93          	addi	s7,sp,1058
   11a72:	62210a93          	addi	s5,sp,1570
   11a76:	000bd583          	lhu	a1,0(s7)
   11a7a:	000c5503          	lhu	a0,0(s8)
   11a7e:	000b5403          	lhu	s0,0(s6)
   11a82:	0b09                	addi	s6,s6,2
   11a84:	0a2020ef          	jal	ra,13b26 <_Z6gf_multt>
   11a88:	000ad783          	lhu	a5,0(s5)
   11a8c:	8d21                	xor	a0,a0,s0
   11a8e:	1542                	slli	a0,a0,0x30
   11a90:	9141                	srli	a0,a0,0x30
   11a92:	8fa9                	xor	a5,a5,a0
   11a94:	f0aa9023          	sh	a0,-256(s5)
   11a98:	00fa9023          	sh	a5,0(s5)
   11a9c:	0c09                	addi	s8,s8,2
   11a9e:	0b89                	addi	s7,s7,2
   11aa0:	0a89                	addi	s5,s5,2
   11aa2:	fd649ae3          	bne	s1,s6,11a76 <_Z15test_fft_customv+0x470>
   11aa6:	c00025f3          	rdcycle	a1
   11aaa:	67a2                	ld	a5,8(sp)
   11aac:	00026537          	lui	a0,0x26
   11ab0:	21050513          	addi	a0,a0,528 # 26210 <__clzdi2+0x6e>
   11ab4:	8d9d                	sub	a1,a1,a5
   11ab6:	156080ef          	jal	ra,19c0c <printf>
   11aba:	c0002473          	rdcycle	s0
   11abe:	75fd                	lui	a1,0xfffff
   11ac0:	6785                	lui	a5,0x1
   11ac2:	76058593          	addi	a1,a1,1888 # fffffffffffff760 <__BSS_END__+0xfffffffffffd3840>
   11ac6:	91078793          	addi	a5,a5,-1776 # 910 <exit-0xf7d8>
   11aca:	97ae                	add	a5,a5,a1
   11acc:	0818                	addi	a4,sp,16
   11ace:	4641                	li	a2,16
   11ad0:	00e785b3          	add	a1,a5,a4
   11ad4:	854e                	mv	a0,s3
   11ad6:	e14ff0ef          	jal	ra,110ea <_Z10fft_customPtPKtm>
   11ada:	c00025f3          	rdcycle	a1
   11ade:	00026537          	lui	a0,0x26
   11ae2:	8d81                	sub	a1,a1,s0
   11ae4:	23850513          	addi	a0,a0,568 # 26238 <__clzdi2+0x96>
   11ae8:	124080ef          	jal	ra,19c0c <printf>
   11aec:	87ce                	mv	a5,s3
   11aee:	a019                	j	11af4 <_Z15test_fft_customv+0x4ee>
   11af0:	05298463          	beq	s3,s2,11b38 <_Z15test_fft_customv+0x532>
   11af4:	00095683          	lhu	a3,0(s2)
   11af8:	0007d703          	lhu	a4,0(a5)
   11afc:	0909                	addi	s2,s2,2
   11afe:	0789                	addi	a5,a5,2
   11b00:	fee688e3          	beq	a3,a4,11af0 <_Z15test_fft_customv+0x4ea>
   11b04:	4581                	li	a1,0
   11b06:	4401                	li	s0,0
   11b08:	00026537          	lui	a0,0x26
   11b0c:	26050513          	addi	a0,a0,608 # 26260 <__clzdi2+0xbe>
   11b10:	0fc080ef          	jal	ra,19c0c <printf>
   11b14:	7f010113          	addi	sp,sp,2032
   11b18:	60fa                	ld	ra,408(sp)
   11b1a:	8522                	mv	a0,s0
   11b1c:	64ba                	ld	s1,392(sp)
   11b1e:	645a                	ld	s0,400(sp)
   11b20:	691a                	ld	s2,384(sp)
   11b22:	79f6                	ld	s3,376(sp)
   11b24:	7a56                	ld	s4,368(sp)
   11b26:	7ab6                	ld	s5,360(sp)
   11b28:	7b16                	ld	s6,352(sp)
   11b2a:	6bf6                	ld	s7,344(sp)
   11b2c:	6c56                	ld	s8,336(sp)
   11b2e:	6cb6                	ld	s9,328(sp)
   11b30:	6d16                	ld	s10,320(sp)
   11b32:	7df2                	ld	s11,312(sp)
   11b34:	611d                	addi	sp,sp,416
   11b36:	8082                	ret
   11b38:	4585                	li	a1,1
   11b3a:	4405                	li	s0,1
   11b3c:	b7f1                	j	11b08 <_Z15test_fft_customv+0x502>

0000000000011b3e <_Z35test_fft_retrieve_error_poly_customv>:
   11b3e:	be010113          	addi	sp,sp,-1056
   11b42:	20000613          	li	a2,512
   11b46:	4581                	li	a1,0
   11b48:	0408                	addi	a0,sp,512
   11b4a:	40113c23          	sd	ra,1048(sp)
   11b4e:	40813823          	sd	s0,1040(sp)
   11b52:	40913423          	sd	s1,1032(sp)
   11b56:	7eb070ef          	jal	ra,19b40 <memset>
   11b5a:	4501                	li	a0,0
   11b5c:	1de080ef          	jal	ra,19d3a <time>
   11b60:	2501                	sext.w	a0,a0
   11b62:	1b2080ef          	jal	ra,19d14 <srand>
   11b66:	0400                	addi	s0,sp,512
   11b68:	40010493          	addi	s1,sp,1024
   11b6c:	1b4080ef          	jal	ra,19d20 <rand>
   11b70:	0ff57513          	zext.b	a0,a0
   11b74:	00a41023          	sh	a0,0(s0)
   11b78:	0409                	addi	s0,s0,2
   11b7a:	fe9419e3          	bne	s0,s1,11b6c <_Z35test_fft_retrieve_error_poly_customv+0x2e>
   11b7e:	0f800613          	li	a2,248
   11b82:	4581                	li	a1,0
   11b84:	0028                	addi	a0,sp,8
   11b86:	e002                	sd	zero,0(sp)
   11b88:	7b9070ef          	jal	ra,19b40 <memset>
   11b8c:	0f800613          	li	a2,248
   11b90:	4581                	li	a1,0
   11b92:	0228                	addi	a0,sp,264
   11b94:	e202                	sd	zero,256(sp)
   11b96:	7ab070ef          	jal	ra,19b40 <memset>
   11b9a:	c0002473          	rdcycle	s0
   11b9e:	040c                	addi	a1,sp,512
   11ba0:	850a                	mv	a0,sp
   11ba2:	ee2ff0ef          	jal	ra,11284 <_Z23fft_retrieve_error_polyPhPKt>
   11ba6:	c00025f3          	rdcycle	a1
   11baa:	00026537          	lui	a0,0x26
   11bae:	8d81                	sub	a1,a1,s0
   11bb0:	21050513          	addi	a0,a0,528 # 26210 <__clzdi2+0x6e>
   11bb4:	058080ef          	jal	ra,19c0c <printf>
   11bb8:	c00024f3          	rdcycle	s1
   11bbc:	0200                	addi	s0,sp,256
   11bbe:	040c                	addi	a1,sp,512
   11bc0:	8522                	mv	a0,s0
   11bc2:	81dff0ef          	jal	ra,113de <_Z30fft_retrieve_error_poly_customPhPKt>
   11bc6:	c00025f3          	rdcycle	a1
   11bca:	00026537          	lui	a0,0x26
   11bce:	8d85                	sub	a1,a1,s1
   11bd0:	23850513          	addi	a0,a0,568 # 26238 <__clzdi2+0x96>
   11bd4:	038080ef          	jal	ra,19c0c <printf>
   11bd8:	878a                	mv	a5,sp
   11bda:	8722                	mv	a4,s0
   11bdc:	a019                	j	11be2 <_Z35test_fft_retrieve_error_poly_customv+0xa4>
   11bde:	02f40c63          	beq	s0,a5,11c16 <_Z35test_fft_retrieve_error_poly_customv+0xd8>
   11be2:	0007c603          	lbu	a2,0(a5)
   11be6:	00074683          	lbu	a3,0(a4)
   11bea:	0785                	addi	a5,a5,1
   11bec:	0705                	addi	a4,a4,1
   11bee:	fed608e3          	beq	a2,a3,11bde <_Z35test_fft_retrieve_error_poly_customv+0xa0>
   11bf2:	4581                	li	a1,0
   11bf4:	4401                	li	s0,0
   11bf6:	00026537          	lui	a0,0x26
   11bfa:	28850513          	addi	a0,a0,648 # 26288 <__clzdi2+0xe6>
   11bfe:	00e080ef          	jal	ra,19c0c <printf>
   11c02:	41813083          	ld	ra,1048(sp)
   11c06:	8522                	mv	a0,s0
   11c08:	41013403          	ld	s0,1040(sp)
   11c0c:	40813483          	ld	s1,1032(sp)
   11c10:	42010113          	addi	sp,sp,1056
   11c14:	8082                	ret
   11c16:	4585                	li	a1,1
   11c18:	4405                	li	s0,1
   11c1a:	bff1                	j	11bf6 <_Z35test_fft_retrieve_error_poly_customv+0xb8>

0000000000011c1c <_ZL24KeccakF1600_StatePermutePm>:
   11c1c:	611c                	ld	a5,0(a0)
   11c1e:	714d                	addi	sp,sp,-336
   11c20:	06053e03          	ld	t3,96(a0)
   11c24:	fd3e                	sd	a5,184(sp)
   11c26:	651c                	ld	a5,8(a0)
   11c28:	e6a2                	sd	s0,328(sp)
   11c2a:	e2a6                	sd	s1,320(sp)
   11c2c:	f53e                	sd	a5,168(sp)
   11c2e:	691c                	ld	a5,16(a0)
   11c30:	7900                	ld	s0,48(a0)
   11c32:	6524                	ld	s1,72(a0)
   11c34:	f93e                	sd	a5,176(sp)
   11c36:	711c                	ld	a5,32(a0)
   11c38:	fe4a                	sd	s2,312(sp)
   11c3a:	fa4e                	sd	s3,304(sp)
   11c3c:	e0be                	sd	a5,64(sp)
   11c3e:	751c                	ld	a5,40(a0)
   11c40:	01853983          	ld	s3,24(a0)
   11c44:	f652                	sd	s4,296(sp)
   11c46:	e4be                	sd	a5,72(sp)
   11c48:	613c                	ld	a5,64(a0)
   11c4a:	f256                	sd	s5,288(sp)
   11c4c:	ee5a                	sd	s6,280(sp)
   11c4e:	e8be                	sd	a5,80(sp)
   11c50:	6d3c                	ld	a5,88(a0)
   11c52:	fdea                	sd	s10,248(sp)
   11c54:	f9ee                	sd	s11,240(sp)
   11c56:	05053d03          	ld	s10,80(a0)
   11c5a:	03853d83          	ld	s11,56(a0)
   11c5e:	ecbe                	sd	a5,88(sp)
   11c60:	ea5e                	sd	s7,272(sp)
   11c62:	e662                	sd	s8,264(sp)
   11c64:	e266                	sd	s9,256(sp)
   11c66:	06853283          	ld	t0,104(a0)
   11c6a:	793c                	ld	a5,112(a0)
   11c6c:	00026737          	lui	a4,0x26
   11c70:	5c870713          	addi	a4,a4,1480 # 265c8 <_ZL22KeccakF_RoundConstants>
   11c74:	f0be                	sd	a5,96(sp)
   11c76:	7d3c                	ld	a5,120(a0)
   11c78:	01070693          	addi	a3,a4,16
   11c7c:	0c070713          	addi	a4,a4,192
   11c80:	e03e                	sd	a5,0(sp)
   11c82:	755c                	ld	a5,168(a0)
   11c84:	0b053903          	ld	s2,176(a0)
   11c88:	08053f03          	ld	t5,128(a0)
   11c8c:	f4be                	sd	a5,104(sp)
   11c8e:	7d5c                	ld	a5,184(a0)
   11c90:	694c                	ld	a1,144(a0)
   11c92:	6d50                	ld	a2,152(a0)
   11c94:	0a053a83          	ld	s5,160(a0)
   11c98:	f83e                	sd	a5,48(sp)
   11c9a:	f1ba                	sd	a4,224(sp)
   11c9c:	617c                	ld	a5,192(a0)
   11c9e:	6721                	lui	a4,0x8
   11ca0:	08270713          	addi	a4,a4,130 # 8082 <exit-0x8066>
   11ca4:	e1ba                	sd	a4,192(sp)
   11ca6:	4705                	li	a4,1
   11ca8:	08853f83          	ld	t6,136(a0)
   11cac:	e13a                	sd	a4,128(sp)
   11cae:	8a4a                	mv	s4,s2
   11cb0:	f5aa                	sd	a0,232(sp)
   11cb2:	6706                	ld	a4,64(sp)
   11cb4:	e5b6                	sd	a3,200(sp)
   11cb6:	88ea                	mv	a7,s10
   11cb8:	8372                	mv	t1,t3
   11cba:	8efa                	mv	t4,t5
   11cbc:	83ae                	mv	t2,a1
   11cbe:	8856                	mv	a6,s5
   11cc0:	8932                	mv	s2,a2
   11cc2:	8b3e                	mv	s6,a5
   11cc4:	8516                	mv	a0,t0
   11cc6:	a809                	j	11cd8 <_ZL24KeccakF1600_StatePermutePm+0xbc>
   11cc8:	6398                	ld	a4,0(a5)
   11cca:	07c1                	addi	a5,a5,16
   11ccc:	e13a                	sd	a4,128(sp)
   11cce:	ff87b703          	ld	a4,-8(a5)
   11cd2:	e5be                	sd	a5,200(sp)
   11cd4:	e1ba                	sd	a4,192(sp)
   11cd6:	875e                	mv	a4,s7
   11cd8:	77ca                	ld	a5,176(sp)
   11cda:	76ea                	ld	a3,184(sp)
   11cdc:	6626                	ld	a2,72(sp)
   11cde:	75aa                	ld	a1,168(sp)
   11ce0:	7286                	ld	t0,96(sp)
   11ce2:	6e46                	ld	t3,80(sp)
   11ce4:	6ce6                	ld	s9,88(sp)
   11ce6:	01b7cab3          	xor	s5,a5,s11
   11cea:	00974f33          	xor	t5,a4,s1
   11cee:	6782                	ld	a5,0(sp)
   11cf0:	7726                	ld	a4,104(sp)
   11cf2:	00c6cc33          	xor	s8,a3,a2
   11cf6:	0085cbb3          	xor	s7,a1,s0
   11cfa:	76c2                	ld	a3,48(sp)
   11cfc:	01c9ce33          	xor	t3,s3,t3
   11d00:	006acab3          	xor	s5,s5,t1
   11d04:	005f4f33          	xor	t5,t5,t0
   11d08:	011c4c33          	xor	s8,s8,a7
   11d0c:	019bcbb3          	xor	s7,s7,s9
   11d10:	01facab3          	xor	s5,s5,t6
   11d14:	00ae4e33          	xor	t3,t3,a0
   11d18:	012f4f33          	xor	t5,t5,s2
   11d1c:	014acab3          	xor	s5,s5,s4
   11d20:	016f4f33          	xor	t5,t5,s6
   11d24:	00fc4c33          	xor	s8,s8,a5
   11d28:	01dbcbb3          	xor	s7,s7,t4
   11d2c:	007e4e33          	xor	t3,t3,t2
   11d30:	010c4c33          	xor	s8,s8,a6
   11d34:	00ebcbb3          	xor	s7,s7,a4
   11d38:	00de4e33          	xor	t3,t3,a3
   11d3c:	03ff5613          	srli	a2,t5,0x3f
   11d40:	03fad693          	srli	a3,s5,0x3f
   11d44:	001a9793          	slli	a5,s5,0x1
   11d48:	001f1713          	slli	a4,t5,0x1
   11d4c:	001b9d13          	slli	s10,s7,0x1
   11d50:	001e1c93          	slli	s9,t3,0x1
   11d54:	03fc5293          	srli	t0,s8,0x3f
   11d58:	03fbd593          	srli	a1,s7,0x3f
   11d5c:	8fd5                	or	a5,a5,a3
   11d5e:	8f51                	or	a4,a4,a2
   11d60:	03fe5693          	srli	a3,t3,0x3f
   11d64:	001c1613          	slli	a2,s8,0x1
   11d68:	0187c7b3          	xor	a5,a5,s8
   11d6c:	01574733          	xor	a4,a4,s5
   11d70:	00bd65b3          	or	a1,s10,a1
   11d74:	00dce6b3          	or	a3,s9,a3
   11d78:	00566633          	or	a2,a2,t0
   11d7c:	01e5cd33          	xor	s10,a1,t5
   11d80:	01c642b3          	xor	t0,a2,t3
   11d84:	0176c6b3          	xor	a3,a3,s7
   11d88:	007743b3          	xor	t2,a4,t2
   11d8c:	8c3d                	xor	s0,s0,a5
   11d8e:	75aa                	ld	a1,168(sp)
   11d90:	0092ce33          	xor	t3,t0,s1
   11d94:	0146ca33          	xor	s4,a3,s4
   11d98:	01445613          	srli	a2,s0,0x14
   11d9c:	01539f13          	slli	t5,t2,0x15
   11da0:	02b3d493          	srli	s1,t2,0x2b
   11da4:	1432                	slli	s0,s0,0x2c
   11da6:	00c46ab3          	or	s5,s0,a2
   11daa:	01d7ceb3          	xor	t4,a5,t4
   11dae:	01e4e633          	or	a2,s1,t5
   11db2:	03da1b93          	slli	s7,s4,0x3d
   11db6:	003a5493          	srli	s1,s4,0x3
   11dba:	6a26                	ld	s4,72(sp)
   11dbc:	013749b3          	xor	s3,a4,s3
   11dc0:	8dbd                	xor	a1,a1,a5
   11dc2:	0066c333          	xor	t1,a3,t1
   11dc6:	013ed393          	srli	t2,t4,0x13
   11dca:	1eb6                	slli	t4,t4,0x2d
   11dcc:	007ee433          	or	s0,t4,t2
   11dd0:	0249dc13          	srli	s8,s3,0x24
   11dd4:	01535e93          	srli	t4,t1,0x15
   11dd8:	01c99393          	slli	t2,s3,0x1c
   11ddc:	03f5dc93          	srli	s9,a1,0x3f
   11de0:	00159993          	slli	s3,a1,0x1
   11de4:	132e                	slli	t1,t1,0x2b
   11de6:	01d36333          	or	t1,t1,t4
   11dea:	007c6eb3          	or	t4,s8,t2
   11dee:	013ce3b3          	or	t2,s9,s3
   11df2:	014d4c33          	xor	s8,s10,s4
   11df6:	6986                	ld	s3,64(sp)
   11df8:	6a66                	ld	s4,88(sp)
   11dfa:	0122c933          	xor	s2,t0,s2
   11dfe:	e432                	sd	a2,8(sp)
   11e00:	00891593          	slli	a1,s2,0x8
   11e04:	03895913          	srli	s2,s2,0x38
   11e08:	0132ccb3          	xor	s9,t0,s3
   11e0c:	00b96933          	or	s2,s2,a1
   11e10:	79ea                	ld	s3,184(sp)
   11e12:	65a2                	ld	a1,8(sp)
   11e14:	0162cb33          	xor	s6,t0,s6
   11e18:	e876                	sd	t4,16(sp)
   11e1a:	0147ceb3          	xor	t4,a5,s4
   11e1e:	6a02                	ld	s4,0(sp)
   11e20:	01b6c633          	xor	a2,a3,s11
   11e24:	f022                	sd	s0,32(sp)
   11e26:	00eb1f13          	slli	t5,s6,0xe
   11e2a:	014e1413          	slli	s0,t3,0x14
   11e2e:	02ce5d93          	srli	s11,t3,0x2c
   11e32:	032b5b13          	srli	s6,s6,0x32
   11e36:	01eb6b33          	or	s6,s6,t5
   11e3a:	008def33          	or	t5,s11,s0
   11e3e:	011d48b3          	xor	a7,s10,a7
   11e42:	014d4db3          	xor	s11,s10,s4
   11e46:	010d4833          	xor	a6,s10,a6
   11e4a:	ec7a                	sd	t5,24(sp)
   11e4c:	e0d6                	sd	s5,64(sp)
   11e4e:	fffacf13          	not	t5,s5
   11e52:	fff5ca93          	not	s5,a1
   11e56:	013d45b3          	xor	a1,s10,s3
   11e5a:	7d4a                	ld	s10,176(sp)
   11e5c:	7402                	ld	s0,32(sp)
   11e5e:	01f6cfb3          	xor	t6,a3,t6
   11e62:	01a6c6b3          	xor	a3,a3,s10
   11e66:	7d06                	ld	s10,96(sp)
   11e68:	8d39                	xor	a0,a0,a4
   11e6a:	00389e13          	slli	t3,a7,0x3
   11e6e:	009be4b3          	or	s1,s7,s1
   11e72:	03d8d893          	srli	a7,a7,0x3d
   11e76:	01c8e8b3          	or	a7,a7,t3
   11e7a:	f426                	sd	s1,40(sp)
   11e7c:	00661e13          	slli	t3,a2,0x6
   11e80:	fff44a13          	not	s4,s0
   11e84:	03a65493          	srli	s1,a2,0x3a
   11e88:	00ff9413          	slli	s0,t6,0xf
   11e8c:	01951613          	slli	a2,a0,0x19
   11e90:	031fdf93          	srli	t6,t6,0x31
   11e94:	911d                	srli	a0,a0,0x27
   11e96:	8d51                	or	a0,a0,a2
   11e98:	008fe9b3          	or	s3,t6,s0
   11e9c:	01a2c633          	xor	a2,t0,s10
   11ea0:	6fe2                	ld	t6,24(sp)
   11ea2:	7d26                	ld	s10,104(sp)
   11ea4:	01c4e4b3          	or	s1,s1,t3
   11ea8:	7bc2                	ld	s7,48(sp)
   11eaa:	6e46                	ld	t3,80(sp)
   11eac:	01a7c7b3          	xor	a5,a5,s10
   11eb0:	f89e                	sd	t2,112(sp)
   11eb2:	ffffcd13          	not	s10,t6
   11eb6:	fcce                	sd	s3,120(sp)
   11eb8:	ecea                	sd	s10,88(sp)
   11eba:	01774bb3          	xor	s7,a4,s7
   11ebe:	72a2                	ld	t0,40(sp)
   11ec0:	7d46                	ld	s10,112(sp)
   11ec2:	01c74733          	xor	a4,a4,t3
   11ec6:	6e42                	ld	t3,16(sp)
   11ec8:	01281393          	slli	t2,a6,0x12
   11ecc:	02e85813          	srli	a6,a6,0x2e
   11ed0:	00786833          	or	a6,a6,t2
   11ed4:	005a7a33          	and	s4,s4,t0
   11ed8:	fff2c393          	not	t2,t0
   11edc:	f0ca                	sd	s2,96(sp)
   11ede:	fffe4293          	not	t0,t3
   11ee2:	fffd4f93          	not	t6,s10
   11ee6:	fff94e13          	not	t3,s2
   11eea:	01bc9d13          	slli	s10,s9,0x1b
   11eee:	025cd913          	srli	s2,s9,0x25
   11ef2:	01cc5c93          	srli	s9,s8,0x1c
   11ef6:	1c12                	slli	s8,s8,0x24
   11ef8:	f86a                	sd	s10,48(sp)
   11efa:	fc62                	sd	s8,56(sp)
   11efc:	038b9d13          	slli	s10,s7,0x38
   11f00:	008bdc13          	srli	s8,s7,0x8
   11f04:	017ddb93          	srli	s7,s11,0x17
   11f08:	1da6                	slli	s11,s11,0x29
   11f0a:	e06e                	sd	s11,0(sp)
   11f0c:	7dc2                	ld	s11,48(sp)
   11f0e:	e4e6                	sd	s9,72(sp)
   11f10:	016afab3          	and	s5,s5,s6
   11f14:	01b96db3          	or	s11,s2,s11
   11f18:	f86e                	sd	s11,48(sp)
   11f1a:	6926                	ld	s2,72(sp)
   11f1c:	7de2                	ld	s11,56(sp)
   11f1e:	006f7f33          	and	t5,t5,t1
   11f22:	fff34993          	not	s3,t1
   11f26:	012dedb3          	or	s11,s11,s2
   11f2a:	6902                	ld	s2,0(sp)
   11f2c:	006ac333          	xor	t1,s5,t1
   11f30:	e49a                	sd	t1,72(sp)
   11f32:	01796933          	or	s2,s2,s7
   11f36:	6be6                	ld	s7,88(sp)
   11f38:	6322                	ld	t1,8(sp)
   11f3a:	018d6d33          	or	s10,s10,s8
   11f3e:	011a4a33          	xor	s4,s4,a7
   11f42:	7c66                	ld	s8,120(sp)
   11f44:	011bfbb3          	and	s7,s7,a7
   11f48:	fff8c413          	not	s0,a7
   11f4c:	7882                	ld	a7,32(sp)
   11f4e:	0069f9b3          	and	s3,s3,t1
   11f52:	fffb4313          	not	t1,s6
   11f56:	00bf4f33          	xor	t5,t5,a1
   11f5a:	01147433          	and	s0,s0,a7
   11f5e:	e04a                	sd	s2,0(sp)
   11f60:	fffc4893          	not	a7,s8
   11f64:	00b37933          	and	s2,t1,a1
   11f68:	0026dc13          	srli	s8,a3,0x2
   11f6c:	fff5c593          	not	a1,a1
   11f70:	fc2e                	sd	a1,56(sp)
   11f72:	16fa                	slli	a3,a3,0x3e
   11f74:	85e2                	mv	a1,s8
   11f76:	8ecd                	or	a3,a3,a1
   11f78:	658a                	ld	a1,128(sp)
   11f7a:	00ae9c93          	slli	s9,t4,0xa
   11f7e:	036ede93          	srli	t4,t4,0x36
   11f82:	019eeeb3          	or	t4,t4,s9
   11f86:	00279c93          	slli	s9,a5,0x2
   11f8a:	93f9                	srli	a5,a5,0x3e
   11f8c:	0197e7b3          	or	a5,a5,s9
   11f90:	00bf4cb3          	xor	s9,t5,a1
   11f94:	6f06                	ld	t5,64(sp)
   11f96:	01965c13          	srli	s8,a2,0x19
   11f9a:	161e                	slli	a2,a2,0x27
   11f9c:	01866633          	or	a2,a2,s8
   11fa0:	01e9cc33          	xor	s8,s3,t5
   11fa4:	69a2                	ld	s3,8(sp)
   11fa6:	ecde                	sd	s7,88(sp)
   11fa8:	fd66                	sd	s9,184(sp)
   11faa:	6be2                	ld	s7,24(sp)
   11fac:	6ce6                	ld	s9,88(sp)
   11fae:	013949b3          	xor	s3,s2,s3
   11fb2:	6942                	ld	s2,16(sp)
   11fb4:	0172f2b3          	and	t0,t0,s7
   11fb8:	e8d2                	sd	s4,80(sp)
   11fba:	00975b93          	srli	s7,a4,0x9
   11fbe:	012cc933          	xor	s2,s9,s2
   11fc2:	e0e2                	sd	s8,64(sp)
   11fc4:	e44e                	sd	s3,8(sp)
   11fc6:	175e                	slli	a4,a4,0x37
   11fc8:	01776733          	or	a4,a4,s7
   11fcc:	6a42                	ld	s4,16(sp)
   11fce:	e84a                	sd	s2,16(sp)
   11fd0:	6be2                	ld	s7,24(sp)
   11fd2:	0143f3b3          	and	t2,t2,s4
   11fd6:	75e2                	ld	a1,56(sp)
   11fd8:	01744bb3          	xor	s7,s0,s7
   11fdc:	7402                	ld	s0,32(sp)
   11fde:	6cc6                	ld	s9,80(sp)
   11fe0:	009fffb3          	and	t6,t6,s1
   11fe4:	0083c433          	xor	s0,t2,s0
   11fe8:	7386                	ld	t2,96(sp)
   11fea:	6926                	ld	s2,72(sp)
   11fec:	fff54a93          	not	s5,a0
   11ff0:	010e7e33          	and	t3,t3,a6
   11ff4:	fff84313          	not	t1,a6
   11ff8:	010fc833          	xor	a6,t6,a6
   11ffc:	ecc2                	sd	a6,88(sp)
   11ffe:	007afab3          	and	s5,s5,t2
   12002:	01e5f833          	and	a6,a1,t5
   12006:	01994933          	xor	s2,s2,s9
   1200a:	01684cb3          	xor	s9,a6,s6
   1200e:	009acb33          	xor	s6,s5,s1
   12012:	f022                	sd	s0,32(sp)
   12014:	7aea                	ld	s5,184(sp)
   12016:	7422                	ld	s0,40(sp)
   12018:	f45a                	sd	s6,40(sp)
   1201a:	6b42                	ld	s6,16(sp)
   1201c:	ec5e                	sd	s7,24(sp)
   1201e:	79c2                	ld	s3,48(sp)
   12020:	fff4ca13          	not	s4,s1
   12024:	016acb33          	xor	s6,s5,s6
   12028:	6486                	ld	s1,64(sp)
   1202a:	6ae2                	ld	s5,24(sp)
   1202c:	0082cc33          	xor	s8,t0,s0
   12030:	00ae4e33          	xor	t3,t3,a0
   12034:	00aa7a33          	and	s4,s4,a0
   12038:	fffd4413          	not	s0,s10
   1203c:	7546                	ld	a0,112(sp)
   1203e:	6f82                	ld	t6,0(sp)
   12040:	fff9cf13          	not	t5,s3
   12044:	01347433          	and	s0,s0,s3
   12048:	0154c9b3          	xor	s3,s1,s5
   1204c:	6aa2                	ld	s5,8(sp)
   1204e:	7482                	ld	s1,32(sp)
   12050:	00aa4a33          	xor	s4,s4,a0
   12054:	fc6e                	sd	s11,56(sp)
   12056:	00a37333          	and	t1,t1,a0
   1205a:	fffdc593          	not	a1,s11
   1205e:	7566                	ld	a0,120(sp)
   12060:	01bf7f33          	and	t5,t5,s11
   12064:	7dc2                	ld	s11,48(sp)
   12066:	01a8f8b3          	and	a7,a7,s10
   1206a:	009ac4b3          	xor	s1,s5,s1
   1206e:	ffffcf93          	not	t6,t6
   12072:	6ae6                	ld	s5,88(sp)
   12074:	01d8c8b3          	xor	a7,a7,t4
   12078:	fffec293          	not	t0,t4
   1207c:	01d5f5b3          	and	a1,a1,t4
   12080:	00ffffb3          	and	t6,t6,a5
   12084:	fff74e93          	not	t4,a4
   12088:	01b5c5b3          	xor	a1,a1,s11
   1208c:	8c29                	xor	s0,s0,a0
   1208e:	7de2                	ld	s11,56(sp)
   12090:	00cfcfb3          	xor	t6,t6,a2
   12094:	00a2f2b3          	and	t0,t0,a0
   12098:	fff64b93          	not	s7,a2
   1209c:	6502                	ld	a0,0(sp)
   1209e:	00cefeb3          	and	t4,t4,a2
   120a2:	7622                	ld	a2,40(sp)
   120a4:	00734333          	xor	t1,t1,t2
   120a8:	01c94933          	xor	s2,s2,t3
   120ac:	fff6c393          	not	t2,a3
   120b0:	015c4ab3          	xor	s5,s8,s5
   120b4:	01af4f33          	xor	t5,t5,s10
   120b8:	00e3f3b3          	and	t2,t2,a4
   120bc:	014b4b33          	xor	s6,s6,s4
   120c0:	01194933          	xor	s2,s2,a7
   120c4:	019acab3          	xor	s5,s5,s9
   120c8:	01f94933          	xor	s2,s2,t6
   120cc:	01b2c2b3          	xor	t0,t0,s11
   120d0:	00deceb3          	xor	t4,t4,a3
   120d4:	00f3c3b3          	xor	t2,t2,a5
   120d8:	fff7c813          	not	a6,a5
   120dc:	00abfbb3          	and	s7,s7,a0
   120e0:	00c9c9b3          	xor	s3,s3,a2
   120e4:	00bb4b33          	xor	s6,s6,a1
   120e8:	01eacab3          	xor	s5,s5,t5
   120ec:	01db4b33          	xor	s6,s6,t4
   120f0:	007acab3          	xor	s5,s5,t2
   120f4:	00ebcbb3          	xor	s7,s7,a4
   120f8:	00d87833          	and	a6,a6,a3
   120fc:	0064c4b3          	xor	s1,s1,t1
   12100:	03f95693          	srli	a3,s2,0x3f
   12104:	0059c9b3          	xor	s3,s3,t0
   12108:	00191713          	slli	a4,s2,0x1
   1210c:	0179c9b3          	xor	s3,s3,s7
   12110:	00a84833          	xor	a6,a6,a0
   12114:	001a9d93          	slli	s11,s5,0x1
   12118:	001b1d13          	slli	s10,s6,0x1
   1211c:	8ca1                	xor	s1,s1,s0
   1211e:	8f55                	or	a4,a4,a3
   12120:	03fad613          	srli	a2,s5,0x3f
   12124:	03fb5693          	srli	a3,s6,0x3f
   12128:	01674733          	xor	a4,a4,s6
   1212c:	0104c4b3          	xor	s1,s1,a6
   12130:	03f9db13          	srli	s6,s3,0x3f
   12134:	00199793          	slli	a5,s3,0x1
   12138:	00cde633          	or	a2,s11,a2
   1213c:	00dd66b3          	or	a3,s10,a3
   12140:	01264633          	xor	a2,a2,s2
   12144:	8ea5                	xor	a3,a3,s1
   12146:	6962                	ld	s2,24(sp)
   12148:	6d22                	ld	s10,8(sp)
   1214a:	00149513          	slli	a0,s1,0x1
   1214e:	0167e7b3          	or	a5,a5,s6
   12152:	03f4db13          	srli	s6,s1,0x3f
   12156:	64c6                	ld	s1,80(sp)
   12158:	01656533          	or	a0,a0,s6
   1215c:	01354533          	xor	a0,a0,s3
   12160:	0157c7b3          	xor	a5,a5,s5
   12164:	00e94b33          	xor	s6,s2,a4
   12168:	00cd4ab3          	xor	s5,s10,a2
   1216c:	00a4c933          	xor	s2,s1,a0
   12170:	6986                	ld	s3,64(sp)
   12172:	64c2                	ld	s1,16(sp)
   12174:	7d22                	ld	s10,40(sp)
   12176:	6da6                	ld	s11,72(sp)
   12178:	00ae4e33          	xor	t3,t3,a0
   1217c:	00e2c2b3          	xor	t0,t0,a4
   12180:	00afcfb3          	xor	t6,t6,a0
   12184:	00e9c9b3          	xor	s3,s3,a4
   12188:	00ed4d33          	xor	s10,s10,a4
   1218c:	00a8c8b3          	xor	a7,a7,a0
   12190:	00ebc733          	xor	a4,s7,a4
   12194:	00adc533          	xor	a0,s11,a0
   12198:	014b5b93          	srli	s7,s6,0x14
   1219c:	7d82                	ld	s11,32(sp)
   1219e:	1b32                	slli	s6,s6,0x2c
   121a0:	017b6b33          	or	s6,s6,s7
   121a4:	8c31                	xor	s0,s0,a2
   121a6:	f55a                	sd	s6,168(sp)
   121a8:	015e5b13          	srli	s6,t3,0x15
   121ac:	1e2e                	slli	t3,t3,0x2b
   121ae:	00d3c3b3          	xor	t2,t2,a3
   121b2:	00c34333          	xor	t1,t1,a2
   121b6:	00c84833          	xor	a6,a6,a2
   121ba:	f972                	sd	t3,176(sp)
   121bc:	00cdc633          	xor	a2,s11,a2
   121c0:	01541e13          	slli	t3,s0,0x15
   121c4:	6de6                	ld	s11,88(sp)
   121c6:	902d                	srli	s0,s0,0x2b
   121c8:	00dc4c33          	xor	s8,s8,a3
   121cc:	e0a2                	sd	s0,64(sp)
   121ce:	00e39413          	slli	s0,t2,0xe
   121d2:	0323d393          	srli	t2,t2,0x32
   121d6:	00fa4a33          	xor	s4,s4,a5
   121da:	e49e                	sd	t2,72(sp)
   121dc:	024adb93          	srli	s7,s5,0x24
   121e0:	01ca9393          	slli	t2,s5,0x1c
   121e4:	014c1a93          	slli	s5,s8,0x14
   121e8:	02cc5c13          	srli	s8,s8,0x2c
   121ec:	00df4f33          	xor	t5,t5,a3
   121f0:	00dcccb3          	xor	s9,s9,a3
   121f4:	ece2                	sd	s8,88(sp)
   121f6:	00ddc6b3          	xor	a3,s11,a3
   121fa:	003a1c13          	slli	s8,s4,0x3
   121fe:	03da5d93          	srli	s11,s4,0x3d
   12202:	0132da13          	srli	s4,t0,0x13
   12206:	12b6                	slli	t0,t0,0x2d
   12208:	f096                	sd	t0,96(sp)
   1220a:	003fd293          	srli	t0,t6,0x3
   1220e:	1ff6                	slli	t6,t6,0x3d
   12210:	f4fe                	sd	t6,104(sp)
   12212:	00199f93          	slli	t6,s3,0x1
   12216:	03f9d993          	srli	s3,s3,0x3f
   1221a:	f8ce                	sd	s3,112(sp)
   1221c:	00691993          	slli	s3,s2,0x6
   12220:	03a95913          	srli	s2,s2,0x3a
   12224:	fcca                	sd	s2,120(sp)
   12226:	01931913          	slli	s2,t1,0x19
   1222a:	02735313          	srli	t1,t1,0x27
   1222e:	00feceb3          	xor	t4,t4,a5
   12232:	e11a                	sd	t1,128(sp)
   12234:	008f1313          	slli	t1,t5,0x8
   12238:	038f5f13          	srli	t5,t5,0x38
   1223c:	e57a                	sd	t5,136(sp)
   1223e:	012e9f13          	slli	t5,t4,0x12
   12242:	02eede93          	srli	t4,t4,0x2e
   12246:	8cbd                	xor	s1,s1,a5
   12248:	e976                	sd	t4,144(sp)
   1224a:	01bc9e93          	slli	t4,s9,0x1b
   1224e:	025cdc93          	srli	s9,s9,0x25
   12252:	e066                	sd	s9,0(sp)
   12254:	01c4dc93          	srli	s9,s1,0x1c
   12258:	1492                	slli	s1,s1,0x24
   1225a:	ed26                	sd	s1,152(sp)
   1225c:	00ad1493          	slli	s1,s10,0xa
   12260:	036d5d13          	srli	s10,s10,0x36
   12264:	f16a                	sd	s10,160(sp)
   12266:	00f89d13          	slli	s10,a7,0xf
   1226a:	0318d893          	srli	a7,a7,0x31
   1226e:	e446                	sd	a7,8(sp)
   12270:	00885893          	srli	a7,a6,0x8
   12274:	1862                	slli	a6,a6,0x38
   12276:	e842                	sd	a6,16(sp)
   12278:	00255813          	srli	a6,a0,0x2
   1227c:	157a                	slli	a0,a0,0x3e
   1227e:	ec2a                	sd	a0,24(sp)
   12280:	00965513          	srli	a0,a2,0x9
   12284:	165e                	slli	a2,a2,0x37
   12286:	8dbd                	xor	a1,a1,a5
   12288:	f032                	sd	a2,32(sp)
   1228a:	0196d613          	srli	a2,a3,0x19
   1228e:	169e                	slli	a3,a3,0x27
   12290:	f436                	sd	a3,40(sp)
   12292:	0175d693          	srli	a3,a1,0x17
   12296:	15a6                	slli	a1,a1,0x29
   12298:	f82e                	sd	a1,48(sp)
   1229a:	00271593          	slli	a1,a4,0x2
   1229e:	e8de                	sd	s7,80(sp)
   122a0:	8bae                	mv	s7,a1
   122a2:	6586                	ld	a1,64(sp)
   122a4:	9379                	srli	a4,a4,0x3e
   122a6:	fc3a                	sd	a4,56(sp)
   122a8:	01c5ee33          	or	t3,a1,t3
   122ac:	65a6                	ld	a1,72(sp)
   122ae:	776a                	ld	a4,184(sp)
   122b0:	018dedb3          	or	s11,s11,s8
   122b4:	8c4d                	or	s0,s0,a1
   122b6:	65c6                	ld	a1,80(sp)
   122b8:	8fb9                	xor	a5,a5,a4
   122ba:	774a                	ld	a4,176(sp)
   122bc:	0075e3b3          	or	t2,a1,t2
   122c0:	65e6                	ld	a1,88(sp)
   122c2:	7c02                	ld	s8,32(sp)
   122c4:	01676733          	or	a4,a4,s6
   122c8:	0155eab3          	or	s5,a1,s5
   122cc:	7586                	ld	a1,96(sp)
   122ce:	00ac6533          	or	a0,s8,a0
   122d2:	7c22                	ld	s8,40(sp)
   122d4:	0145ea33          	or	s4,a1,s4
   122d8:	75a6                	ld	a1,104(sp)
   122da:	00cc6633          	or	a2,s8,a2
   122de:	f02a                	sd	a0,32(sp)
   122e0:	0055e2b3          	or	t0,a1,t0
   122e4:	75c6                	ld	a1,112(sp)
   122e6:	7542                	ld	a0,48(sp)
   122e8:	7b2a                	ld	s6,168(sp)
   122ea:	01f5efb3          	or	t6,a1,t6
   122ee:	75e6                	ld	a1,120(sp)
   122f0:	f432                	sd	a2,40(sp)
   122f2:	7662                	ld	a2,56(sp)
   122f4:	0135e5b3          	or	a1,a1,s3
   122f8:	698a                	ld	s3,128(sp)
   122fa:	8ec9                	or	a3,a3,a0
   122fc:	f836                	sd	a3,48(sp)
   122fe:	0129e933          	or	s2,s3,s2
   12302:	69aa                	ld	s3,136(sp)
   12304:	017666b3          	or	a3,a2,s7
   12308:	fffb4c13          	not	s8,s6
   1230c:	0069e333          	or	t1,s3,t1
   12310:	69ca                	ld	s3,144(sp)
   12312:	fff74b93          	not	s7,a4
   12316:	fc36                	sd	a3,56(sp)
   12318:	01e9ef33          	or	t5,s3,t5
   1231c:	6982                	ld	s3,0(sp)
   1231e:	00ec7c33          	and	s8,s8,a4
   12322:	f93a                	sd	a4,176(sp)
   12324:	01d9eeb3          	or	t4,s3,t4
   12328:	69ea                	ld	s3,152(sp)
   1232a:	e076                	sd	t4,0(sp)
   1232c:	fd5e                	sd	s7,184(sp)
   1232e:	0199ecb3          	or	s9,s3,s9
   12332:	798a                	ld	s3,160(sp)
   12334:	e0f2                	sd	t3,64(sp)
   12336:	e4a2                	sd	s0,72(sp)
   12338:	0099e4b3          	or	s1,s3,s1
   1233c:	69c2                	ld	s3,16(sp)
   1233e:	8ea6                	mv	t4,s1
   12340:	64a2                	ld	s1,8(sp)
   12342:	0119e8b3          	or	a7,s3,a7
   12346:	69e2                	ld	s3,24(sp)
   12348:	01a4e4b3          	or	s1,s1,s10
   1234c:	e426                	sd	s1,8(sp)
   1234e:	0109e9b3          	or	s3,s3,a6
   12352:	e846                	sd	a7,16(sp)
   12354:	ec4e                	sd	s3,24(sp)
   12356:	fff44713          	not	a4,s0
   1235a:	ecd6                	sd	s5,88(sp)
   1235c:	f0d2                	sd	s4,96(sp)
   1235e:	00fc4c33          	xor	s8,s8,a5
   12362:	8f7d                	and	a4,a4,a5
   12364:	fff7cd13          	not	s10,a5
   12368:	77aa                	ld	a5,168(sp)
   1236a:	f496                	sd	t0,104(sp)
   1236c:	fffdc693          	not	a3,s11
   12370:	00fd7d33          	and	s10,s10,a5
   12374:	7786                	ld	a5,96(sp)
   12376:	e89e                	sd	t2,80(sp)
   12378:	fffa4613          	not	a2,s4
   1237c:	8efd                	and	a3,a3,a5
   1237e:	77a6                	ld	a5,104(sp)
   12380:	e97a                	sd	t5,144(sp)
   12382:	fff2c493          	not	s1,t0
   12386:	8e7d                	and	a2,a2,a5
   12388:	67c6                	ld	a5,80(sp)
   1238a:	ffff4513          	not	a0,t5
   1238e:	ed66                	sd	s9,152(sp)
   12390:	fffccf13          	not	t5,s9
   12394:	7ca2                	ld	s9,40(sp)
   12396:	fcae                	sd	a1,120(sp)
   12398:	8cfd                	and	s1,s1,a5
   1239a:	fff5c893          	not	a7,a1
   1239e:	67e6                	ld	a5,88(sp)
   123a0:	75e2                	ld	a1,56(sp)
   123a2:	e14a                	sd	s2,128(sp)
   123a4:	fffccb93          	not	s7,s9
   123a8:	fffe4993          	not	s3,t3
   123ac:	fff3ce13          	not	t3,t2
   123b0:	edde                	sd	s7,216(sp)
   123b2:	fff5cc93          	not	s9,a1
   123b6:	7bea                	ld	s7,184(sp)
   123b8:	6586                	ld	a1,64(sp)
   123ba:	00fe7e33          	and	t3,t3,a5
   123be:	678a                	ld	a5,128(sp)
   123c0:	e51a                	sd	t1,136(sp)
   123c2:	6822                	ld	a6,8(sp)
   123c4:	00bbfbb3          	and	s7,s7,a1
   123c8:	00f8f8b3          	and	a7,a7,a5
   123cc:	65a6                	ld	a1,72(sp)
   123ce:	67aa                	ld	a5,136(sp)
   123d0:	fff94293          	not	t0,s2
   123d4:	6b42                	ld	s6,16(sp)
   123d6:	7a02                	ld	s4,32(sp)
   123d8:	f8fe                	sd	t6,112(sp)
   123da:	fffac413          	not	s0,s5
   123de:	00b9f9b3          	and	s3,s3,a1
   123e2:	ffffca93          	not	s5,t6
   123e6:	65ca                	ld	a1,144(sp)
   123e8:	fff84f93          	not	t6,a6
   123ec:	00f2f2b3          	and	t0,t0,a5
   123f0:	6802                	ld	a6,0(sp)
   123f2:	77e6                	ld	a5,120(sp)
   123f4:	f176                	sd	t4,160(sp)
   123f6:	fff34313          	not	t1,t1
   123fa:	fffb4393          	not	t2,s6
   123fe:	fff84913          	not	s2,a6
   12402:	6b62                	ld	s6,24(sp)
   12404:	fffa4813          	not	a6,s4
   12408:	e9de                	sd	s7,208(sp)
   1240a:	7a42                	ld	s4,48(sp)
   1240c:	00b37333          	and	t1,t1,a1
   12410:	00fafab3          	and	s5,s5,a5
   12414:	75c6                	ld	a1,112(sp)
   12416:	778a                	ld	a5,160(sp)
   12418:	fffece93          	not	t4,t4
   1241c:	8d6d                	and	a0,a0,a1
   1241e:	00ff7f33          	and	t5,t5,a5
   12422:	67a2                	ld	a5,8(sp)
   12424:	65c2                	ld	a1,16(sp)
   12426:	6bee                	ld	s7,216(sp)
   12428:	00fefeb3          	and	t4,t4,a5
   1242c:	6782                	ld	a5,0(sp)
   1242e:	00bfffb3          	and	t6,t6,a1
   12432:	75a2                	ld	a1,40(sp)
   12434:	00f3f3b3          	and	t2,t2,a5
   12438:	67ea                	ld	a5,152(sp)
   1243a:	00b87833          	and	a6,a6,a1
   1243e:	75e2                	ld	a1,56(sp)
   12440:	00f97933          	and	s2,s2,a5
   12444:	77c2                	ld	a5,48(sp)
   12446:	fffa4a13          	not	s4,s4
   1244a:	00ba7a33          	and	s4,s4,a1
   1244e:	00fbf7b3          	and	a5,s7,a5
   12452:	6b8e                	ld	s7,192(sp)
   12454:	65e2                	ld	a1,24(sp)
   12456:	fffb4b13          	not	s6,s6
   1245a:	017c4bb3          	xor	s7,s8,s7
   1245e:	fd5e                	sd	s7,184(sp)
   12460:	7c2a                	ld	s8,168(sp)
   12462:	6bce                	ld	s7,208(sp)
   12464:	00bcfcb3          	and	s9,s9,a1
   12468:	7582                	ld	a1,32(sp)
   1246a:	018bcbb3          	xor	s7,s7,s8
   1246e:	7c4a                	ld	s8,176(sp)
   12470:	00bb7b33          	and	s6,s6,a1
   12474:	6586                	ld	a1,64(sp)
   12476:	0189c9b3          	xor	s3,s3,s8
   1247a:	f94e                	sd	s3,176(sp)
   1247c:	00b749b3          	xor	s3,a4,a1
   12480:	6746                	ld	a4,80(sp)
   12482:	01b47433          	and	s0,s0,s11
   12486:	65a6                	ld	a1,72(sp)
   12488:	8c39                	xor	s0,s0,a4
   1248a:	6766                	ld	a4,88(sp)
   1248c:	e4a2                	sd	s0,72(sp)
   1248e:	f55e                	sd	s7,168(sp)
   12490:	00e6c433          	xor	s0,a3,a4
   12494:	7706                	ld	a4,96(sp)
   12496:	00bd4bb3          	xor	s7,s10,a1
   1249a:	75c6                	ld	a1,112(sp)
   1249c:	00e4c6b3          	xor	a3,s1,a4
   124a0:	7726                	ld	a4,104(sp)
   124a2:	00b8c8b3          	xor	a7,a7,a1
   124a6:	75e6                	ld	a1,120(sp)
   124a8:	00ee44b3          	xor	s1,t3,a4
   124ac:	670a                	ld	a4,128(sp)
   124ae:	e8b6                	sd	a3,80(sp)
   124b0:	00b2c6b3          	xor	a3,t0,a1
   124b4:	00e34333          	xor	t1,t1,a4
   124b8:	672a                	ld	a4,136(sp)
   124ba:	ecb6                	sd	a3,88(sp)
   124bc:	e0de                	sd	s7,64(sp)
   124be:	65ca                	ld	a1,144(sp)
   124c0:	8d39                	xor	a0,a0,a4
   124c2:	6702                	ld	a4,0(sp)
   124c4:	00bac6b3          	xor	a3,s5,a1
   124c8:	f0b6                	sd	a3,96(sp)
   124ca:	00ef46b3          	xor	a3,t5,a4
   124ce:	676a                	ld	a4,152(sp)
   124d0:	65c2                	ld	a1,16(sp)
   124d2:	e036                	sd	a3,0(sp)
   124d4:	00eeceb3          	xor	t4,t4,a4
   124d8:	770a                	ld	a4,160(sp)
   124da:	00b94933          	xor	s2,s2,a1
   124de:	65e2                	ld	a1,24(sp)
   124e0:	00efcfb3          	xor	t6,t6,a4
   124e4:	6722                	ld	a4,8(sp)
   124e6:	00b84833          	xor	a6,a6,a1
   124ea:	7582                	ld	a1,32(sp)
   124ec:	00e3c3b3          	xor	t2,t2,a4
   124f0:	7742                	ld	a4,48(sp)
   124f2:	8fad                	xor	a5,a5,a1
   124f4:	f4be                	sd	a5,104(sp)
   124f6:	00ecc7b3          	xor	a5,s9,a4
   124fa:	f83e                	sd	a5,48(sp)
   124fc:	77e2                	ld	a5,56(sp)
   124fe:	75a2                	ld	a1,40(sp)
   12500:	770e                	ld	a4,224(sp)
   12502:	00fb4b33          	xor	s6,s6,a5
   12506:	67ae                	ld	a5,200(sp)
   12508:	01b64db3          	xor	s11,a2,s11
   1250c:	00ba4a33          	xor	s4,s4,a1
   12510:	faf71c63          	bne	a4,a5,11cc8 <_ZL24KeccakF1600_StatePermutePm+0xac>
   12514:	776a                	ld	a4,184(sp)
   12516:	82aa                	mv	t0,a0
   12518:	752e                	ld	a0,232(sp)
   1251a:	e118                	sd	a4,0(a0)
   1251c:	772a                	ld	a4,168(sp)
   1251e:	01353c23          	sd	s3,24(a0)
   12522:	f900                	sd	s0,48(a0)
   12524:	e518                	sd	a4,8(a0)
   12526:	774a                	ld	a4,176(sp)
   12528:	03b53c23          	sd	s11,56(a0)
   1252c:	e524                	sd	s1,72(a0)
   1252e:	e918                	sd	a4,16(a0)
   12530:	6706                	ld	a4,64(sp)
   12532:	09253c23          	sd	s2,152(a0)
   12536:	05153823          	sd	a7,80(a0)
   1253a:	f118                	sd	a4,32(a0)
   1253c:	6726                	ld	a4,72(sp)
   1253e:	06653023          	sd	t1,96(a0)
   12542:	06553423          	sd	t0,104(a0)
   12546:	f518                	sd	a4,40(a0)
   12548:	6746                	ld	a4,80(sp)
   1254a:	09d53023          	sd	t4,128(a0)
   1254e:	09f53423          	sd	t6,136(a0)
   12552:	e138                	sd	a4,64(a0)
   12554:	6766                	ld	a4,88(sp)
   12556:	08753823          	sd	t2,144(a0)
   1255a:	0b053023          	sd	a6,160(a0)
   1255e:	ed38                	sd	a4,88(a0)
   12560:	7706                	ld	a4,96(sp)
   12562:	f938                	sd	a4,112(a0)
   12564:	6702                	ld	a4,0(sp)
   12566:	fd38                	sd	a4,120(a0)
   12568:	7726                	ld	a4,104(sp)
   1256a:	f558                	sd	a4,168(a0)
   1256c:	7742                	ld	a4,48(sp)
   1256e:	6436                	ld	s0,328(sp)
   12570:	0b453823          	sd	s4,176(a0)
   12574:	0d653023          	sd	s6,192(a0)
   12578:	fd58                	sd	a4,184(a0)
   1257a:	6496                	ld	s1,320(sp)
   1257c:	7972                	ld	s2,312(sp)
   1257e:	79d2                	ld	s3,304(sp)
   12580:	7a32                	ld	s4,296(sp)
   12582:	7a92                	ld	s5,288(sp)
   12584:	6b72                	ld	s6,280(sp)
   12586:	6bd2                	ld	s7,272(sp)
   12588:	6c32                	ld	s8,264(sp)
   1258a:	6c92                	ld	s9,256(sp)
   1258c:	7d6e                	ld	s10,248(sp)
   1258e:	7dce                	ld	s11,240(sp)
   12590:	6171                	addi	sp,sp,336
   12592:	8082                	ret

0000000000012594 <_ZL17keccak_inc_absorbPmjPKhm>:
   12594:	657c                	ld	a5,200(a0)
   12596:	7179                	addi	sp,sp,-48
   12598:	e052                	sd	s4,0(sp)
   1259a:	02059a13          	slli	s4,a1,0x20
   1259e:	f022                	sd	s0,32(sp)
   125a0:	ec26                	sd	s1,24(sp)
   125a2:	e44e                	sd	s3,8(sp)
   125a4:	f406                	sd	ra,40(sp)
   125a6:	e84a                	sd	s2,16(sp)
   125a8:	00f68733          	add	a4,a3,a5
   125ac:	020a5a13          	srli	s4,s4,0x20
   125b0:	842a                	mv	s0,a0
   125b2:	89b6                	mv	s3,a3
   125b4:	84b2                	mv	s1,a2
   125b6:	07476263          	bltu	a4,s4,1261a <_ZL17keccak_inc_absorbPmjPKhm+0x86>
   125ba:	0007871b          	sext.w	a4,a5
   125be:	892e                	mv	s2,a1
   125c0:	02e58e63          	beq	a1,a4,125fc <_ZL17keccak_inc_absorbPmjPKhm+0x68>
   125c4:	4701                	li	a4,0
   125c6:	97ba                	add	a5,a5,a4
   125c8:	00e48533          	add	a0,s1,a4
   125cc:	ff87f813          	andi	a6,a5,-8
   125d0:	9822                	add	a6,a6,s0
   125d2:	00054303          	lbu	t1,0(a0)
   125d6:	00083883          	ld	a7,0(a6)
   125da:	8b9d                	andi	a5,a5,7
   125dc:	078e                	slli	a5,a5,0x3
   125de:	00f317b3          	sll	a5,t1,a5
   125e2:	00f8c7b3          	xor	a5,a7,a5
   125e6:	00f83023          	sd	a5,0(a6)
   125ea:	647c                	ld	a5,200(s0)
   125ec:	0705                	addi	a4,a4,1
   125ee:	40f9083b          	subw	a6,s2,a5
   125f2:	1802                	slli	a6,a6,0x20
   125f4:	02085813          	srli	a6,a6,0x20
   125f8:	fd0767e3          	bltu	a4,a6,125c6 <_ZL17keccak_inc_absorbPmjPKhm+0x32>
   125fc:	41478733          	sub	a4,a5,s4
   12600:	0c043423          	sd	zero,200(s0)
   12604:	40fa07b3          	sub	a5,s4,a5
   12608:	8522                	mv	a0,s0
   1260a:	99ba                	add	s3,s3,a4
   1260c:	94be                	add	s1,s1,a5
   1260e:	e0eff0ef          	jal	ra,11c1c <_ZL24KeccakF1600_StatePermutePm>
   12612:	4781                	li	a5,0
   12614:	874e                	mv	a4,s3
   12616:	fb49f7e3          	bgeu	s3,s4,125c4 <_ZL17keccak_inc_absorbPmjPKhm+0x30>
   1261a:	02098763          	beqz	s3,12648 <_ZL17keccak_inc_absorbPmjPKhm+0xb4>
   1261e:	4701                	li	a4,0
   12620:	97ba                	add	a5,a5,a4
   12622:	00e486b3          	add	a3,s1,a4
   12626:	ff87f613          	andi	a2,a5,-8
   1262a:	0006c583          	lbu	a1,0(a3)
   1262e:	9622                	add	a2,a2,s0
   12630:	6214                	ld	a3,0(a2)
   12632:	8b9d                	andi	a5,a5,7
   12634:	078e                	slli	a5,a5,0x3
   12636:	00f597b3          	sll	a5,a1,a5
   1263a:	8fb5                	xor	a5,a5,a3
   1263c:	e21c                	sd	a5,0(a2)
   1263e:	0705                	addi	a4,a4,1
   12640:	647c                	ld	a5,200(s0)
   12642:	fd371fe3          	bne	a4,s3,12620 <_ZL17keccak_inc_absorbPmjPKhm+0x8c>
   12646:	973e                	add	a4,a4,a5
   12648:	70a2                	ld	ra,40(sp)
   1264a:	e478                	sd	a4,200(s0)
   1264c:	7402                	ld	s0,32(sp)
   1264e:	64e2                	ld	s1,24(sp)
   12650:	6942                	ld	s2,16(sp)
   12652:	69a2                	ld	s3,8(sp)
   12654:	6a02                	ld	s4,0(sp)
   12656:	6145                	addi	sp,sp,48
   12658:	8082                	ret

000000000001265a <_ZL13keccak_absorbPmjPKhmh.constprop.2>:
   1265a:	712d                	addi	sp,sp,-288
   1265c:	87ae                	mv	a5,a1
   1265e:	fdce                	sd	s3,248(sp)
   12660:	4581                	li	a1,0
   12662:	89b2                	mv	s3,a2
   12664:	0c800613          	li	a2,200
   12668:	ea22                	sd	s0,272(sp)
   1266a:	e24a                	sd	s2,256(sp)
   1266c:	e43e                	sd	a5,8(sp)
   1266e:	ee06                	sd	ra,280(sp)
   12670:	e626                	sd	s1,264(sp)
   12672:	f9d2                	sd	s4,240(sp)
   12674:	f5d6                	sd	s5,232(sp)
   12676:	842a                	mv	s0,a0
   12678:	8936                	mv	s2,a3
   1267a:	4c6070ef          	jal	ra,19b40 <memset>
   1267e:	08700713          	li	a4,135
   12682:	67a2                	ld	a5,8(sp)
   12684:	09377063          	bgeu	a4,s3,12704 <_ZL13keccak_absorbPmjPKhmh.constprop.2+0xaa>
   12688:	08878a93          	addi	s5,a5,136
   1268c:	8a56                	mv	s4,s5
   1268e:	08700493          	li	s1,135
   12692:	88a2                	mv	a7,s0
   12694:	0017c703          	lbu	a4,1(a5)
   12698:	0027c683          	lbu	a3,2(a5)
   1269c:	0007c303          	lbu	t1,0(a5)
   126a0:	0037c803          	lbu	a6,3(a5)
   126a4:	0047c503          	lbu	a0,4(a5)
   126a8:	06c2                	slli	a3,a3,0x10
   126aa:	0722                	slli	a4,a4,0x8
   126ac:	0057c583          	lbu	a1,5(a5)
   126b0:	8f55                	or	a4,a4,a3
   126b2:	0067c603          	lbu	a2,6(a5)
   126b6:	00676733          	or	a4,a4,t1
   126ba:	0862                	slli	a6,a6,0x18
   126bc:	0077c683          	lbu	a3,7(a5)
   126c0:	00e86733          	or	a4,a6,a4
   126c4:	1502                	slli	a0,a0,0x20
   126c6:	8d59                	or	a0,a0,a4
   126c8:	02859713          	slli	a4,a1,0x28
   126cc:	8f49                	or	a4,a4,a0
   126ce:	0008b583          	ld	a1,0(a7)
   126d2:	1642                	slli	a2,a2,0x30
   126d4:	8e59                	or	a2,a2,a4
   126d6:	03869713          	slli	a4,a3,0x38
   126da:	8f51                	or	a4,a4,a2
   126dc:	8f2d                	xor	a4,a4,a1
   126de:	00e8b023          	sd	a4,0(a7)
   126e2:	07a1                	addi	a5,a5,8
   126e4:	08a1                	addi	a7,a7,8
   126e6:	fb4797e3          	bne	a5,s4,12694 <_ZL13keccak_absorbPmjPKhmh.constprop.2+0x3a>
   126ea:	8522                	mv	a0,s0
   126ec:	d30ff0ef          	jal	ra,11c1c <_ZL24KeccakF1600_StatePermutePm>
   126f0:	f7898993          	addi	s3,s3,-136
   126f4:	87d6                	mv	a5,s5
   126f6:	088a0a13          	addi	s4,s4,136
   126fa:	0134f563          	bgeu	s1,s3,12704 <_ZL13keccak_absorbPmjPKhmh.constprop.2+0xaa>
   126fe:	088a8a93          	addi	s5,s5,136
   12702:	bf41                	j	12692 <_ZL13keccak_absorbPmjPKhmh.constprop.2+0x38>
   12704:	08800613          	li	a2,136
   12708:	4581                	li	a1,0
   1270a:	0828                	addi	a0,sp,24
   1270c:	e43e                	sd	a5,8(sp)
   1270e:	432070ef          	jal	ra,19b40 <memset>
   12712:	00098863          	beqz	s3,12722 <_ZL13keccak_absorbPmjPKhmh.constprop.2+0xc8>
   12716:	67a2                	ld	a5,8(sp)
   12718:	864e                	mv	a2,s3
   1271a:	0828                	addi	a0,sp,24
   1271c:	85be                	mv	a1,a5
   1271e:	2dc070ef          	jal	ra,199fa <memcpy>
   12722:	0d098793          	addi	a5,s3,208
   12726:	0818                	addi	a4,sp,16
   12728:	00e789b3          	add	s3,a5,a4
   1272c:	f3298c23          	sb	s2,-200(s3)
   12730:	09f14703          	lbu	a4,159(sp)
   12734:	083c                	addi	a5,sp,24
   12736:	0a010313          	addi	t1,sp,160
   1273a:	f8076713          	ori	a4,a4,-128
   1273e:	08e10fa3          	sb	a4,159(sp)
   12742:	0017c703          	lbu	a4,1(a5)
   12746:	0027c683          	lbu	a3,2(a5)
   1274a:	0007c883          	lbu	a7,0(a5)
   1274e:	0037c803          	lbu	a6,3(a5)
   12752:	0047c503          	lbu	a0,4(a5)
   12756:	06c2                	slli	a3,a3,0x10
   12758:	0722                	slli	a4,a4,0x8
   1275a:	0057c583          	lbu	a1,5(a5)
   1275e:	8f55                	or	a4,a4,a3
   12760:	0067c603          	lbu	a2,6(a5)
   12764:	01176733          	or	a4,a4,a7
   12768:	0862                	slli	a6,a6,0x18
   1276a:	0077c683          	lbu	a3,7(a5)
   1276e:	00e86733          	or	a4,a6,a4
   12772:	1502                	slli	a0,a0,0x20
   12774:	8d59                	or	a0,a0,a4
   12776:	02859713          	slli	a4,a1,0x28
   1277a:	8f49                	or	a4,a4,a0
   1277c:	600c                	ld	a1,0(s0)
   1277e:	1642                	slli	a2,a2,0x30
   12780:	8e59                	or	a2,a2,a4
   12782:	03869713          	slli	a4,a3,0x38
   12786:	8f51                	or	a4,a4,a2
   12788:	8f2d                	xor	a4,a4,a1
   1278a:	e018                	sd	a4,0(s0)
   1278c:	07a1                	addi	a5,a5,8
   1278e:	0421                	addi	s0,s0,8
   12790:	faf319e3          	bne	t1,a5,12742 <_ZL13keccak_absorbPmjPKhmh.constprop.2+0xe8>
   12794:	60f2                	ld	ra,280(sp)
   12796:	6452                	ld	s0,272(sp)
   12798:	64b2                	ld	s1,264(sp)
   1279a:	6912                	ld	s2,256(sp)
   1279c:	79ee                	ld	s3,248(sp)
   1279e:	7a4e                	ld	s4,240(sp)
   127a0:	7aae                	ld	s5,232(sp)
   127a2:	6115                	addi	sp,sp,288
   127a4:	8082                	ret

00000000000127a6 <_ZL13keccak_absorbPmjPKhmh.constprop.3>:
   127a6:	716d                	addi	sp,sp,-272
   127a8:	87ae                	mv	a5,a1
   127aa:	f9ca                	sd	s2,240(sp)
   127ac:	4581                	li	a1,0
   127ae:	8932                	mv	s2,a2
   127b0:	0c800613          	li	a2,200
   127b4:	e222                	sd	s0,256(sp)
   127b6:	e43e                	sd	a5,8(sp)
   127b8:	e606                	sd	ra,264(sp)
   127ba:	fda6                	sd	s1,248(sp)
   127bc:	f5ce                	sd	s3,232(sp)
   127be:	f1d2                	sd	s4,224(sp)
   127c0:	842a                	mv	s0,a0
   127c2:	37e070ef          	jal	ra,19b40 <memset>
   127c6:	0a700713          	li	a4,167
   127ca:	67a2                	ld	a5,8(sp)
   127cc:	09277063          	bgeu	a4,s2,1284c <_ZL13keccak_absorbPmjPKhmh.constprop.3+0xa6>
   127d0:	0a878a13          	addi	s4,a5,168
   127d4:	89d2                	mv	s3,s4
   127d6:	0a700493          	li	s1,167
   127da:	88a2                	mv	a7,s0
   127dc:	0017c703          	lbu	a4,1(a5)
   127e0:	0027c683          	lbu	a3,2(a5)
   127e4:	0007c303          	lbu	t1,0(a5)
   127e8:	0037c803          	lbu	a6,3(a5)
   127ec:	0047c503          	lbu	a0,4(a5)
   127f0:	06c2                	slli	a3,a3,0x10
   127f2:	0722                	slli	a4,a4,0x8
   127f4:	0057c583          	lbu	a1,5(a5)
   127f8:	8f55                	or	a4,a4,a3
   127fa:	0067c603          	lbu	a2,6(a5)
   127fe:	00676733          	or	a4,a4,t1
   12802:	0862                	slli	a6,a6,0x18
   12804:	0077c683          	lbu	a3,7(a5)
   12808:	00e86733          	or	a4,a6,a4
   1280c:	1502                	slli	a0,a0,0x20
   1280e:	8d59                	or	a0,a0,a4
   12810:	02859713          	slli	a4,a1,0x28
   12814:	8f49                	or	a4,a4,a0
   12816:	0008b583          	ld	a1,0(a7)
   1281a:	1642                	slli	a2,a2,0x30
   1281c:	8e59                	or	a2,a2,a4
   1281e:	03869713          	slli	a4,a3,0x38
   12822:	8f51                	or	a4,a4,a2
   12824:	8f2d                	xor	a4,a4,a1
   12826:	00e8b023          	sd	a4,0(a7)
   1282a:	07a1                	addi	a5,a5,8
   1282c:	08a1                	addi	a7,a7,8
   1282e:	fb3797e3          	bne	a5,s3,127dc <_ZL13keccak_absorbPmjPKhmh.constprop.3+0x36>
   12832:	8522                	mv	a0,s0
   12834:	be8ff0ef          	jal	ra,11c1c <_ZL24KeccakF1600_StatePermutePm>
   12838:	f5890913          	addi	s2,s2,-168
   1283c:	87d2                	mv	a5,s4
   1283e:	0a898993          	addi	s3,s3,168
   12842:	0124f563          	bgeu	s1,s2,1284c <_ZL13keccak_absorbPmjPKhmh.constprop.3+0xa6>
   12846:	0a8a0a13          	addi	s4,s4,168
   1284a:	bf41                	j	127da <_ZL13keccak_absorbPmjPKhmh.constprop.3+0x34>
   1284c:	0a800613          	li	a2,168
   12850:	4581                	li	a1,0
   12852:	0828                	addi	a0,sp,24
   12854:	e43e                	sd	a5,8(sp)
   12856:	2ea070ef          	jal	ra,19b40 <memset>
   1285a:	00090863          	beqz	s2,1286a <_ZL13keccak_absorbPmjPKhmh.constprop.3+0xc4>
   1285e:	67a2                	ld	a5,8(sp)
   12860:	864a                	mv	a2,s2
   12862:	0828                	addi	a0,sp,24
   12864:	85be                	mv	a1,a5
   12866:	194070ef          	jal	ra,199fa <memcpy>
   1286a:	0d090793          	addi	a5,s2,208
   1286e:	0818                	addi	a4,sp,16
   12870:	00e78933          	add	s2,a5,a4
   12874:	47fd                	li	a5,31
   12876:	f2f90c23          	sb	a5,-200(s2)
   1287a:	0bf14703          	lbu	a4,191(sp)
   1287e:	083c                	addi	a5,sp,24
   12880:	0c010313          	addi	t1,sp,192
   12884:	f8076713          	ori	a4,a4,-128
   12888:	0ae10fa3          	sb	a4,191(sp)
   1288c:	0017c703          	lbu	a4,1(a5)
   12890:	0027c683          	lbu	a3,2(a5)
   12894:	0007c883          	lbu	a7,0(a5)
   12898:	0037c803          	lbu	a6,3(a5)
   1289c:	0047c503          	lbu	a0,4(a5)
   128a0:	06c2                	slli	a3,a3,0x10
   128a2:	0722                	slli	a4,a4,0x8
   128a4:	0057c583          	lbu	a1,5(a5)
   128a8:	8f55                	or	a4,a4,a3
   128aa:	0067c603          	lbu	a2,6(a5)
   128ae:	01176733          	or	a4,a4,a7
   128b2:	0862                	slli	a6,a6,0x18
   128b4:	0077c683          	lbu	a3,7(a5)
   128b8:	00e86733          	or	a4,a6,a4
   128bc:	1502                	slli	a0,a0,0x20
   128be:	8d59                	or	a0,a0,a4
   128c0:	02859713          	slli	a4,a1,0x28
   128c4:	8f49                	or	a4,a4,a0
   128c6:	600c                	ld	a1,0(s0)
   128c8:	1642                	slli	a2,a2,0x30
   128ca:	8e59                	or	a2,a2,a4
   128cc:	03869713          	slli	a4,a3,0x38
   128d0:	8f51                	or	a4,a4,a2
   128d2:	8f2d                	xor	a4,a4,a1
   128d4:	e018                	sd	a4,0(s0)
   128d6:	07a1                	addi	a5,a5,8
   128d8:	0421                	addi	s0,s0,8
   128da:	faf319e3          	bne	t1,a5,1288c <_ZL13keccak_absorbPmjPKhmh.constprop.3+0xe6>
   128de:	60b2                	ld	ra,264(sp)
   128e0:	6412                	ld	s0,256(sp)
   128e2:	74ee                	ld	s1,248(sp)
   128e4:	794e                	ld	s2,240(sp)
   128e6:	79ae                	ld	s3,232(sp)
   128e8:	7a0e                	ld	s4,224(sp)
   128ea:	6151                	addi	sp,sp,272
   128ec:	8082                	ret

00000000000128ee <_Z17shake128_inc_initP14shake128incctx>:
   128ee:	1141                	addi	sp,sp,-16
   128f0:	0c800613          	li	a2,200
   128f4:	4581                	li	a1,0
   128f6:	e022                	sd	s0,0(sp)
   128f8:	e406                	sd	ra,8(sp)
   128fa:	842a                	mv	s0,a0
   128fc:	244070ef          	jal	ra,19b40 <memset>
   12900:	60a2                	ld	ra,8(sp)
   12902:	0c043423          	sd	zero,200(s0)
   12906:	6402                	ld	s0,0(sp)
   12908:	0141                	addi	sp,sp,16
   1290a:	8082                	ret

000000000001290c <_Z19shake128_inc_absorbP14shake128incctxPKhm>:
   1290c:	86b2                	mv	a3,a2
   1290e:	862e                	mv	a2,a1
   12910:	0a800593          	li	a1,168
   12914:	b141                	j	12594 <_ZL17keccak_inc_absorbPmjPKhm>

0000000000012916 <_Z21shake128_inc_finalizeP14shake128incctx>:
   12916:	657c                	ld	a5,200(a0)
   12918:	467d                	li	a2,31
   1291a:	ff87f713          	andi	a4,a5,-8
   1291e:	972a                	add	a4,a4,a0
   12920:	6314                	ld	a3,0(a4)
   12922:	8b9d                	andi	a5,a5,7
   12924:	078e                	slli	a5,a5,0x3
   12926:	00f617b3          	sll	a5,a2,a5
   1292a:	8fb5                	xor	a5,a5,a3
   1292c:	e31c                	sd	a5,0(a4)
   1292e:	715c                	ld	a5,160(a0)
   12930:	577d                	li	a4,-1
   12932:	177e                	slli	a4,a4,0x3f
   12934:	8fb9                	xor	a5,a5,a4
   12936:	0c053423          	sd	zero,200(a0)
   1293a:	f15c                	sd	a5,160(a0)
   1293c:	8082                	ret

000000000001293e <_Z20shake128_inc_squeezePhmP14shake128incctx>:
   1293e:	c1f9                	beqz	a1,12a04 <_Z20shake128_inc_squeezePhmP14shake128incctx+0xc6>
   12940:	7179                	addi	sp,sp,-48
   12942:	f022                	sd	s0,32(sp)
   12944:	f406                	sd	ra,40(sp)
   12946:	ec26                	sd	s1,24(sp)
   12948:	e84a                	sd	s2,16(sp)
   1294a:	e44e                	sd	s3,8(sp)
   1294c:	8432                	mv	s0,a2
   1294e:	4701                	li	a4,0
   12950:	0a800893          	li	a7,168
   12954:	a809                	j	12966 <_Z20shake128_inc_squeezePhmP14shake128incctx+0x28>
   12956:	6294                	ld	a3,0(a3)
   12958:	0705                	addi	a4,a4,1
   1295a:	00f6d7b3          	srl	a5,a3,a5
   1295e:	00f80023          	sb	a5,0(a6)
   12962:	08e58763          	beq	a1,a4,129f0 <_Z20shake128_inc_squeezePhmP14shake128incctx+0xb2>
   12966:	6470                	ld	a2,200(s0)
   12968:	00e50833          	add	a6,a0,a4
   1296c:	40c887b3          	sub	a5,a7,a2
   12970:	97ba                	add	a5,a5,a4
   12972:	ff87f693          	andi	a3,a5,-8
   12976:	8b9d                	andi	a5,a5,7
   12978:	96a2                	add	a3,a3,s0
   1297a:	078e                	slli	a5,a5,0x3
   1297c:	fcc76de3          	bltu	a4,a2,12956 <_Z20shake128_inc_squeezePhmP14shake128incctx+0x18>
   12980:	8e19                	sub	a2,a2,a4
   12982:	e470                	sd	a2,200(s0)
   12984:	84c2                	mv	s1,a6
   12986:	40e58933          	sub	s2,a1,a4
   1298a:	04e58063          	beq	a1,a4,129ca <_Z20shake128_inc_squeezePhmP14shake128incctx+0x8c>
   1298e:	8522                	mv	a0,s0
   12990:	a8cff0ef          	jal	ra,11c1c <_ZL24KeccakF1600_StatePermutePm>
   12994:	0a800993          	li	s3,168
   12998:	4781                	li	a5,0
   1299a:	a019                	j	129a0 <_Z20shake128_inc_squeezePhmP14shake128incctx+0x62>
   1299c:	03378e63          	beq	a5,s3,129d8 <_Z20shake128_inc_squeezePhmP14shake128incctx+0x9a>
   129a0:	ff87f713          	andi	a4,a5,-8
   129a4:	9722                	add	a4,a4,s0
   129a6:	6318                	ld	a4,0(a4)
   129a8:	0077f693          	andi	a3,a5,7
   129ac:	068e                	slli	a3,a3,0x3
   129ae:	00f485b3          	add	a1,s1,a5
   129b2:	00d75733          	srl	a4,a4,a3
   129b6:	00e58023          	sb	a4,0(a1)
   129ba:	0785                	addi	a5,a5,1
   129bc:	ff2790e3          	bne	a5,s2,1299c <_Z20shake128_inc_squeezePhmP14shake128incctx+0x5e>
   129c0:	0a800713          	li	a4,168
   129c4:	40f707b3          	sub	a5,a4,a5
   129c8:	e47c                	sd	a5,200(s0)
   129ca:	70a2                	ld	ra,40(sp)
   129cc:	7402                	ld	s0,32(sp)
   129ce:	64e2                	ld	s1,24(sp)
   129d0:	6942                	ld	s2,16(sp)
   129d2:	69a2                	ld	s3,8(sp)
   129d4:	6145                	addi	sp,sp,48
   129d6:	8082                	ret
   129d8:	f5890913          	addi	s2,s2,-168
   129dc:	0c043423          	sd	zero,200(s0)
   129e0:	0a848493          	addi	s1,s1,168
   129e4:	fe0903e3          	beqz	s2,129ca <_Z20shake128_inc_squeezePhmP14shake128incctx+0x8c>
   129e8:	8522                	mv	a0,s0
   129ea:	a32ff0ef          	jal	ra,11c1c <_ZL24KeccakF1600_StatePermutePm>
   129ee:	b76d                	j	12998 <_Z20shake128_inc_squeezePhmP14shake128incctx+0x5a>
   129f0:	647c                	ld	a5,200(s0)
   129f2:	70a2                	ld	ra,40(sp)
   129f4:	64e2                	ld	s1,24(sp)
   129f6:	8f8d                	sub	a5,a5,a1
   129f8:	e47c                	sd	a5,200(s0)
   129fa:	7402                	ld	s0,32(sp)
   129fc:	6942                	ld	s2,16(sp)
   129fe:	69a2                	ld	s3,8(sp)
   12a00:	6145                	addi	sp,sp,48
   12a02:	8082                	ret
   12a04:	8082                	ret

0000000000012a06 <_Z17shake256_inc_initP14shake256incctx>:
   12a06:	1141                	addi	sp,sp,-16
   12a08:	0c800613          	li	a2,200
   12a0c:	4581                	li	a1,0
   12a0e:	e022                	sd	s0,0(sp)
   12a10:	e406                	sd	ra,8(sp)
   12a12:	842a                	mv	s0,a0
   12a14:	12c070ef          	jal	ra,19b40 <memset>
   12a18:	60a2                	ld	ra,8(sp)
   12a1a:	0c043423          	sd	zero,200(s0)
   12a1e:	6402                	ld	s0,0(sp)
   12a20:	0141                	addi	sp,sp,16
   12a22:	8082                	ret

0000000000012a24 <_Z19shake256_inc_absorbP14shake256incctxPKhm>:
   12a24:	86b2                	mv	a3,a2
   12a26:	862e                	mv	a2,a1
   12a28:	08800593          	li	a1,136
   12a2c:	b6a5                	j	12594 <_ZL17keccak_inc_absorbPmjPKhm>

0000000000012a2e <_Z21shake256_inc_finalizeP14shake256incctx>:
   12a2e:	657c                	ld	a5,200(a0)
   12a30:	467d                	li	a2,31
   12a32:	ff87f713          	andi	a4,a5,-8
   12a36:	972a                	add	a4,a4,a0
   12a38:	6314                	ld	a3,0(a4)
   12a3a:	8b9d                	andi	a5,a5,7
   12a3c:	078e                	slli	a5,a5,0x3
   12a3e:	00f617b3          	sll	a5,a2,a5
   12a42:	8fb5                	xor	a5,a5,a3
   12a44:	e31c                	sd	a5,0(a4)
   12a46:	615c                	ld	a5,128(a0)
   12a48:	577d                	li	a4,-1
   12a4a:	177e                	slli	a4,a4,0x3f
   12a4c:	8fb9                	xor	a5,a5,a4
   12a4e:	0c053423          	sd	zero,200(a0)
   12a52:	e15c                	sd	a5,128(a0)
   12a54:	8082                	ret

0000000000012a56 <_Z20shake256_inc_squeezePhmP14shake256incctx>:
   12a56:	c1f9                	beqz	a1,12b1c <_Z20shake256_inc_squeezePhmP14shake256incctx+0xc6>
   12a58:	7179                	addi	sp,sp,-48
   12a5a:	f022                	sd	s0,32(sp)
   12a5c:	f406                	sd	ra,40(sp)
   12a5e:	ec26                	sd	s1,24(sp)
   12a60:	e84a                	sd	s2,16(sp)
   12a62:	e44e                	sd	s3,8(sp)
   12a64:	8432                	mv	s0,a2
   12a66:	4701                	li	a4,0
   12a68:	08800893          	li	a7,136
   12a6c:	a809                	j	12a7e <_Z20shake256_inc_squeezePhmP14shake256incctx+0x28>
   12a6e:	6294                	ld	a3,0(a3)
   12a70:	0705                	addi	a4,a4,1
   12a72:	00f6d7b3          	srl	a5,a3,a5
   12a76:	00f80023          	sb	a5,0(a6)
   12a7a:	08e58763          	beq	a1,a4,12b08 <_Z20shake256_inc_squeezePhmP14shake256incctx+0xb2>
   12a7e:	6470                	ld	a2,200(s0)
   12a80:	00e50833          	add	a6,a0,a4
   12a84:	40c887b3          	sub	a5,a7,a2
   12a88:	97ba                	add	a5,a5,a4
   12a8a:	ff87f693          	andi	a3,a5,-8
   12a8e:	8b9d                	andi	a5,a5,7
   12a90:	96a2                	add	a3,a3,s0
   12a92:	078e                	slli	a5,a5,0x3
   12a94:	fcc76de3          	bltu	a4,a2,12a6e <_Z20shake256_inc_squeezePhmP14shake256incctx+0x18>
   12a98:	8e19                	sub	a2,a2,a4
   12a9a:	e470                	sd	a2,200(s0)
   12a9c:	84c2                	mv	s1,a6
   12a9e:	40e58933          	sub	s2,a1,a4
   12aa2:	04e58063          	beq	a1,a4,12ae2 <_Z20shake256_inc_squeezePhmP14shake256incctx+0x8c>
   12aa6:	8522                	mv	a0,s0
   12aa8:	974ff0ef          	jal	ra,11c1c <_ZL24KeccakF1600_StatePermutePm>
   12aac:	08800993          	li	s3,136
   12ab0:	4781                	li	a5,0
   12ab2:	a019                	j	12ab8 <_Z20shake256_inc_squeezePhmP14shake256incctx+0x62>
   12ab4:	03378e63          	beq	a5,s3,12af0 <_Z20shake256_inc_squeezePhmP14shake256incctx+0x9a>
   12ab8:	ff87f713          	andi	a4,a5,-8
   12abc:	9722                	add	a4,a4,s0
   12abe:	6318                	ld	a4,0(a4)
   12ac0:	0077f693          	andi	a3,a5,7
   12ac4:	068e                	slli	a3,a3,0x3
   12ac6:	00f485b3          	add	a1,s1,a5
   12aca:	00d75733          	srl	a4,a4,a3
   12ace:	00e58023          	sb	a4,0(a1)
   12ad2:	0785                	addi	a5,a5,1
   12ad4:	ff2790e3          	bne	a5,s2,12ab4 <_Z20shake256_inc_squeezePhmP14shake256incctx+0x5e>
   12ad8:	08800713          	li	a4,136
   12adc:	40f707b3          	sub	a5,a4,a5
   12ae0:	e47c                	sd	a5,200(s0)
   12ae2:	70a2                	ld	ra,40(sp)
   12ae4:	7402                	ld	s0,32(sp)
   12ae6:	64e2                	ld	s1,24(sp)
   12ae8:	6942                	ld	s2,16(sp)
   12aea:	69a2                	ld	s3,8(sp)
   12aec:	6145                	addi	sp,sp,48
   12aee:	8082                	ret
   12af0:	f7890913          	addi	s2,s2,-136
   12af4:	0c043423          	sd	zero,200(s0)
   12af8:	08848493          	addi	s1,s1,136
   12afc:	fe0903e3          	beqz	s2,12ae2 <_Z20shake256_inc_squeezePhmP14shake256incctx+0x8c>
   12b00:	8522                	mv	a0,s0
   12b02:	91aff0ef          	jal	ra,11c1c <_ZL24KeccakF1600_StatePermutePm>
   12b06:	b76d                	j	12ab0 <_Z20shake256_inc_squeezePhmP14shake256incctx+0x5a>
   12b08:	647c                	ld	a5,200(s0)
   12b0a:	70a2                	ld	ra,40(sp)
   12b0c:	64e2                	ld	s1,24(sp)
   12b0e:	8f8d                	sub	a5,a5,a1
   12b10:	e47c                	sd	a5,200(s0)
   12b12:	7402                	ld	s0,32(sp)
   12b14:	6942                	ld	s2,16(sp)
   12b16:	69a2                	ld	s3,8(sp)
   12b18:	6145                	addi	sp,sp,48
   12b1a:	8082                	ret
   12b1c:	8082                	ret

0000000000012b1e <_Z15shake128_absorbP11shake128ctxPKhm>:
   12b1e:	b161                	j	127a6 <_ZL13keccak_absorbPmjPKhmh.constprop.3>

0000000000012b20 <_Z22shake128_squeezeblocksPhmP11shake128ctx>:
   12b20:	c5d9                	beqz	a1,12bae <_Z22shake128_squeezeblocksPhmP11shake128ctx+0x8e>
   12b22:	7179                	addi	sp,sp,-48
   12b24:	e052                	sd	s4,0(sp)
   12b26:	0a850a13          	addi	s4,a0,168
   12b2a:	f022                	sd	s0,32(sp)
   12b2c:	ec26                	sd	s1,24(sp)
   12b2e:	e84a                	sd	s2,16(sp)
   12b30:	e44e                	sd	s3,8(sp)
   12b32:	f406                	sd	ra,40(sp)
   12b34:	89ae                	mv	s3,a1
   12b36:	842a                	mv	s0,a0
   12b38:	8932                	mv	s2,a2
   12b3a:	84d2                	mv	s1,s4
   12b3c:	854a                	mv	a0,s2
   12b3e:	8deff0ef          	jal	ra,11c1c <_ZL24KeccakF1600_StatePermutePm>
   12b42:	86ca                	mv	a3,s2
   12b44:	87a2                	mv	a5,s0
   12b46:	6298                	ld	a4,0(a3)
   12b48:	07a1                	addi	a5,a5,8
   12b4a:	06a1                	addi	a3,a3,8
   12b4c:	00875e93          	srli	t4,a4,0x8
   12b50:	01075e13          	srli	t3,a4,0x10
   12b54:	01875313          	srli	t1,a4,0x18
   12b58:	02075893          	srli	a7,a4,0x20
   12b5c:	02875813          	srli	a6,a4,0x28
   12b60:	03075593          	srli	a1,a4,0x30
   12b64:	03875613          	srli	a2,a4,0x38
   12b68:	ffd78ca3          	sb	t4,-7(a5)
   12b6c:	ffc78d23          	sb	t3,-6(a5)
   12b70:	fe678da3          	sb	t1,-5(a5)
   12b74:	ff178e23          	sb	a7,-4(a5)
   12b78:	ff078ea3          	sb	a6,-3(a5)
   12b7c:	feb78f23          	sb	a1,-2(a5)
   12b80:	fec78fa3          	sb	a2,-1(a5)
   12b84:	fee78c23          	sb	a4,-8(a5)
   12b88:	faf49fe3          	bne	s1,a5,12b46 <_Z22shake128_squeezeblocksPhmP11shake128ctx+0x26>
   12b8c:	19fd                	addi	s3,s3,-1
   12b8e:	8452                	mv	s0,s4
   12b90:	0a848493          	addi	s1,s1,168
   12b94:	00098563          	beqz	s3,12b9e <_Z22shake128_squeezeblocksPhmP11shake128ctx+0x7e>
   12b98:	0a8a0a13          	addi	s4,s4,168
   12b9c:	b745                	j	12b3c <_Z22shake128_squeezeblocksPhmP11shake128ctx+0x1c>
   12b9e:	70a2                	ld	ra,40(sp)
   12ba0:	7402                	ld	s0,32(sp)
   12ba2:	64e2                	ld	s1,24(sp)
   12ba4:	6942                	ld	s2,16(sp)
   12ba6:	69a2                	ld	s3,8(sp)
   12ba8:	6a02                	ld	s4,0(sp)
   12baa:	6145                	addi	sp,sp,48
   12bac:	8082                	ret
   12bae:	8082                	ret

0000000000012bb0 <_Z15shake256_absorbP11shake256ctxPKhm>:
   12bb0:	46fd                	li	a3,31
   12bb2:	b465                	j	1265a <_ZL13keccak_absorbPmjPKhmh.constprop.2>

0000000000012bb4 <_Z22shake256_squeezeblocksPhmP11shake256ctx>:
   12bb4:	c5d9                	beqz	a1,12c42 <_Z22shake256_squeezeblocksPhmP11shake256ctx+0x8e>
   12bb6:	7179                	addi	sp,sp,-48
   12bb8:	e052                	sd	s4,0(sp)
   12bba:	08850a13          	addi	s4,a0,136
   12bbe:	f022                	sd	s0,32(sp)
   12bc0:	ec26                	sd	s1,24(sp)
   12bc2:	e84a                	sd	s2,16(sp)
   12bc4:	e44e                	sd	s3,8(sp)
   12bc6:	f406                	sd	ra,40(sp)
   12bc8:	89ae                	mv	s3,a1
   12bca:	842a                	mv	s0,a0
   12bcc:	8932                	mv	s2,a2
   12bce:	84d2                	mv	s1,s4
   12bd0:	854a                	mv	a0,s2
   12bd2:	84aff0ef          	jal	ra,11c1c <_ZL24KeccakF1600_StatePermutePm>
   12bd6:	86ca                	mv	a3,s2
   12bd8:	87a2                	mv	a5,s0
   12bda:	6298                	ld	a4,0(a3)
   12bdc:	07a1                	addi	a5,a5,8
   12bde:	06a1                	addi	a3,a3,8
   12be0:	00875e93          	srli	t4,a4,0x8
   12be4:	01075e13          	srli	t3,a4,0x10
   12be8:	01875313          	srli	t1,a4,0x18
   12bec:	02075893          	srli	a7,a4,0x20
   12bf0:	02875813          	srli	a6,a4,0x28
   12bf4:	03075593          	srli	a1,a4,0x30
   12bf8:	03875613          	srli	a2,a4,0x38
   12bfc:	ffd78ca3          	sb	t4,-7(a5)
   12c00:	ffc78d23          	sb	t3,-6(a5)
   12c04:	fe678da3          	sb	t1,-5(a5)
   12c08:	ff178e23          	sb	a7,-4(a5)
   12c0c:	ff078ea3          	sb	a6,-3(a5)
   12c10:	feb78f23          	sb	a1,-2(a5)
   12c14:	fec78fa3          	sb	a2,-1(a5)
   12c18:	fee78c23          	sb	a4,-8(a5)
   12c1c:	faf49fe3          	bne	s1,a5,12bda <_Z22shake256_squeezeblocksPhmP11shake256ctx+0x26>
   12c20:	19fd                	addi	s3,s3,-1
   12c22:	8452                	mv	s0,s4
   12c24:	08848493          	addi	s1,s1,136
   12c28:	00098563          	beqz	s3,12c32 <_Z22shake256_squeezeblocksPhmP11shake256ctx+0x7e>
   12c2c:	088a0a13          	addi	s4,s4,136
   12c30:	b745                	j	12bd0 <_Z22shake256_squeezeblocksPhmP11shake256ctx+0x1c>
   12c32:	70a2                	ld	ra,40(sp)
   12c34:	7402                	ld	s0,32(sp)
   12c36:	64e2                	ld	s1,24(sp)
   12c38:	6942                	ld	s2,16(sp)
   12c3a:	69a2                	ld	s3,8(sp)
   12c3c:	6a02                	ld	s4,0(sp)
   12c3e:	6145                	addi	sp,sp,48
   12c40:	8082                	ret
   12c42:	8082                	ret

0000000000012c44 <_Z8shake128PhmPKhm>:
   12c44:	7161                	addi	sp,sp,-432
   12c46:	87b2                	mv	a5,a2
   12c48:	f322                	sd	s0,416(sp)
   12c4a:	1120                	addi	s0,sp,168
   12c4c:	ef26                	sd	s1,408(sp)
   12c4e:	e74e                	sd	s3,392(sp)
   12c50:	84ae                	mv	s1,a1
   12c52:	89aa                	mv	s3,a0
   12c54:	85be                	mv	a1,a5
   12c56:	8636                	mv	a2,a3
   12c58:	8522                	mv	a0,s0
   12c5a:	eb4a                	sd	s2,400(sp)
   12c5c:	f706                	sd	ra,424(sp)
   12c5e:	e352                	sd	s4,384(sp)
   12c60:	fed6                	sd	s5,376(sp)
   12c62:	fada                	sd	s6,368(sp)
   12c64:	b43ff0ef          	jal	ra,127a6 <_ZL13keccak_absorbPmjPKhmh.constprop.3>
   12c68:	0a800913          	li	s2,168
   12c6c:	0a700793          	li	a5,167
   12c70:	0324d933          	divu	s2,s1,s2
   12c74:	0697f363          	bgeu	a5,s1,12cda <_Z8shake128PhmPKhm+0x96>
   12c78:	8b4a                	mv	s6,s2
   12c7a:	8ace                	mv	s5,s3
   12c7c:	15010a13          	addi	s4,sp,336
   12c80:	8522                	mv	a0,s0
   12c82:	f9bfe0ef          	jal	ra,11c1c <_ZL24KeccakF1600_StatePermutePm>
   12c86:	86a2                	mv	a3,s0
   12c88:	87d6                	mv	a5,s5
   12c8a:	6298                	ld	a4,0(a3)
   12c8c:	06a1                	addi	a3,a3,8
   12c8e:	07a1                	addi	a5,a5,8
   12c90:	00875e13          	srli	t3,a4,0x8
   12c94:	01075313          	srli	t1,a4,0x10
   12c98:	01875893          	srli	a7,a4,0x18
   12c9c:	02075813          	srli	a6,a4,0x20
   12ca0:	02875513          	srli	a0,a4,0x28
   12ca4:	03075593          	srli	a1,a4,0x30
   12ca8:	03875613          	srli	a2,a4,0x38
   12cac:	ffc78ca3          	sb	t3,-7(a5)
   12cb0:	fe678d23          	sb	t1,-6(a5)
   12cb4:	ff178da3          	sb	a7,-5(a5)
   12cb8:	ff078e23          	sb	a6,-4(a5)
   12cbc:	fea78ea3          	sb	a0,-3(a5)
   12cc0:	feb78f23          	sb	a1,-2(a5)
   12cc4:	fec78fa3          	sb	a2,-1(a5)
   12cc8:	fee78c23          	sb	a4,-8(a5)
   12ccc:	fada1fe3          	bne	s4,a3,12c8a <_Z8shake128PhmPKhm+0x46>
   12cd0:	1b7d                	addi	s6,s6,-1
   12cd2:	0a8a8a93          	addi	s5,s5,168
   12cd6:	fa0b15e3          	bnez	s6,12c80 <_Z8shake128PhmPKhm+0x3c>
   12cda:	0a800793          	li	a5,168
   12cde:	02f4f4b3          	remu	s1,s1,a5
   12ce2:	e899                	bnez	s1,12cf8 <_Z8shake128PhmPKhm+0xb4>
   12ce4:	70ba                	ld	ra,424(sp)
   12ce6:	741a                	ld	s0,416(sp)
   12ce8:	64fa                	ld	s1,408(sp)
   12cea:	695a                	ld	s2,400(sp)
   12cec:	69ba                	ld	s3,392(sp)
   12cee:	6a1a                	ld	s4,384(sp)
   12cf0:	7af6                	ld	s5,376(sp)
   12cf2:	7b56                	ld	s6,368(sp)
   12cf4:	615d                	addi	sp,sp,432
   12cf6:	8082                	ret
   12cf8:	8522                	mv	a0,s0
   12cfa:	f23fe0ef          	jal	ra,11c1c <_ZL24KeccakF1600_StatePermutePm>
   12cfe:	86a2                	mv	a3,s0
   12d00:	878a                	mv	a5,sp
   12d02:	6298                	ld	a4,0(a3)
   12d04:	07a1                	addi	a5,a5,8
   12d06:	06a1                	addi	a3,a3,8
   12d08:	00875e93          	srli	t4,a4,0x8
   12d0c:	01075e13          	srli	t3,a4,0x10
   12d10:	01875313          	srli	t1,a4,0x18
   12d14:	02075893          	srli	a7,a4,0x20
   12d18:	02875813          	srli	a6,a4,0x28
   12d1c:	03075513          	srli	a0,a4,0x30
   12d20:	03875593          	srli	a1,a4,0x38
   12d24:	ffd78ca3          	sb	t4,-7(a5)
   12d28:	ffc78d23          	sb	t3,-6(a5)
   12d2c:	fe678da3          	sb	t1,-5(a5)
   12d30:	ff178e23          	sb	a7,-4(a5)
   12d34:	ff078ea3          	sb	a6,-3(a5)
   12d38:	fea78f23          	sb	a0,-2(a5)
   12d3c:	feb78fa3          	sb	a1,-1(a5)
   12d40:	fee78c23          	sb	a4,-8(a5)
   12d44:	faf41fe3          	bne	s0,a5,12d02 <_Z8shake128PhmPKhm+0xbe>
   12d48:	0a800793          	li	a5,168
   12d4c:	02f90533          	mul	a0,s2,a5
   12d50:	8626                	mv	a2,s1
   12d52:	858a                	mv	a1,sp
   12d54:	954e                	add	a0,a0,s3
   12d56:	4a5060ef          	jal	ra,199fa <memcpy>
   12d5a:	b769                	j	12ce4 <_Z8shake128PhmPKhm+0xa0>

0000000000012d5c <_Z8shake256PhmPKhm>:
   12d5c:	7165                	addi	sp,sp,-400
   12d5e:	87b2                	mv	a5,a2
   12d60:	e322                	sd	s0,384(sp)
   12d62:	0120                	addi	s0,sp,136
   12d64:	fea6                	sd	s1,376(sp)
   12d66:	f6ce                	sd	s3,360(sp)
   12d68:	8636                	mv	a2,a3
   12d6a:	84ae                	mv	s1,a1
   12d6c:	89aa                	mv	s3,a0
   12d6e:	85be                	mv	a1,a5
   12d70:	46fd                	li	a3,31
   12d72:	8522                	mv	a0,s0
   12d74:	faca                	sd	s2,368(sp)
   12d76:	e706                	sd	ra,392(sp)
   12d78:	f2d2                	sd	s4,352(sp)
   12d7a:	eed6                	sd	s5,344(sp)
   12d7c:	eada                	sd	s6,336(sp)
   12d7e:	8ddff0ef          	jal	ra,1265a <_ZL13keccak_absorbPmjPKhmh.constprop.2>
   12d82:	08800913          	li	s2,136
   12d86:	08700793          	li	a5,135
   12d8a:	0324d933          	divu	s2,s1,s2
   12d8e:	0697f363          	bgeu	a5,s1,12df4 <_Z8shake256PhmPKhm+0x98>
   12d92:	8b4a                	mv	s6,s2
   12d94:	8ace                	mv	s5,s3
   12d96:	11010a13          	addi	s4,sp,272
   12d9a:	8522                	mv	a0,s0
   12d9c:	e81fe0ef          	jal	ra,11c1c <_ZL24KeccakF1600_StatePermutePm>
   12da0:	86a2                	mv	a3,s0
   12da2:	87d6                	mv	a5,s5
   12da4:	6298                	ld	a4,0(a3)
   12da6:	06a1                	addi	a3,a3,8
   12da8:	07a1                	addi	a5,a5,8
   12daa:	00875e13          	srli	t3,a4,0x8
   12dae:	01075313          	srli	t1,a4,0x10
   12db2:	01875893          	srli	a7,a4,0x18
   12db6:	02075813          	srli	a6,a4,0x20
   12dba:	02875513          	srli	a0,a4,0x28
   12dbe:	03075593          	srli	a1,a4,0x30
   12dc2:	03875613          	srli	a2,a4,0x38
   12dc6:	ffc78ca3          	sb	t3,-7(a5)
   12dca:	fe678d23          	sb	t1,-6(a5)
   12dce:	ff178da3          	sb	a7,-5(a5)
   12dd2:	ff078e23          	sb	a6,-4(a5)
   12dd6:	fea78ea3          	sb	a0,-3(a5)
   12dda:	feb78f23          	sb	a1,-2(a5)
   12dde:	fec78fa3          	sb	a2,-1(a5)
   12de2:	fee78c23          	sb	a4,-8(a5)
   12de6:	fada1fe3          	bne	s4,a3,12da4 <_Z8shake256PhmPKhm+0x48>
   12dea:	1b7d                	addi	s6,s6,-1
   12dec:	088a8a93          	addi	s5,s5,136
   12df0:	fa0b15e3          	bnez	s6,12d9a <_Z8shake256PhmPKhm+0x3e>
   12df4:	08800793          	li	a5,136
   12df8:	02f4f4b3          	remu	s1,s1,a5
   12dfc:	e899                	bnez	s1,12e12 <_Z8shake256PhmPKhm+0xb6>
   12dfe:	60ba                	ld	ra,392(sp)
   12e00:	641a                	ld	s0,384(sp)
   12e02:	74f6                	ld	s1,376(sp)
   12e04:	7956                	ld	s2,368(sp)
   12e06:	79b6                	ld	s3,360(sp)
   12e08:	7a16                	ld	s4,352(sp)
   12e0a:	6af6                	ld	s5,344(sp)
   12e0c:	6b56                	ld	s6,336(sp)
   12e0e:	6159                	addi	sp,sp,400
   12e10:	8082                	ret
   12e12:	8522                	mv	a0,s0
   12e14:	e09fe0ef          	jal	ra,11c1c <_ZL24KeccakF1600_StatePermutePm>
   12e18:	86a2                	mv	a3,s0
   12e1a:	878a                	mv	a5,sp
   12e1c:	6298                	ld	a4,0(a3)
   12e1e:	07a1                	addi	a5,a5,8
   12e20:	06a1                	addi	a3,a3,8
   12e22:	00875e93          	srli	t4,a4,0x8
   12e26:	01075e13          	srli	t3,a4,0x10
   12e2a:	01875313          	srli	t1,a4,0x18
   12e2e:	02075893          	srli	a7,a4,0x20
   12e32:	02875813          	srli	a6,a4,0x28
   12e36:	03075513          	srli	a0,a4,0x30
   12e3a:	03875593          	srli	a1,a4,0x38
   12e3e:	ffd78ca3          	sb	t4,-7(a5)
   12e42:	ffc78d23          	sb	t3,-6(a5)
   12e46:	fe678da3          	sb	t1,-5(a5)
   12e4a:	ff178e23          	sb	a7,-4(a5)
   12e4e:	ff078ea3          	sb	a6,-3(a5)
   12e52:	fea78f23          	sb	a0,-2(a5)
   12e56:	feb78fa3          	sb	a1,-1(a5)
   12e5a:	fee78c23          	sb	a4,-8(a5)
   12e5e:	faf41fe3          	bne	s0,a5,12e1c <_Z8shake256PhmPKhm+0xc0>
   12e62:	00491513          	slli	a0,s2,0x4
   12e66:	954a                	add	a0,a0,s2
   12e68:	050e                	slli	a0,a0,0x3
   12e6a:	8626                	mv	a2,s1
   12e6c:	858a                	mv	a1,sp
   12e6e:	954e                	add	a0,a0,s3
   12e70:	38b060ef          	jal	ra,199fa <memcpy>
   12e74:	b769                	j	12dfe <_Z8shake256PhmPKhm+0xa2>

0000000000012e76 <_Z17sha3_256_inc_initP14sha3_256incctx>:
   12e76:	1141                	addi	sp,sp,-16
   12e78:	0c800613          	li	a2,200
   12e7c:	4581                	li	a1,0
   12e7e:	e022                	sd	s0,0(sp)
   12e80:	e406                	sd	ra,8(sp)
   12e82:	842a                	mv	s0,a0
   12e84:	4bd060ef          	jal	ra,19b40 <memset>
   12e88:	60a2                	ld	ra,8(sp)
   12e8a:	0c043423          	sd	zero,200(s0)
   12e8e:	6402                	ld	s0,0(sp)
   12e90:	0141                	addi	sp,sp,16
   12e92:	8082                	ret

0000000000012e94 <_Z19sha3_256_inc_absorbP14sha3_256incctxPKhm>:
   12e94:	86b2                	mv	a3,a2
   12e96:	862e                	mv	a2,a1
   12e98:	08800593          	li	a1,136
   12e9c:	ef8ff06f          	j	12594 <_ZL17keccak_inc_absorbPmjPKhm>

0000000000012ea0 <_Z21sha3_256_inc_finalizePhP14sha3_256incctx>:
   12ea0:	65fc                	ld	a5,200(a1)
   12ea2:	7171                	addi	sp,sp,-176
   12ea4:	ed26                	sd	s1,152(sp)
   12ea6:	ff87f713          	andi	a4,a5,-8
   12eaa:	972e                	add	a4,a4,a1
   12eac:	6310                	ld	a2,0(a4)
   12eae:	8b9d                	andi	a5,a5,7
   12eb0:	84ae                	mv	s1,a1
   12eb2:	078e                	slli	a5,a5,0x3
   12eb4:	4599                	li	a1,6
   12eb6:	00f597b3          	sll	a5,a1,a5
   12eba:	f122                	sd	s0,160(sp)
   12ebc:	f506                	sd	ra,168(sp)
   12ebe:	8fb1                	xor	a5,a5,a2
   12ec0:	e31c                	sd	a5,0(a4)
   12ec2:	60dc                	ld	a5,128(s1)
   12ec4:	577d                	li	a4,-1
   12ec6:	177e                	slli	a4,a4,0x3f
   12ec8:	8fb9                	xor	a5,a5,a4
   12eca:	e0dc                	sd	a5,128(s1)
   12ecc:	842a                	mv	s0,a0
   12ece:	0c04b423          	sd	zero,200(s1)
   12ed2:	8526                	mv	a0,s1
   12ed4:	d49fe0ef          	jal	ra,11c1c <_ZL24KeccakF1600_StatePermutePm>
   12ed8:	86a6                	mv	a3,s1
   12eda:	003c                	addi	a5,sp,8
   12edc:	09010e93          	addi	t4,sp,144
   12ee0:	6298                	ld	a4,0(a3)
   12ee2:	07a1                	addi	a5,a5,8
   12ee4:	06a1                	addi	a3,a3,8
   12ee6:	00875e13          	srli	t3,a4,0x8
   12eea:	01075313          	srli	t1,a4,0x10
   12eee:	01875893          	srli	a7,a4,0x18
   12ef2:	02075813          	srli	a6,a4,0x20
   12ef6:	02875513          	srli	a0,a4,0x28
   12efa:	03075593          	srli	a1,a4,0x30
   12efe:	03875613          	srli	a2,a4,0x38
   12f02:	ffc78ca3          	sb	t3,-7(a5)
   12f06:	fe678d23          	sb	t1,-6(a5)
   12f0a:	ff178da3          	sb	a7,-5(a5)
   12f0e:	ff078e23          	sb	a6,-4(a5)
   12f12:	fea78ea3          	sb	a0,-3(a5)
   12f16:	feb78f23          	sb	a1,-2(a5)
   12f1a:	fec78fa3          	sb	a2,-1(a5)
   12f1e:	fee78c23          	sb	a4,-8(a5)
   12f22:	fbd79fe3          	bne	a5,t4,12ee0 <_Z21sha3_256_inc_finalizePhP14sha3_256incctx+0x40>
   12f26:	002c                	addi	a1,sp,8
   12f28:	8522                	mv	a0,s0
   12f2a:	02000613          	li	a2,32
   12f2e:	2cd060ef          	jal	ra,199fa <memcpy>
   12f32:	70aa                	ld	ra,168(sp)
   12f34:	740a                	ld	s0,160(sp)
   12f36:	64ea                	ld	s1,152(sp)
   12f38:	614d                	addi	sp,sp,176
   12f3a:	8082                	ret

0000000000012f3c <_Z8sha3_256PhPKhm>:
   12f3c:	7149                	addi	sp,sp,-368
   12f3e:	f2a2                	sd	s0,352(sp)
   12f40:	0120                	addi	s0,sp,136
   12f42:	4699                	li	a3,6
   12f44:	eea6                	sd	s1,344(sp)
   12f46:	84aa                	mv	s1,a0
   12f48:	8522                	mv	a0,s0
   12f4a:	f686                	sd	ra,360(sp)
   12f4c:	f0eff0ef          	jal	ra,1265a <_ZL13keccak_absorbPmjPKhmh.constprop.2>
   12f50:	8522                	mv	a0,s0
   12f52:	ccbfe0ef          	jal	ra,11c1c <_ZL24KeccakF1600_StatePermutePm>
   12f56:	86a2                	mv	a3,s0
   12f58:	878a                	mv	a5,sp
   12f5a:	6298                	ld	a4,0(a3)
   12f5c:	07a1                	addi	a5,a5,8
   12f5e:	06a1                	addi	a3,a3,8
   12f60:	00875e13          	srli	t3,a4,0x8
   12f64:	01075313          	srli	t1,a4,0x10
   12f68:	01875893          	srli	a7,a4,0x18
   12f6c:	02075813          	srli	a6,a4,0x20
   12f70:	02875513          	srli	a0,a4,0x28
   12f74:	03075593          	srli	a1,a4,0x30
   12f78:	03875613          	srli	a2,a4,0x38
   12f7c:	ffc78ca3          	sb	t3,-7(a5)
   12f80:	fe678d23          	sb	t1,-6(a5)
   12f84:	ff178da3          	sb	a7,-5(a5)
   12f88:	ff078e23          	sb	a6,-4(a5)
   12f8c:	fea78ea3          	sb	a0,-3(a5)
   12f90:	feb78f23          	sb	a1,-2(a5)
   12f94:	fec78fa3          	sb	a2,-1(a5)
   12f98:	fee78c23          	sb	a4,-8(a5)
   12f9c:	faf41fe3          	bne	s0,a5,12f5a <_Z8sha3_256PhPKhm+0x1e>
   12fa0:	858a                	mv	a1,sp
   12fa2:	8526                	mv	a0,s1
   12fa4:	02000613          	li	a2,32
   12fa8:	253060ef          	jal	ra,199fa <memcpy>
   12fac:	70b6                	ld	ra,360(sp)
   12fae:	7416                	ld	s0,352(sp)
   12fb0:	64f6                	ld	s1,344(sp)
   12fb2:	6175                	addi	sp,sp,368
   12fb4:	8082                	ret

0000000000012fb6 <_Z17sha3_384_inc_initP14sha3_384incctx>:
   12fb6:	1141                	addi	sp,sp,-16
   12fb8:	0c800613          	li	a2,200
   12fbc:	4581                	li	a1,0
   12fbe:	e022                	sd	s0,0(sp)
   12fc0:	e406                	sd	ra,8(sp)
   12fc2:	842a                	mv	s0,a0
   12fc4:	37d060ef          	jal	ra,19b40 <memset>
   12fc8:	60a2                	ld	ra,8(sp)
   12fca:	0c043423          	sd	zero,200(s0)
   12fce:	6402                	ld	s0,0(sp)
   12fd0:	0141                	addi	sp,sp,16
   12fd2:	8082                	ret

0000000000012fd4 <_Z19sha3_384_inc_absorbP14sha3_384incctxPKhm>:
   12fd4:	86b2                	mv	a3,a2
   12fd6:	862e                	mv	a2,a1
   12fd8:	06800593          	li	a1,104
   12fdc:	db8ff06f          	j	12594 <_ZL17keccak_inc_absorbPmjPKhm>

0000000000012fe0 <_Z21sha3_384_inc_finalizePhP14sha3_384incctx>:
   12fe0:	65fc                	ld	a5,200(a1)
   12fe2:	7175                	addi	sp,sp,-144
   12fe4:	fca6                	sd	s1,120(sp)
   12fe6:	ff87f713          	andi	a4,a5,-8
   12fea:	972e                	add	a4,a4,a1
   12fec:	6310                	ld	a2,0(a4)
   12fee:	8b9d                	andi	a5,a5,7
   12ff0:	84ae                	mv	s1,a1
   12ff2:	078e                	slli	a5,a5,0x3
   12ff4:	4599                	li	a1,6
   12ff6:	00f597b3          	sll	a5,a1,a5
   12ffa:	e122                	sd	s0,128(sp)
   12ffc:	e506                	sd	ra,136(sp)
   12ffe:	8fb1                	xor	a5,a5,a2
   13000:	e31c                	sd	a5,0(a4)
   13002:	70bc                	ld	a5,96(s1)
   13004:	577d                	li	a4,-1
   13006:	177e                	slli	a4,a4,0x3f
   13008:	8fb9                	xor	a5,a5,a4
   1300a:	f0bc                	sd	a5,96(s1)
   1300c:	842a                	mv	s0,a0
   1300e:	0c04b423          	sd	zero,200(s1)
   13012:	8526                	mv	a0,s1
   13014:	c09fe0ef          	jal	ra,11c1c <_ZL24KeccakF1600_StatePermutePm>
   13018:	86a6                	mv	a3,s1
   1301a:	003c                	addi	a5,sp,8
   1301c:	07010e93          	addi	t4,sp,112
   13020:	6298                	ld	a4,0(a3)
   13022:	07a1                	addi	a5,a5,8
   13024:	06a1                	addi	a3,a3,8
   13026:	00875e13          	srli	t3,a4,0x8
   1302a:	01075313          	srli	t1,a4,0x10
   1302e:	01875893          	srli	a7,a4,0x18
   13032:	02075813          	srli	a6,a4,0x20
   13036:	02875513          	srli	a0,a4,0x28
   1303a:	03075593          	srli	a1,a4,0x30
   1303e:	03875613          	srli	a2,a4,0x38
   13042:	ffc78ca3          	sb	t3,-7(a5)
   13046:	fe678d23          	sb	t1,-6(a5)
   1304a:	ff178da3          	sb	a7,-5(a5)
   1304e:	ff078e23          	sb	a6,-4(a5)
   13052:	fea78ea3          	sb	a0,-3(a5)
   13056:	feb78f23          	sb	a1,-2(a5)
   1305a:	fec78fa3          	sb	a2,-1(a5)
   1305e:	fee78c23          	sb	a4,-8(a5)
   13062:	fbd79fe3          	bne	a5,t4,13020 <_Z21sha3_384_inc_finalizePhP14sha3_384incctx+0x40>
   13066:	002c                	addi	a1,sp,8
   13068:	8522                	mv	a0,s0
   1306a:	03000613          	li	a2,48
   1306e:	18d060ef          	jal	ra,199fa <memcpy>
   13072:	60aa                	ld	ra,136(sp)
   13074:	640a                	ld	s0,128(sp)
   13076:	74e6                	ld	s1,120(sp)
   13078:	6149                	addi	sp,sp,144
   1307a:	8082                	ret

000000000001307c <_Z8sha3_384PhPKhm>:
   1307c:	7121                	addi	sp,sp,-448
   1307e:	f726                	sd	s1,424(sp)
   13080:	f34a                	sd	s2,416(sp)
   13082:	eb52                	sd	s4,400(sp)
   13084:	892e                	mv	s2,a1
   13086:	8a2a                	mv	s4,a0
   13088:	84b2                	mv	s1,a2
   1308a:	4581                	li	a1,0
   1308c:	0c800613          	li	a2,200
   13090:	850a                	mv	a0,sp
   13092:	fb22                	sd	s0,432(sp)
   13094:	ef4e                	sd	s3,408(sp)
   13096:	ff06                	sd	ra,440(sp)
   13098:	2a9060ef          	jal	ra,19b40 <memset>
   1309c:	06700793          	li	a5,103
   130a0:	06810993          	addi	s3,sp,104
   130a4:	06700413          	li	s0,103
   130a8:	0697f863          	bgeu	a5,s1,13118 <_Z8sha3_384PhPKhm+0x9c>
   130ac:	87ca                	mv	a5,s2
   130ae:	888a                	mv	a7,sp
   130b0:	0017c703          	lbu	a4,1(a5)
   130b4:	0027c683          	lbu	a3,2(a5)
   130b8:	0007c303          	lbu	t1,0(a5)
   130bc:	0037c803          	lbu	a6,3(a5)
   130c0:	0047c503          	lbu	a0,4(a5)
   130c4:	06c2                	slli	a3,a3,0x10
   130c6:	0722                	slli	a4,a4,0x8
   130c8:	0057c583          	lbu	a1,5(a5)
   130cc:	8f55                	or	a4,a4,a3
   130ce:	0067c603          	lbu	a2,6(a5)
   130d2:	00676733          	or	a4,a4,t1
   130d6:	0862                	slli	a6,a6,0x18
   130d8:	0077c683          	lbu	a3,7(a5)
   130dc:	00e86733          	or	a4,a6,a4
   130e0:	1502                	slli	a0,a0,0x20
   130e2:	8d59                	or	a0,a0,a4
   130e4:	02859713          	slli	a4,a1,0x28
   130e8:	8f49                	or	a4,a4,a0
   130ea:	0008b583          	ld	a1,0(a7)
   130ee:	1642                	slli	a2,a2,0x30
   130f0:	8e59                	or	a2,a2,a4
   130f2:	03869713          	slli	a4,a3,0x38
   130f6:	8f51                	or	a4,a4,a2
   130f8:	8f2d                	xor	a4,a4,a1
   130fa:	00e8b023          	sd	a4,0(a7)
   130fe:	08a1                	addi	a7,a7,8
   13100:	07a1                	addi	a5,a5,8
   13102:	fb1997e3          	bne	s3,a7,130b0 <_Z8sha3_384PhPKhm+0x34>
   13106:	850a                	mv	a0,sp
   13108:	f9848493          	addi	s1,s1,-104
   1310c:	b11fe0ef          	jal	ra,11c1c <_ZL24KeccakF1600_StatePermutePm>
   13110:	06890913          	addi	s2,s2,104
   13114:	f8946ce3          	bltu	s0,s1,130ac <_Z8sha3_384PhPKhm+0x30>
   13118:	e582                	sd	zero,200(sp)
   1311a:	e982                	sd	zero,208(sp)
   1311c:	ed82                	sd	zero,216(sp)
   1311e:	f182                	sd	zero,224(sp)
   13120:	f582                	sd	zero,232(sp)
   13122:	f982                	sd	zero,240(sp)
   13124:	fd82                	sd	zero,248(sp)
   13126:	e202                	sd	zero,256(sp)
   13128:	e602                	sd	zero,264(sp)
   1312a:	ea02                	sd	zero,272(sp)
   1312c:	ee02                	sd	zero,280(sp)
   1312e:	f202                	sd	zero,288(sp)
   13130:	f602                	sd	zero,296(sp)
   13132:	c491                	beqz	s1,1313e <_Z8sha3_384PhPKhm+0xc2>
   13134:	8626                	mv	a2,s1
   13136:	85ca                	mv	a1,s2
   13138:	01a8                	addi	a0,sp,200
   1313a:	0c1060ef          	jal	ra,199fa <memcpy>
   1313e:	19048793          	addi	a5,s1,400
   13142:	002784b3          	add	s1,a5,sp
   13146:	4799                	li	a5,6
   13148:	f2f48c23          	sb	a5,-200(s1)
   1314c:	12f14703          	lbu	a4,303(sp)
   13150:	01bc                	addi	a5,sp,200
   13152:	840a                	mv	s0,sp
   13154:	f8076713          	ori	a4,a4,-128
   13158:	12e107a3          	sb	a4,303(sp)
   1315c:	1a04                	addi	s1,sp,304
   1315e:	888a                	mv	a7,sp
   13160:	0017c703          	lbu	a4,1(a5)
   13164:	0027c683          	lbu	a3,2(a5)
   13168:	0007c303          	lbu	t1,0(a5)
   1316c:	0037c803          	lbu	a6,3(a5)
   13170:	0047c503          	lbu	a0,4(a5)
   13174:	06c2                	slli	a3,a3,0x10
   13176:	0722                	slli	a4,a4,0x8
   13178:	0057c583          	lbu	a1,5(a5)
   1317c:	8f55                	or	a4,a4,a3
   1317e:	0067c603          	lbu	a2,6(a5)
   13182:	00676733          	or	a4,a4,t1
   13186:	0862                	slli	a6,a6,0x18
   13188:	0077c683          	lbu	a3,7(a5)
   1318c:	00e86733          	or	a4,a6,a4
   13190:	1502                	slli	a0,a0,0x20
   13192:	8d59                	or	a0,a0,a4
   13194:	02859713          	slli	a4,a1,0x28
   13198:	8f49                	or	a4,a4,a0
   1319a:	0008b583          	ld	a1,0(a7)
   1319e:	1642                	slli	a2,a2,0x30
   131a0:	8e59                	or	a2,a2,a4
   131a2:	03869713          	slli	a4,a3,0x38
   131a6:	8f51                	or	a4,a4,a2
   131a8:	8f2d                	xor	a4,a4,a1
   131aa:	00e8b023          	sd	a4,0(a7)
   131ae:	07a1                	addi	a5,a5,8
   131b0:	08a1                	addi	a7,a7,8
   131b2:	fa9797e3          	bne	a5,s1,13160 <_Z8sha3_384PhPKhm+0xe4>
   131b6:	850a                	mv	a0,sp
   131b8:	a65fe0ef          	jal	ra,11c1c <_ZL24KeccakF1600_StatePermutePm>
   131bc:	01bc                	addi	a5,sp,200
   131be:	6018                	ld	a4,0(s0)
   131c0:	07a1                	addi	a5,a5,8
   131c2:	0421                	addi	s0,s0,8
   131c4:	00875313          	srli	t1,a4,0x8
   131c8:	01075893          	srli	a7,a4,0x10
   131cc:	01875813          	srli	a6,a4,0x18
   131d0:	02075513          	srli	a0,a4,0x20
   131d4:	02875593          	srli	a1,a4,0x28
   131d8:	03075613          	srli	a2,a4,0x30
   131dc:	03875693          	srli	a3,a4,0x38
   131e0:	fe678ca3          	sb	t1,-7(a5)
   131e4:	ff178d23          	sb	a7,-6(a5)
   131e8:	ff078da3          	sb	a6,-5(a5)
   131ec:	fea78e23          	sb	a0,-4(a5)
   131f0:	feb78ea3          	sb	a1,-3(a5)
   131f4:	fec78f23          	sb	a2,-2(a5)
   131f8:	fed78fa3          	sb	a3,-1(a5)
   131fc:	fee78c23          	sb	a4,-8(a5)
   13200:	fa979fe3          	bne	a5,s1,131be <_Z8sha3_384PhPKhm+0x142>
   13204:	01ac                	addi	a1,sp,200
   13206:	8552                	mv	a0,s4
   13208:	03000613          	li	a2,48
   1320c:	7ee060ef          	jal	ra,199fa <memcpy>
   13210:	70fa                	ld	ra,440(sp)
   13212:	745a                	ld	s0,432(sp)
   13214:	74ba                	ld	s1,424(sp)
   13216:	791a                	ld	s2,416(sp)
   13218:	69fa                	ld	s3,408(sp)
   1321a:	6a5a                	ld	s4,400(sp)
   1321c:	6139                	addi	sp,sp,448
   1321e:	8082                	ret

0000000000013220 <_Z17sha3_512_inc_initP14sha3_512incctx>:
   13220:	1141                	addi	sp,sp,-16
   13222:	0c800613          	li	a2,200
   13226:	4581                	li	a1,0
   13228:	e022                	sd	s0,0(sp)
   1322a:	e406                	sd	ra,8(sp)
   1322c:	842a                	mv	s0,a0
   1322e:	113060ef          	jal	ra,19b40 <memset>
   13232:	60a2                	ld	ra,8(sp)
   13234:	0c043423          	sd	zero,200(s0)
   13238:	6402                	ld	s0,0(sp)
   1323a:	0141                	addi	sp,sp,16
   1323c:	8082                	ret

000000000001323e <_Z19sha3_512_inc_absorbP14sha3_512incctxPKhm>:
   1323e:	86b2                	mv	a3,a2
   13240:	862e                	mv	a2,a1
   13242:	04800593          	li	a1,72
   13246:	b4eff06f          	j	12594 <_ZL17keccak_inc_absorbPmjPKhm>

000000000001324a <_Z21sha3_512_inc_finalizePhP14sha3_512incctx>:
   1324a:	65fc                	ld	a5,200(a1)
   1324c:	4619                	li	a2,6
   1324e:	7159                	addi	sp,sp,-112
   13250:	ff87f713          	andi	a4,a5,-8
   13254:	972e                	add	a4,a4,a1
   13256:	6314                	ld	a3,0(a4)
   13258:	8b9d                	andi	a5,a5,7
   1325a:	078e                	slli	a5,a5,0x3
   1325c:	00f617b3          	sll	a5,a2,a5
   13260:	f0a2                	sd	s0,96(sp)
   13262:	eca6                	sd	s1,88(sp)
   13264:	e8ca                	sd	s2,80(sp)
   13266:	f486                	sd	ra,104(sp)
   13268:	8fb5                	xor	a5,a5,a3
   1326a:	e31c                	sd	a5,0(a4)
   1326c:	61bc                	ld	a5,64(a1)
   1326e:	56fd                	li	a3,-1
   13270:	16fe                	slli	a3,a3,0x3f
   13272:	8fb5                	xor	a5,a5,a3
   13274:	e1bc                	sd	a5,64(a1)
   13276:	892a                	mv	s2,a0
   13278:	0c05b423          	sd	zero,200(a1)
   1327c:	852e                	mv	a0,a1
   1327e:	842e                	mv	s0,a1
   13280:	99dfe0ef          	jal	ra,11c1c <_ZL24KeccakF1600_StatePermutePm>
   13284:	6014                	ld	a3,0(s0)
   13286:	7c10                	ld	a2,56(s0)
   13288:	603c                	ld	a5,64(s0)
   1328a:	00843e03          	ld	t3,8(s0)
   1328e:	01043303          	ld	t1,16(s0)
   13292:	01843883          	ld	a7,24(s0)
   13296:	02043803          	ld	a6,32(s0)
   1329a:	7408                	ld	a0,40(s0)
   1329c:	780c                	ld	a1,48(s0)
   1329e:	0086d493          	srli	s1,a3,0x8
   132a2:	0106d413          	srli	s0,a3,0x10
   132a6:	0186d393          	srli	t2,a3,0x18
   132aa:	0206d293          	srli	t0,a3,0x20
   132ae:	0286df93          	srli	t6,a3,0x28
   132b2:	0306df13          	srli	t5,a3,0x30
   132b6:	0386de93          	srli	t4,a3,0x38
   132ba:	e0b2                	sd	a2,64(sp)
   132bc:	04f10423          	sb	a5,72(sp)
   132c0:	0ff6f693          	zext.b	a3,a3
   132c4:	009104a3          	sb	s1,9(sp)
   132c8:	00810523          	sb	s0,10(sp)
   132cc:	007105a3          	sb	t2,11(sp)
   132d0:	00510623          	sb	t0,12(sp)
   132d4:	01f106a3          	sb	t6,13(sp)
   132d8:	01e10723          	sb	t5,14(sp)
   132dc:	01d107a3          	sb	t4,15(sp)
   132e0:	e872                	sd	t3,16(sp)
   132e2:	ec1a                	sd	t1,24(sp)
   132e4:	f046                	sd	a7,32(sp)
   132e6:	f442                	sd	a6,40(sp)
   132e8:	f82a                	sd	a0,48(sp)
   132ea:	fc2e                	sd	a1,56(sp)
   132ec:	874a                	mv	a4,s2
   132ee:	00910793          	addi	a5,sp,9
   132f2:	00b0                	addi	a2,sp,72
   132f4:	a021                	j	132fc <_Z21sha3_512_inc_finalizePhP14sha3_512incctx+0xb2>
   132f6:	0007c683          	lbu	a3,0(a5)
   132fa:	0785                	addi	a5,a5,1
   132fc:	00d70023          	sb	a3,0(a4)
   13300:	0705                	addi	a4,a4,1
   13302:	fec79ae3          	bne	a5,a2,132f6 <_Z21sha3_512_inc_finalizePhP14sha3_512incctx+0xac>
   13306:	70a6                	ld	ra,104(sp)
   13308:	7406                	ld	s0,96(sp)
   1330a:	64e6                	ld	s1,88(sp)
   1330c:	6946                	ld	s2,80(sp)
   1330e:	6165                	addi	sp,sp,112
   13310:	8082                	ret

0000000000013312 <_Z8sha3_512PhPKhm>:
   13312:	7145                	addi	sp,sp,-464
   13314:	87ae                	mv	a5,a1
   13316:	e3a2                	sd	s0,448(sp)
   13318:	fb4a                	sd	s2,432(sp)
   1331a:	842a                	mv	s0,a0
   1331c:	8932                	mv	s2,a2
   1331e:	4581                	li	a1,0
   13320:	0c800613          	li	a2,200
   13324:	0808                	addi	a0,sp,16
   13326:	e43e                	sd	a5,8(sp)
   13328:	e786                	sd	ra,456(sp)
   1332a:	ff26                	sd	s1,440(sp)
   1332c:	f74e                	sd	s3,424(sp)
   1332e:	f352                	sd	s4,416(sp)
   13330:	011060ef          	jal	ra,19b40 <memset>
   13334:	04700713          	li	a4,71
   13338:	67a2                	ld	a5,8(sp)
   1333a:	09277163          	bgeu	a4,s2,133bc <_Z8sha3_512PhPKhm+0xaa>
   1333e:	04878a13          	addi	s4,a5,72
   13342:	89d2                	mv	s3,s4
   13344:	04700493          	li	s1,71
   13348:	01010893          	addi	a7,sp,16
   1334c:	0017c703          	lbu	a4,1(a5)
   13350:	0027c683          	lbu	a3,2(a5)
   13354:	0007c303          	lbu	t1,0(a5)
   13358:	0037c803          	lbu	a6,3(a5)
   1335c:	0047c503          	lbu	a0,4(a5)
   13360:	06c2                	slli	a3,a3,0x10
   13362:	0722                	slli	a4,a4,0x8
   13364:	0057c583          	lbu	a1,5(a5)
   13368:	8f55                	or	a4,a4,a3
   1336a:	0067c603          	lbu	a2,6(a5)
   1336e:	00676733          	or	a4,a4,t1
   13372:	0862                	slli	a6,a6,0x18
   13374:	0077c683          	lbu	a3,7(a5)
   13378:	00e86733          	or	a4,a6,a4
   1337c:	1502                	slli	a0,a0,0x20
   1337e:	8d59                	or	a0,a0,a4
   13380:	02859713          	slli	a4,a1,0x28
   13384:	8f49                	or	a4,a4,a0
   13386:	0008b583          	ld	a1,0(a7)
   1338a:	1642                	slli	a2,a2,0x30
   1338c:	8e59                	or	a2,a2,a4
   1338e:	03869713          	slli	a4,a3,0x38
   13392:	8f51                	or	a4,a4,a2
   13394:	8f2d                	xor	a4,a4,a1
   13396:	00e8b023          	sd	a4,0(a7)
   1339a:	07a1                	addi	a5,a5,8
   1339c:	08a1                	addi	a7,a7,8
   1339e:	faf997e3          	bne	s3,a5,1334c <_Z8sha3_512PhPKhm+0x3a>
   133a2:	0808                	addi	a0,sp,16
   133a4:	879fe0ef          	jal	ra,11c1c <_ZL24KeccakF1600_StatePermutePm>
   133a8:	fb890913          	addi	s2,s2,-72
   133ac:	87d2                	mv	a5,s4
   133ae:	04898993          	addi	s3,s3,72
   133b2:	0124f563          	bgeu	s1,s2,133bc <_Z8sha3_512PhPKhm+0xaa>
   133b6:	048a0a13          	addi	s4,s4,72
   133ba:	b779                	j	13348 <_Z8sha3_512PhPKhm+0x36>
   133bc:	ed82                	sd	zero,216(sp)
   133be:	f182                	sd	zero,224(sp)
   133c0:	f582                	sd	zero,232(sp)
   133c2:	f982                	sd	zero,240(sp)
   133c4:	fd82                	sd	zero,248(sp)
   133c6:	e202                	sd	zero,256(sp)
   133c8:	e602                	sd	zero,264(sp)
   133ca:	ea02                	sd	zero,272(sp)
   133cc:	ee02                	sd	zero,280(sp)
   133ce:	00090763          	beqz	s2,133dc <_Z8sha3_512PhPKhm+0xca>
   133d2:	864a                	mv	a2,s2
   133d4:	85be                	mv	a1,a5
   133d6:	09a8                	addi	a0,sp,216
   133d8:	622060ef          	jal	ra,199fa <memcpy>
   133dc:	19090793          	addi	a5,s2,400
   133e0:	0818                	addi	a4,sp,16
   133e2:	00e78933          	add	s2,a5,a4
   133e6:	4799                	li	a5,6
   133e8:	f2f90c23          	sb	a5,-200(s2)
   133ec:	11f14703          	lbu	a4,287(sp)
   133f0:	09bc                	addi	a5,sp,216
   133f2:	01010893          	addi	a7,sp,16
   133f6:	f8076713          	ori	a4,a4,-128
   133fa:	10e10fa3          	sb	a4,287(sp)
   133fe:	12010e13          	addi	t3,sp,288
   13402:	0017c703          	lbu	a4,1(a5)
   13406:	0027c683          	lbu	a3,2(a5)
   1340a:	0007c303          	lbu	t1,0(a5)
   1340e:	0037c803          	lbu	a6,3(a5)
   13412:	0047c503          	lbu	a0,4(a5)
   13416:	06c2                	slli	a3,a3,0x10
   13418:	0722                	slli	a4,a4,0x8
   1341a:	0057c583          	lbu	a1,5(a5)
   1341e:	8f55                	or	a4,a4,a3
   13420:	0067c603          	lbu	a2,6(a5)
   13424:	00676733          	or	a4,a4,t1
   13428:	0862                	slli	a6,a6,0x18
   1342a:	0077c683          	lbu	a3,7(a5)
   1342e:	00e86733          	or	a4,a6,a4
   13432:	1502                	slli	a0,a0,0x20
   13434:	8d59                	or	a0,a0,a4
   13436:	02859713          	slli	a4,a1,0x28
   1343a:	8f49                	or	a4,a4,a0
   1343c:	0008b583          	ld	a1,0(a7)
   13440:	1642                	slli	a2,a2,0x30
   13442:	8e59                	or	a2,a2,a4
   13444:	03869713          	slli	a4,a3,0x38
   13448:	8f51                	or	a4,a4,a2
   1344a:	8f2d                	xor	a4,a4,a1
   1344c:	00e8b023          	sd	a4,0(a7)
   13450:	07a1                	addi	a5,a5,8
   13452:	08a1                	addi	a7,a7,8
   13454:	fbc797e3          	bne	a5,t3,13402 <_Z8sha3_512PhPKhm+0xf0>
   13458:	0808                	addi	a0,sp,16
   1345a:	fc2fe0ef          	jal	ra,11c1c <_ZL24KeccakF1600_StatePermutePm>
   1345e:	6742                	ld	a4,16(sp)
   13460:	03875793          	srli	a5,a4,0x38
   13464:	0cf10fa3          	sb	a5,223(sp)
   13468:	67e2                	ld	a5,24(sp)
   1346a:	03075693          	srli	a3,a4,0x30
   1346e:	00875893          	srli	a7,a4,0x8
   13472:	f1be                	sd	a5,224(sp)
   13474:	7782                	ld	a5,32(sp)
   13476:	01075813          	srli	a6,a4,0x10
   1347a:	01875513          	srli	a0,a4,0x18
   1347e:	f5be                	sd	a5,232(sp)
   13480:	77a2                	ld	a5,40(sp)
   13482:	02075593          	srli	a1,a4,0x20
   13486:	02875613          	srli	a2,a4,0x28
   1348a:	f9be                	sd	a5,240(sp)
   1348c:	77c2                	ld	a5,48(sp)
   1348e:	0cd10f23          	sb	a3,222(sp)
   13492:	0ff77713          	zext.b	a4,a4
   13496:	fdbe                	sd	a5,248(sp)
   13498:	77e2                	ld	a5,56(sp)
   1349a:	0d110ca3          	sb	a7,217(sp)
   1349e:	0d010d23          	sb	a6,218(sp)
   134a2:	e23e                	sd	a5,256(sp)
   134a4:	6786                	ld	a5,64(sp)
   134a6:	0ca10da3          	sb	a0,219(sp)
   134aa:	0cb10e23          	sb	a1,220(sp)
   134ae:	e63e                	sd	a5,264(sp)
   134b0:	67a6                	ld	a5,72(sp)
   134b2:	0cc10ea3          	sb	a2,221(sp)
   134b6:	0a34                	addi	a3,sp,280
   134b8:	ea3e                	sd	a5,272(sp)
   134ba:	67c6                	ld	a5,80(sp)
   134bc:	10f10c23          	sb	a5,280(sp)
   134c0:	0d910793          	addi	a5,sp,217
   134c4:	a021                	j	134cc <_Z8sha3_512PhPKhm+0x1ba>
   134c6:	0007c703          	lbu	a4,0(a5)
   134ca:	0785                	addi	a5,a5,1
   134cc:	00e40023          	sb	a4,0(s0)
   134d0:	0405                	addi	s0,s0,1
   134d2:	fed79ae3          	bne	a5,a3,134c6 <_Z8sha3_512PhPKhm+0x1b4>
   134d6:	60be                	ld	ra,456(sp)
   134d8:	641e                	ld	s0,448(sp)
   134da:	74fa                	ld	s1,440(sp)
   134dc:	795a                	ld	s2,432(sp)
   134de:	79ba                	ld	s3,424(sp)
   134e0:	7a1a                	ld	s4,416(sp)
   134e2:	6179                	addi	sp,sp,464
   134e4:	8082                	ret

00000000000134e6 <_Z20keccak_absorb_customPKhij>:
   134e6:	0c00005b          	keccak.init	0
   134ea:	0205c563          	bltz	a1,13514 <_Z20keccak_absorb_customPKhij+0x2e>
   134ee:	8732                	mv	a4,a2
   134f0:	87ae                	mv	a5,a1
   134f2:	00b67363          	bgeu	a2,a1,134f8 <_Z20keccak_absorb_customPKhij+0x12>
   134f6:	87ba                	mv	a5,a4
   134f8:	1782                	slli	a5,a5,0x20
   134fa:	9381                	srli	a5,a5,0x20
   134fc:	0437f7d7          	vsetvli	a5,a5,e8,m8,ta,mu
   13500:	02050c07          	vle8.v	v24,(a0)
   13504:	0780105b          	keccak.loadm.v	v24
   13508:	953e                	add	a0,a0,a5
   1350a:	1005e5db          	keccak.absorb	a1,a1
   1350e:	2581                	sext.w	a1,a1
   13510:	fe05d0e3          	bgez	a1,134f0 <_Z20keccak_absorb_customPKhij+0xa>
   13514:	8082                	ret

0000000000013516 <_Z27keccak_squeezeblocks_customPhmjb>:
   13516:	c18d                	beqz	a1,13538 <_Z27keccak_squeezeblocks_customPhmjb+0x22>
   13518:	1602                	slli	a2,a2,0x20
   1351a:	9201                	srli	a2,a2,0x20
   1351c:	043677d7          	vsetvli	a5,a2,e8,m8,ta,mu
   13520:	c299                	beqz	a3,13526 <_Z27keccak_squeezeblocks_customPhmjb+0x10>
   13522:	1400005b          	keccak.squeeze	0
   13526:	0a004c5b          	keccak.stores.v	v24
   1352a:	0437f057          	vsetvli	zero,a5,e8,m8,ta,mu
   1352e:	15fd                	addi	a1,a1,-1
   13530:	02050c27          	vse8.v	v24,(a0)
   13534:	9532                	add	a0,a0,a2
   13536:	f5f5                	bnez	a1,13522 <_Z27keccak_squeezeblocks_customPhmjb+0xc>
   13538:	8082                	ret

000000000001353a <_Z15shake128_customPhmPKhm>:
   1353a:	7131                	addi	sp,sp,-192
   1353c:	0a800893          	li	a7,168
   13540:	0315d8b3          	divu	a7,a1,a7
   13544:	fd06                	sd	ra,184(sp)
   13546:	882e                	mv	a6,a1
   13548:	4781                	li	a5,0
   1354a:	00f167db          	pqccsrrw	a5,a5,2
   1354e:	2681                	sext.w	a3,a3
   13550:	0c00005b          	keccak.init	0
   13554:	0206c763          	bltz	a3,13582 <_Z15shake128_customPhmPKhm+0x48>
   13558:	0a800713          	li	a4,168
   1355c:	87b6                	mv	a5,a3
   1355e:	00d77463          	bgeu	a4,a3,13566 <_Z15shake128_customPhmPKhm+0x2c>
   13562:	0a800793          	li	a5,168
   13566:	1782                	slli	a5,a5,0x20
   13568:	9381                	srli	a5,a5,0x20
   1356a:	0437f7d7          	vsetvli	a5,a5,e8,m8,ta,mu
   1356e:	02060c07          	vle8.v	v24,(a2)
   13572:	0780105b          	keccak.loadm.v	v24
   13576:	963e                	add	a2,a2,a5
   13578:	1006e6db          	keccak.absorb	a3,a3
   1357c:	2681                	sext.w	a3,a3
   1357e:	fc06dfe3          	bgez	a3,1355c <_Z15shake128_customPhmPKhm+0x22>
   13582:	0a700793          	li	a5,167
   13586:	0707f963          	bgeu	a5,a6,135f8 <_Z15shake128_customPhmPKhm+0xbe>
   1358a:	0a800693          	li	a3,168
   1358e:	0436f6d7          	vsetvli	a3,a3,e8,m8,ta,mu
   13592:	0a004c5b          	keccak.stores.v	v24
   13596:	0436f057          	vsetvli	zero,a3,e8,m8,ta,mu
   1359a:	fff88713          	addi	a4,a7,-1
   1359e:	02050c27          	vse8.v	v24,(a0)
   135a2:	0a850793          	addi	a5,a0,168
   135a6:	cf09                	beqz	a4,135c0 <_Z15shake128_customPhmPKhm+0x86>
   135a8:	1400005b          	keccak.squeeze	0
   135ac:	0a004c5b          	keccak.stores.v	v24
   135b0:	0436f057          	vsetvli	zero,a3,e8,m8,ta,mu
   135b4:	177d                	addi	a4,a4,-1
   135b6:	02078c27          	vse8.v	v24,(a5)
   135ba:	0a878793          	addi	a5,a5,168
   135be:	f76d                	bnez	a4,135a8 <_Z15shake128_customPhmPKhm+0x6e>
   135c0:	0a800793          	li	a5,168
   135c4:	02f87833          	remu	a6,a6,a5
   135c8:	02080563          	beqz	a6,135f2 <_Z15shake128_customPhmPKhm+0xb8>
   135cc:	0437f7d7          	vsetvli	a5,a5,e8,m8,ta,mu
   135d0:	1400005b          	keccak.squeeze	0
   135d4:	0a004c5b          	keccak.stores.v	v24
   135d8:	002c                	addi	a1,sp,8
   135da:	0437f057          	vsetvli	zero,a5,e8,m8,ta,mu
   135de:	02058c27          	vse8.v	v24,(a1)
   135e2:	0a800793          	li	a5,168
   135e6:	02f888b3          	mul	a7,a7,a5
   135ea:	8642                	mv	a2,a6
   135ec:	9546                	add	a0,a0,a7
   135ee:	40c060ef          	jal	ra,199fa <memcpy>
   135f2:	70ea                	ld	ra,184(sp)
   135f4:	6129                	addi	sp,sp,192
   135f6:	8082                	ret
   135f8:	fe080de3          	beqz	a6,135f2 <_Z15shake128_customPhmPKhm+0xb8>
   135fc:	0a800793          	li	a5,168
   13600:	0437f7d7          	vsetvli	a5,a5,e8,m8,ta,mu
   13604:	0a004c5b          	keccak.stores.v	v24
   13608:	002c                	addi	a1,sp,8
   1360a:	0437f057          	vsetvli	zero,a5,e8,m8,ta,mu
   1360e:	02058c27          	vse8.v	v24,(a1)
   13612:	bfc1                	j	135e2 <_Z15shake128_customPhmPKhm+0xa8>

0000000000013614 <_Z15shake256_customPhmPKhm>:
   13614:	7135                	addi	sp,sp,-160
   13616:	08800893          	li	a7,136
   1361a:	0315d8b3          	divu	a7,a1,a7
   1361e:	ed06                	sd	ra,152(sp)
   13620:	882e                	mv	a6,a1
   13622:	4785                	li	a5,1
   13624:	00f167db          	pqccsrrw	a5,a5,2
   13628:	2681                	sext.w	a3,a3
   1362a:	0c00005b          	keccak.init	0
   1362e:	0206c763          	bltz	a3,1365c <_Z15shake256_customPhmPKhm+0x48>
   13632:	08800713          	li	a4,136
   13636:	87b6                	mv	a5,a3
   13638:	00d77463          	bgeu	a4,a3,13640 <_Z15shake256_customPhmPKhm+0x2c>
   1363c:	08800793          	li	a5,136
   13640:	1782                	slli	a5,a5,0x20
   13642:	9381                	srli	a5,a5,0x20
   13644:	0437f7d7          	vsetvli	a5,a5,e8,m8,ta,mu
   13648:	02060c07          	vle8.v	v24,(a2)
   1364c:	0780105b          	keccak.loadm.v	v24
   13650:	963e                	add	a2,a2,a5
   13652:	1006e6db          	keccak.absorb	a3,a3
   13656:	2681                	sext.w	a3,a3
   13658:	fc06dfe3          	bgez	a3,13636 <_Z15shake256_customPhmPKhm+0x22>
   1365c:	08700793          	li	a5,135
   13660:	0707f963          	bgeu	a5,a6,136d2 <_Z15shake256_customPhmPKhm+0xbe>
   13664:	08800693          	li	a3,136
   13668:	0436f6d7          	vsetvli	a3,a3,e8,m8,ta,mu
   1366c:	0a004c5b          	keccak.stores.v	v24
   13670:	0436f057          	vsetvli	zero,a3,e8,m8,ta,mu
   13674:	fff88713          	addi	a4,a7,-1
   13678:	02050c27          	vse8.v	v24,(a0)
   1367c:	08850793          	addi	a5,a0,136
   13680:	cf09                	beqz	a4,1369a <_Z15shake256_customPhmPKhm+0x86>
   13682:	1400005b          	keccak.squeeze	0
   13686:	0a004c5b          	keccak.stores.v	v24
   1368a:	0436f057          	vsetvli	zero,a3,e8,m8,ta,mu
   1368e:	177d                	addi	a4,a4,-1
   13690:	02078c27          	vse8.v	v24,(a5)
   13694:	08878793          	addi	a5,a5,136
   13698:	f76d                	bnez	a4,13682 <_Z15shake256_customPhmPKhm+0x6e>
   1369a:	08800793          	li	a5,136
   1369e:	02f87833          	remu	a6,a6,a5
   136a2:	02080563          	beqz	a6,136cc <_Z15shake256_customPhmPKhm+0xb8>
   136a6:	0437f7d7          	vsetvli	a5,a5,e8,m8,ta,mu
   136aa:	1400005b          	keccak.squeeze	0
   136ae:	0a004c5b          	keccak.stores.v	v24
   136b2:	002c                	addi	a1,sp,8
   136b4:	0437f057          	vsetvli	zero,a5,e8,m8,ta,mu
   136b8:	02058c27          	vse8.v	v24,(a1)
   136bc:	00489793          	slli	a5,a7,0x4
   136c0:	97c6                	add	a5,a5,a7
   136c2:	078e                	slli	a5,a5,0x3
   136c4:	8642                	mv	a2,a6
   136c6:	953e                	add	a0,a0,a5
   136c8:	332060ef          	jal	ra,199fa <memcpy>
   136cc:	60ea                	ld	ra,152(sp)
   136ce:	610d                	addi	sp,sp,160
   136d0:	8082                	ret
   136d2:	fe080de3          	beqz	a6,136cc <_Z15shake256_customPhmPKhm+0xb8>
   136d6:	08800793          	li	a5,136
   136da:	0437f7d7          	vsetvli	a5,a5,e8,m8,ta,mu
   136de:	0a004c5b          	keccak.stores.v	v24
   136e2:	002c                	addi	a1,sp,8
   136e4:	0437f057          	vsetvli	zero,a5,e8,m8,ta,mu
   136e8:	02058c27          	vse8.v	v24,(a1)
   136ec:	bfc1                	j	136bc <_Z15shake256_customPhmPKhm+0xa8>

00000000000136ee <_Z15sha3_256_customPhPKhm>:
   136ee:	7135                	addi	sp,sp,-160
   136f0:	ed06                	sd	ra,152(sp)
   136f2:	4789                	li	a5,2
   136f4:	00f167db          	pqccsrrw	a5,a5,2
   136f8:	0006071b          	sext.w	a4,a2
   136fc:	0c00005b          	keccak.init	0
   13700:	02074763          	bltz	a4,1372e <_Z15sha3_256_customPhPKhm+0x40>
   13704:	08800693          	li	a3,136
   13708:	87ba                	mv	a5,a4
   1370a:	00e6f463          	bgeu	a3,a4,13712 <_Z15sha3_256_customPhPKhm+0x24>
   1370e:	08800793          	li	a5,136
   13712:	1782                	slli	a5,a5,0x20
   13714:	9381                	srli	a5,a5,0x20
   13716:	0437f7d7          	vsetvli	a5,a5,e8,m8,ta,mu
   1371a:	02058c07          	vle8.v	v24,(a1)
   1371e:	0780105b          	keccak.loadm.v	v24
   13722:	95be                	add	a1,a1,a5
   13724:	1007675b          	keccak.absorb	a4,a4
   13728:	2701                	sext.w	a4,a4
   1372a:	fc075fe3          	bgez	a4,13708 <_Z15sha3_256_customPhPKhm+0x1a>
   1372e:	08800793          	li	a5,136
   13732:	0437f7d7          	vsetvli	a5,a5,e8,m8,ta,mu
   13736:	0a004c5b          	keccak.stores.v	v24
   1373a:	02000613          	li	a2,32
   1373e:	002c                	addi	a1,sp,8
   13740:	0437f057          	vsetvli	zero,a5,e8,m8,ta,mu
   13744:	02058c27          	vse8.v	v24,(a1)
   13748:	2b2060ef          	jal	ra,199fa <memcpy>
   1374c:	60ea                	ld	ra,152(sp)
   1374e:	610d                	addi	sp,sp,160
   13750:	8082                	ret

0000000000013752 <_Z15sha3_512_customPhPKhm>:
   13752:	711d                	addi	sp,sp,-96
   13754:	ec86                	sd	ra,88(sp)
   13756:	478d                	li	a5,3
   13758:	00f167db          	pqccsrrw	a5,a5,2
   1375c:	0006071b          	sext.w	a4,a2
   13760:	0c00005b          	keccak.init	0
   13764:	02074763          	bltz	a4,13792 <_Z15sha3_512_customPhPKhm+0x40>
   13768:	04800693          	li	a3,72
   1376c:	87ba                	mv	a5,a4
   1376e:	00e6f463          	bgeu	a3,a4,13776 <_Z15sha3_512_customPhPKhm+0x24>
   13772:	04800793          	li	a5,72
   13776:	1782                	slli	a5,a5,0x20
   13778:	9381                	srli	a5,a5,0x20
   1377a:	0437f7d7          	vsetvli	a5,a5,e8,m8,ta,mu
   1377e:	02058c07          	vle8.v	v24,(a1)
   13782:	0780105b          	keccak.loadm.v	v24
   13786:	95be                	add	a1,a1,a5
   13788:	1007675b          	keccak.absorb	a4,a4
   1378c:	2701                	sext.w	a4,a4
   1378e:	fc075fe3          	bgez	a4,1376c <_Z15sha3_512_customPhPKhm+0x1a>
   13792:	04800793          	li	a5,72
   13796:	0437f7d7          	vsetvli	a5,a5,e8,m8,ta,mu
   1379a:	0a004c5b          	keccak.stores.v	v24
   1379e:	04000613          	li	a2,64
   137a2:	002c                	addi	a1,sp,8
   137a4:	0437f057          	vsetvli	zero,a5,e8,m8,ta,mu
   137a8:	02058c27          	vse8.v	v24,(a1)
   137ac:	24e060ef          	jal	ra,199fa <memcpy>
   137b0:	60e6                	ld	ra,88(sp)
   137b2:	6125                	addi	sp,sp,96
   137b4:	8082                	ret

00000000000137b6 <_Z11gf_generatePtS_s>:
   137b6:	4805                	li	a6,1
   137b8:	00c8183b          	sllw	a6,a6,a2
   137bc:	fff8089b          	addiw	a7,a6,-1
   137c0:	1882                	slli	a7,a7,0x20
   137c2:	0208d893          	srli	a7,a7,0x20
   137c6:	ca39                	beqz	a2,1381c <_Z11gf_generatePtS_s+0x66>
   137c8:	862a                	mv	a2,a0
   137ca:	4701                	li	a4,0
   137cc:	4785                	li	a5,1
   137ce:	00179693          	slli	a3,a5,0x1
   137d2:	00f61023          	sh	a5,0(a2)
   137d6:	0017979b          	slliw	a5,a5,0x1
   137da:	96ae                	add	a3,a3,a1
   137dc:	17c2                	slli	a5,a5,0x30
   137de:	00e69023          	sh	a4,0(a3)
   137e2:	93c1                	srli	a5,a5,0x30
   137e4:	0705                	addi	a4,a4,1
   137e6:	0107c463          	blt	a5,a6,137ee <_Z11gf_generatePtS_s+0x38>
   137ea:	11d7c793          	xori	a5,a5,285
   137ee:	0609                	addi	a2,a2,2
   137f0:	fd176fe3          	bltu	a4,a7,137ce <_Z11gf_generatePtS_s+0x18>
   137f4:	0806                	slli	a6,a6,0x1
   137f6:	ffe80793          	addi	a5,a6,-2
   137fa:	97aa                	add	a5,a5,a0
   137fc:	00280693          	addi	a3,a6,2
   13800:	4705                	li	a4,1
   13802:	00e79023          	sh	a4,0(a5)
   13806:	982a                	add	a6,a6,a0
   13808:	4789                	li	a5,2
   1380a:	00f81023          	sh	a5,0(a6)
   1380e:	9536                	add	a0,a0,a3
   13810:	4791                	li	a5,4
   13812:	00f51023          	sh	a5,0(a0)
   13816:	00059023          	sh	zero,0(a1)
   1381a:	8082                	ret
   1381c:	87aa                	mv	a5,a0
   1381e:	4691                	li	a3,4
   13820:	4809                	li	a6,2
   13822:	bff9                	j	13800 <_Z11gf_generatePtS_s+0x4a>

0000000000013824 <_Z24trailing_zero_bits_countt>:
   13824:	0005071b          	sext.w	a4,a0
   13828:	8905                	andi	a0,a0,1
   1382a:	fff5089b          	addiw	a7,a0,-1
   1382e:	4017569b          	sraiw	a3,a4,0x1
   13832:	8a85                	andi	a3,a3,1
   13834:	4027561b          	sraiw	a2,a4,0x2
   13838:	03089793          	slli	a5,a7,0x30
   1383c:	fff6859b          	addiw	a1,a3,-1
   13840:	8a05                	andi	a2,a2,1
   13842:	0016c813          	xori	a6,a3,1
   13846:	93c1                	srli	a5,a5,0x30
   13848:	4037569b          	sraiw	a3,a4,0x3
   1384c:	8fed                	and	a5,a5,a1
   1384e:	8a85                	andi	a3,a3,1
   13850:	01187833          	and	a6,a6,a7
   13854:	00154513          	xori	a0,a0,1
   13858:	00164893          	xori	a7,a2,1
   1385c:	4047559b          	sraiw	a1,a4,0x4
   13860:	367d                	addiw	a2,a2,-1
   13862:	8e7d                	and	a2,a2,a5
   13864:	00a8083b          	addw	a6,a6,a0
   13868:	8985                	andi	a1,a1,1
   1386a:	0117f533          	and	a0,a5,a7
   1386e:	0016c893          	xori	a7,a3,1
   13872:	fff6879b          	addiw	a5,a3,-1
   13876:	4057569b          	sraiw	a3,a4,0x5
   1387a:	8ff1                	and	a5,a5,a2
   1387c:	8a85                	andi	a3,a3,1
   1387e:	9542                	add	a0,a0,a6
   13880:	01167833          	and	a6,a2,a7
   13884:	0015c893          	xori	a7,a1,1
   13888:	4067561b          	sraiw	a2,a4,0x6
   1388c:	35fd                	addiw	a1,a1,-1
   1388e:	8dfd                	and	a1,a1,a5
   13890:	8a05                	andi	a2,a2,1
   13892:	9542                	add	a0,a0,a6
   13894:	0117f833          	and	a6,a5,a7
   13898:	0016c893          	xori	a7,a3,1
   1389c:	4077579b          	sraiw	a5,a4,0x7
   138a0:	36fd                	addiw	a3,a3,-1
   138a2:	8eed                	and	a3,a3,a1
   138a4:	8b85                	andi	a5,a5,1
   138a6:	9542                	add	a0,a0,a6
   138a8:	0115f833          	and	a6,a1,a7
   138ac:	00164893          	xori	a7,a2,1
   138b0:	4087559b          	sraiw	a1,a4,0x8
   138b4:	367d                	addiw	a2,a2,-1
   138b6:	8e75                	and	a2,a2,a3
   138b8:	8985                	andi	a1,a1,1
   138ba:	9542                	add	a0,a0,a6
   138bc:	0116f833          	and	a6,a3,a7
   138c0:	0017c893          	xori	a7,a5,1
   138c4:	4097569b          	sraiw	a3,a4,0x9
   138c8:	37fd                	addiw	a5,a5,-1
   138ca:	8ff1                	and	a5,a5,a2
   138cc:	8a85                	andi	a3,a3,1
   138ce:	9542                	add	a0,a0,a6
   138d0:	01167833          	and	a6,a2,a7
   138d4:	0015c893          	xori	a7,a1,1
   138d8:	40a7561b          	sraiw	a2,a4,0xa
   138dc:	35fd                	addiw	a1,a1,-1
   138de:	8dfd                	and	a1,a1,a5
   138e0:	8a05                	andi	a2,a2,1
   138e2:	9542                	add	a0,a0,a6
   138e4:	0117f833          	and	a6,a5,a7
   138e8:	0016c893          	xori	a7,a3,1
   138ec:	40b7579b          	sraiw	a5,a4,0xb
   138f0:	36fd                	addiw	a3,a3,-1
   138f2:	8eed                	and	a3,a3,a1
   138f4:	8b85                	andi	a5,a5,1
   138f6:	0115f5b3          	and	a1,a1,a7
   138fa:	9542                	add	a0,a0,a6
   138fc:	00164893          	xori	a7,a2,1
   13900:	40c7581b          	sraiw	a6,a4,0xc
   13904:	367d                	addiw	a2,a2,-1
   13906:	8e75                	and	a2,a2,a3
   13908:	00187813          	andi	a6,a6,1
   1390c:	952e                	add	a0,a0,a1
   1390e:	0116f5b3          	and	a1,a3,a7
   13912:	0017c893          	xori	a7,a5,1
   13916:	fff7869b          	addiw	a3,a5,-1
   1391a:	40d7579b          	sraiw	a5,a4,0xd
   1391e:	952e                	add	a0,a0,a1
   13920:	00d67733          	and	a4,a2,a3
   13924:	fff7c793          	not	a5,a5
   13928:	01167633          	and	a2,a2,a7
   1392c:	00184693          	xori	a3,a6,1
   13930:	387d                	addiw	a6,a6,-1
   13932:	8ef9                	and	a3,a3,a4
   13934:	9532                	add	a0,a0,a2
   13936:	01077733          	and	a4,a4,a6
   1393a:	8b85                	andi	a5,a5,1
   1393c:	9536                	add	a0,a0,a3
   1393e:	8ff9                	and	a5,a5,a4
   13940:	953e                	add	a0,a0,a5
   13942:	1542                	slli	a0,a0,0x30
   13944:	9141                	srli	a0,a0,0x30
   13946:	8082                	ret

0000000000013948 <_Z16gf_carryless_mulPhhh>:
   13948:	715d                	addi	sp,sp,-80
   1394a:	e4a2                	sd	s0,72(sp)
   1394c:	0005841b          	sext.w	s0,a1
   13950:	4064581b          	sraiw	a6,s0,0x6
   13954:	4024571b          	sraiw	a4,s0,0x2
   13958:	4044579b          	sraiw	a5,s0,0x4
   1395c:	f84e                	sd	s3,48(sp)
   1395e:	ffe80f1b          	addiw	t5,a6,-2
   13962:	0035f993          	andi	s3,a1,3
   13966:	8b0d                	andi	a4,a4,3
   13968:	8b8d                	andi	a5,a5,3
   1396a:	e0a6                	sd	s1,64(sp)
   1396c:	fc4a                	sd	s2,56(sp)
   1396e:	f452                	sd	s4,40(sp)
   13970:	f056                	sd	s5,32(sp)
   13972:	e462                	sd	s8,8(sp)
   13974:	e066                	sd	s9,0(sp)
   13976:	fff9849b          	addiw	s1,s3,-1
   1397a:	fff70a1b          	addiw	s4,a4,-1
   1397e:	ffe70c9b          	addiw	s9,a4,-2
   13982:	fff7891b          	addiw	s2,a5,-1
   13986:	ffe78c1b          	addiw	s8,a5,-2
   1398a:	fff80a9b          	addiw	s5,a6,-1
   1398e:	41e0033b          	negw	t1,t5
   13992:	ec5a                	sd	s6,24(sp)
   13994:	3775                	addiw	a4,a4,-3
   13996:	ffe98b1b          	addiw	s6,s3,-2
   1399a:	37f5                	addiw	a5,a5,-3
   1399c:	3875                	addiw	a6,a6,-3
   1399e:	41200e3b          	negw	t3,s2
   139a2:	01e368b3          	or	a7,t1,t5
   139a6:	41900fbb          	negw	t6,s9
   139aa:	41400ebb          	negw	t4,s4
   139ae:	418002bb          	negw	t0,s8
   139b2:	415006bb          	negw	a3,s5
   139b6:	409003bb          	negw	t2,s1
   139ba:	00765f1b          	srliw	t5,a2,0x7
   139be:	e85e                	sd	s7,16(sp)
   139c0:	39f5                	addiw	s3,s3,-3
   139c2:	012e6bb3          	or	s7,t3,s2
   139c6:	019fefb3          	or	t6,t6,s9
   139ca:	014eeeb3          	or	t4,t4,s4
   139ce:	0182e2b3          	or	t0,t0,s8
   139d2:	40e00a3b          	negw	s4,a4
   139d6:	40f0093b          	negw	s2,a5
   139da:	0156e6b3          	or	a3,a3,s5
   139de:	0093e3b3          	or	t2,t2,s1
   139e2:	41000abb          	negw	s5,a6
   139e6:	416004bb          	negw	s1,s6
   139ea:	41e00f3b          	negw	t5,t5
   139ee:	07f67613          	andi	a2,a2,127
   139f2:	00ea6a33          	or	s4,s4,a4
   139f6:	41fbde1b          	sraiw	t3,s7,0x1f
   139fa:	00f96933          	or	s2,s2,a5
   139fe:	41f8d31b          	sraiw	t1,a7,0x1f
   13a02:	010aeab3          	or	s5,s5,a6
   13a06:	41ffdf9b          	sraiw	t6,t6,0x1f
   13a0a:	41fede9b          	sraiw	t4,t4,0x1f
   13a0e:	0164e4b3          	or	s1,s1,s6
   13a12:	413008bb          	negw	a7,s3
   13a16:	41f2d29b          	sraiw	t0,t0,0x1f
   13a1a:	41f6d69b          	sraiw	a3,a3,0x1f
   13a1e:	41f3d39b          	sraiw	t2,t2,0x1f
   13a22:	1f42                	slli	t5,t5,0x30
   13a24:	00161813          	slli	a6,a2,0x1
   13a28:	fffec793          	not	a5,t4
   13a2c:	030f5f13          	srli	t5,t5,0x30
   13a30:	ffffc713          	not	a4,t6
   13a34:	41fa5e9b          	sraiw	t4,s4,0x1f
   13a38:	0138e8b3          	or	a7,a7,s3
   13a3c:	fffe4a13          	not	s4,t3
   13a40:	fff2c293          	not	t0,t0
   13a44:	41f95e1b          	sraiw	t3,s2,0x1f
   13a48:	fff6c693          	not	a3,a3
   13a4c:	fff34913          	not	s2,t1
   13a50:	fff3c393          	not	t2,t2
   13a54:	41fad31b          	sraiw	t1,s5,0x1f
   13a58:	41f4d49b          	sraiw	s1,s1,0x1f
   13a5c:	00741a9b          	slliw	s5,s0,0x7
   13a60:	00e87fb3          	and	t6,a6,a4
   13a64:	01064433          	xor	s0,a2,a6
   13a68:	00f67733          	and	a4,a2,a5
   13a6c:	01287933          	and	s2,a6,s2
   13a70:	005872b3          	and	t0,a6,t0
   13a74:	01467a33          	and	s4,a2,s4
   13a78:	8ef1                	and	a3,a3,a2
   13a7a:	007677b3          	and	a5,a2,t2
   13a7e:	015f7ab3          	and	s5,t5,s5
   13a82:	fff4c493          	not	s1,s1
   13a86:	fffece93          	not	t4,t4
   13a8a:	fffe4e13          	not	t3,t3
   13a8e:	fff34313          	not	t1,t1
   13a92:	41f8d89b          	sraiw	a7,a7,0x1f
   13a96:	00647333          	and	t1,s0,t1
   13a9a:	00987833          	and	a6,a6,s1
   13a9e:	01d47eb3          	and	t4,s0,t4
   13aa2:	0142c633          	xor	a2,t0,s4
   13aa6:	01c47e33          	and	t3,s0,t3
   13aaa:	0126c6b3          	xor	a3,a3,s2
   13aae:	0157c7b3          	xor	a5,a5,s5
   13ab2:	fff8c893          	not	a7,a7
   13ab6:	00efc733          	xor	a4,t6,a4
   13aba:	0066c6b3          	xor	a3,a3,t1
   13abe:	01d74733          	xor	a4,a4,t4
   13ac2:	01c64633          	xor	a2,a2,t3
   13ac6:	0107c7b3          	xor	a5,a5,a6
   13aca:	01147833          	and	a6,s0,a7
   13ace:	0107c7b3          	xor	a5,a5,a6
   13ad2:	0027131b          	slliw	t1,a4,0x2
   13ad6:	4026d81b          	sraiw	a6,a3,0x2
   13ada:	4046589b          	sraiw	a7,a2,0x4
   13ade:	0015d59b          	srliw	a1,a1,0x1
   13ae2:	0067c7b3          	xor	a5,a5,t1
   13ae6:	0046161b          	slliw	a2,a2,0x4
   13aea:	01184833          	xor	a6,a6,a7
   13aee:	00bf75b3          	and	a1,t5,a1
   13af2:	6426                	ld	s0,72(sp)
   13af4:	8fb1                	xor	a5,a5,a2
   13af6:	0066969b          	slliw	a3,a3,0x6
   13afa:	00b84833          	xor	a6,a6,a1
   13afe:	4067571b          	sraiw	a4,a4,0x6
   13b02:	8fb5                	xor	a5,a5,a3
   13b04:	00e84833          	xor	a6,a6,a4
   13b08:	00f50023          	sb	a5,0(a0)
   13b0c:	010500a3          	sb	a6,1(a0)
   13b10:	6486                	ld	s1,64(sp)
   13b12:	7962                	ld	s2,56(sp)
   13b14:	79c2                	ld	s3,48(sp)
   13b16:	7a22                	ld	s4,40(sp)
   13b18:	7a82                	ld	s5,32(sp)
   13b1a:	6b62                	ld	s6,24(sp)
   13b1c:	6bc2                	ld	s7,16(sp)
   13b1e:	6c22                	ld	s8,8(sp)
   13b20:	6c82                	ld	s9,0(sp)
   13b22:	6161                	addi	sp,sp,80
   13b24:	8082                	ret

0000000000013b26 <_Z6gf_multt>:
   13b26:	1101                	addi	sp,sp,-32
   13b28:	87aa                	mv	a5,a0
   13b2a:	0ff5f613          	zext.b	a2,a1
   13b2e:	0028                	addi	a0,sp,8
   13b30:	0ff7f593          	zext.b	a1,a5
   13b34:	ec06                	sd	ra,24(sp)
   13b36:	e13ff0ef          	jal	ra,13948 <_Z16gf_carryless_mulPhhh>
   13b3a:	00815703          	lhu	a4,8(sp)
   13b3e:	60e2                	ld	ra,24(sp)
   13b40:	00875793          	srli	a5,a4,0x8
   13b44:	00279693          	slli	a3,a5,0x2
   13b48:	0ff77713          	zext.b	a4,a4
   13b4c:	8f35                	xor	a4,a4,a3
   13b4e:	8f3d                	xor	a4,a4,a5
   13b50:	00379693          	slli	a3,a5,0x3
   13b54:	8f35                	xor	a4,a4,a3
   13b56:	0792                	slli	a5,a5,0x4
   13b58:	8fb9                	xor	a5,a5,a4
   13b5a:	0087d713          	srli	a4,a5,0x8
   13b5e:	0ff7f793          	zext.b	a5,a5
   13b62:	8fb9                	xor	a5,a5,a4
   13b64:	00271693          	slli	a3,a4,0x2
   13b68:	00371513          	slli	a0,a4,0x3
   13b6c:	8fb5                	xor	a5,a5,a3
   13b6e:	8d3d                	xor	a0,a0,a5
   13b70:	0712                	slli	a4,a4,0x4
   13b72:	8d39                	xor	a0,a0,a4
   13b74:	6105                	addi	sp,sp,32
   13b76:	8082                	ret

0000000000013b78 <_Z9gf_squaret>:
   13b78:	0015179b          	slliw	a5,a0,0x1
   13b7c:	8b91                	andi	a5,a5,4
   13b7e:	00157713          	andi	a4,a0,1
   13b82:	0025169b          	slliw	a3,a0,0x2
   13b86:	8ac1                	andi	a3,a3,16
   13b88:	8f5d                	or	a4,a4,a5
   13b8a:	0035179b          	slliw	a5,a0,0x3
   13b8e:	8f55                	or	a4,a4,a3
   13b90:	0055161b          	slliw	a2,a0,0x5
   13b94:	0045169b          	slliw	a3,a0,0x4
   13b98:	0407f793          	andi	a5,a5,64
   13b9c:	8fb9                	xor	a5,a5,a4
   13b9e:	1006f693          	andi	a3,a3,256
   13ba2:	40067713          	andi	a4,a2,1024
   13ba6:	2781                	sext.w	a5,a5
   13ba8:	8ed9                	or	a3,a3,a4
   13baa:	8ebd                	xor	a3,a3,a5
   13bac:	0065171b          	slliw	a4,a0,0x6
   13bb0:	6785                	lui	a5,0x1
   13bb2:	8f7d                	and	a4,a4,a5
   13bb4:	8f35                	xor	a4,a4,a3
   13bb6:	0075179b          	slliw	a5,a0,0x7
   13bba:	6691                	lui	a3,0x4
   13bbc:	8ff5                	and	a5,a5,a3
   13bbe:	8f3d                	xor	a4,a4,a5
   13bc0:	0087579b          	srliw	a5,a4,0x8
   13bc4:	0ff77713          	zext.b	a4,a4
   13bc8:	8f3d                	xor	a4,a4,a5
   13bca:	00279693          	slli	a3,a5,0x2
   13bce:	8eb9                	xor	a3,a3,a4
   13bd0:	00379713          	slli	a4,a5,0x3
   13bd4:	8f35                	xor	a4,a4,a3
   13bd6:	0792                	slli	a5,a5,0x4
   13bd8:	8fb9                	xor	a5,a5,a4
   13bda:	0087d713          	srli	a4,a5,0x8
   13bde:	0ff7f793          	zext.b	a5,a5
   13be2:	8fb9                	xor	a5,a5,a4
   13be4:	00271693          	slli	a3,a4,0x2
   13be8:	8ebd                	xor	a3,a3,a5
   13bea:	00371793          	slli	a5,a4,0x3
   13bee:	8fb5                	xor	a5,a5,a3
   13bf0:	0712                	slli	a4,a4,0x4
   13bf2:	00f74533          	xor	a0,a4,a5
   13bf6:	1542                	slli	a0,a0,0x30
   13bf8:	9141                	srli	a0,a0,0x30
   13bfa:	8082                	ret

0000000000013bfc <_Z10gf_inverset>:
   13bfc:	7179                	addi	sp,sp,-48
   13bfe:	f406                	sd	ra,40(sp)
   13c00:	f022                	sd	s0,32(sp)
   13c02:	ec26                	sd	s1,24(sp)
   13c04:	84aa                	mv	s1,a0
   13c06:	f73ff0ef          	jal	ra,13b78 <_Z9gf_squaret>
   13c0a:	0ff4f613          	zext.b	a2,s1
   13c0e:	0ff57593          	zext.b	a1,a0
   13c12:	842a                	mv	s0,a0
   13c14:	0028                	addi	a0,sp,8
   13c16:	d33ff0ef          	jal	ra,13948 <_Z16gf_carryless_mulPhhh>
   13c1a:	00815703          	lhu	a4,8(sp)
   13c1e:	8522                	mv	a0,s0
   13c20:	00875793          	srli	a5,a4,0x8
   13c24:	00279693          	slli	a3,a5,0x2
   13c28:	0ff77713          	zext.b	a4,a4
   13c2c:	8f35                	xor	a4,a4,a3
   13c2e:	8f3d                	xor	a4,a4,a5
   13c30:	00379693          	slli	a3,a5,0x3
   13c34:	8f35                	xor	a4,a4,a3
   13c36:	0792                	slli	a5,a5,0x4
   13c38:	8fb9                	xor	a5,a5,a4
   13c3a:	0087d713          	srli	a4,a5,0x8
   13c3e:	0ff7f793          	zext.b	a5,a5
   13c42:	8fb9                	xor	a5,a5,a4
   13c44:	00271693          	slli	a3,a4,0x2
   13c48:	8ebd                	xor	a3,a3,a5
   13c4a:	00371793          	slli	a5,a4,0x3
   13c4e:	8fb5                	xor	a5,a5,a3
   13c50:	0712                	slli	a4,a4,0x4
   13c52:	00f74433          	xor	s0,a4,a5
   13c56:	f23ff0ef          	jal	ra,13b78 <_Z9gf_squaret>
   13c5a:	0ff57493          	zext.b	s1,a0
   13c5e:	8622                	mv	a2,s0
   13c60:	85a6                	mv	a1,s1
   13c62:	0028                	addi	a0,sp,8
   13c64:	ce5ff0ef          	jal	ra,13948 <_Z16gf_carryless_mulPhhh>
   13c68:	00815703          	lhu	a4,8(sp)
   13c6c:	85a6                	mv	a1,s1
   13c6e:	0028                	addi	a0,sp,8
   13c70:	00875793          	srli	a5,a4,0x8
   13c74:	00279693          	slli	a3,a5,0x2
   13c78:	0ff77713          	zext.b	a4,a4
   13c7c:	8f35                	xor	a4,a4,a3
   13c7e:	8f3d                	xor	a4,a4,a5
   13c80:	00379693          	slli	a3,a5,0x3
   13c84:	8f35                	xor	a4,a4,a3
   13c86:	0792                	slli	a5,a5,0x4
   13c88:	8fb9                	xor	a5,a5,a4
   13c8a:	0087d713          	srli	a4,a5,0x8
   13c8e:	0ff7f793          	zext.b	a5,a5
   13c92:	8fb9                	xor	a5,a5,a4
   13c94:	00271693          	slli	a3,a4,0x2
   13c98:	8ebd                	xor	a3,a3,a5
   13c9a:	00371793          	slli	a5,a4,0x3
   13c9e:	8fb5                	xor	a5,a5,a3
   13ca0:	0712                	slli	a4,a4,0x4
   13ca2:	00f74433          	xor	s0,a4,a5
   13ca6:	8622                	mv	a2,s0
   13ca8:	ca1ff0ef          	jal	ra,13948 <_Z16gf_carryless_mulPhhh>
   13cac:	00815703          	lhu	a4,8(sp)
   13cb0:	8626                	mv	a2,s1
   13cb2:	0028                	addi	a0,sp,8
   13cb4:	00875793          	srli	a5,a4,0x8
   13cb8:	00279693          	slli	a3,a5,0x2
   13cbc:	0ff77713          	zext.b	a4,a4
   13cc0:	8f35                	xor	a4,a4,a3
   13cc2:	8f3d                	xor	a4,a4,a5
   13cc4:	00379693          	slli	a3,a5,0x3
   13cc8:	8f35                	xor	a4,a4,a3
   13cca:	0792                	slli	a5,a5,0x4
   13ccc:	8fb9                	xor	a5,a5,a4
   13cce:	0087d713          	srli	a4,a5,0x8
   13cd2:	0ff7f793          	zext.b	a5,a5
   13cd6:	00271693          	slli	a3,a4,0x2
   13cda:	8fb9                	xor	a5,a5,a4
   13cdc:	8fb5                	xor	a5,a5,a3
   13cde:	00371593          	slli	a1,a4,0x3
   13ce2:	8dbd                	xor	a1,a1,a5
   13ce4:	0712                	slli	a4,a4,0x4
   13ce6:	8db9                	xor	a1,a1,a4
   13ce8:	c61ff0ef          	jal	ra,13948 <_Z16gf_carryless_mulPhhh>
   13cec:	00815703          	lhu	a4,8(sp)
   13cf0:	00875793          	srli	a5,a4,0x8
   13cf4:	00279693          	slli	a3,a5,0x2
   13cf8:	0ff77713          	zext.b	a4,a4
   13cfc:	8f35                	xor	a4,a4,a3
   13cfe:	8f3d                	xor	a4,a4,a5
   13d00:	00379693          	slli	a3,a5,0x3
   13d04:	8f35                	xor	a4,a4,a3
   13d06:	0792                	slli	a5,a5,0x4
   13d08:	8fb9                	xor	a5,a5,a4
   13d0a:	0087d713          	srli	a4,a5,0x8
   13d0e:	0ff7f793          	zext.b	a5,a5
   13d12:	00271693          	slli	a3,a4,0x2
   13d16:	8fb9                	xor	a5,a5,a4
   13d18:	8fb5                	xor	a5,a5,a3
   13d1a:	00371513          	slli	a0,a4,0x3
   13d1e:	8d3d                	xor	a0,a0,a5
   13d20:	0712                	slli	a4,a4,0x4
   13d22:	8d39                	xor	a0,a0,a4
   13d24:	e55ff0ef          	jal	ra,13b78 <_Z9gf_squaret>
   13d28:	e51ff0ef          	jal	ra,13b78 <_Z9gf_squaret>
   13d2c:	e4dff0ef          	jal	ra,13b78 <_Z9gf_squaret>
   13d30:	85aa                	mv	a1,a0
   13d32:	8622                	mv	a2,s0
   13d34:	0028                	addi	a0,sp,8
   13d36:	0ff5f593          	zext.b	a1,a1
   13d3a:	c0fff0ef          	jal	ra,13948 <_Z16gf_carryless_mulPhhh>
   13d3e:	00815703          	lhu	a4,8(sp)
   13d42:	7402                	ld	s0,32(sp)
   13d44:	70a2                	ld	ra,40(sp)
   13d46:	00875793          	srli	a5,a4,0x8
   13d4a:	00279693          	slli	a3,a5,0x2
   13d4e:	0ff77713          	zext.b	a4,a4
   13d52:	8f35                	xor	a4,a4,a3
   13d54:	8f3d                	xor	a4,a4,a5
   13d56:	00379693          	slli	a3,a5,0x3
   13d5a:	8f35                	xor	a4,a4,a3
   13d5c:	0792                	slli	a5,a5,0x4
   13d5e:	8fb9                	xor	a5,a5,a4
   13d60:	0087d713          	srli	a4,a5,0x8
   13d64:	0ff7f793          	zext.b	a5,a5
   13d68:	8fb9                	xor	a5,a5,a4
   13d6a:	00271693          	slli	a3,a4,0x2
   13d6e:	64e2                	ld	s1,24(sp)
   13d70:	00371513          	slli	a0,a4,0x3
   13d74:	8fb5                	xor	a5,a5,a3
   13d76:	8d3d                	xor	a0,a0,a5
   13d78:	0712                	slli	a4,a4,0x4
   13d7a:	8d39                	xor	a0,a0,a4
   13d7c:	6145                	addi	sp,sp,48
   13d7e:	bbed                	j	13b78 <_Z9gf_squaret>

0000000000013d80 <_Z6gf_modt>:
   13d80:	f015079b          	addiw	a5,a0,-255
   13d84:	0107951b          	slliw	a0,a5,0x10
   13d88:	4105551b          	sraiw	a0,a0,0x10
   13d8c:	40f5551b          	sraiw	a0,a0,0xf
   13d90:	0ff57513          	zext.b	a0,a0
   13d94:	953e                	add	a0,a0,a5
   13d96:	1542                	slli	a0,a0,0x30
   13d98:	9141                	srli	a0,a0,0x30
   13d9a:	8082                	ret

0000000000013d9c <_Z17cyclic_shift_leftPhPKhj>:
   13d9c:	7179                	addi	sp,sp,-48
   13d9e:	00767f93          	andi	t6,a2,7
   13da2:	6285                	lui	t0,0x1
   13da4:	73fd                	lui	t2,0xfffff
   13da6:	f422                	sd	s0,40(sp)
   13da8:	0036581b          	srliw	a6,a2,0x3
   13dac:	75f38f1b          	addiw	t5,t2,1887 # fffffffffffff75f <__BSS_END__+0xfffffffffffd383f>
   13db0:	f026                	sd	s1,32(sp)
   13db2:	ec4a                	sd	s2,24(sp)
   13db4:	e84e                	sd	s3,16(sp)
   13db6:	e452                	sd	s4,8(sp)
   13db8:	e056                	sd	s5,0(sp)
   13dba:	003f8313          	addi	t1,t6,3
   13dbe:	4701                	li	a4,0
   13dc0:	8a128e93          	addi	t4,t0,-1887 # 8a1 <exit-0xf847>
   13dc4:	8a028613          	addi	a2,t0,-1888
   13dc8:	4421                	li	s0,8
   13dca:	ffbf8e1b          	addiw	t3,t6,-5
   13dce:	7603839b          	addiw	t2,t2,1888
   13dd2:	0207089b          	addiw	a7,a4,32
   13dd6:	02000a13          	li	s4,32
   13dda:	011ef563          	bgeu	t4,a7,13de4 <_Z17cyclic_shift_leftPhPKhj+0x48>
   13dde:	40ee8a3b          	subw	s4,t4,a4
   13de2:	88f6                	mv	a7,t4
   13de4:	00e807bb          	addw	a5,a6,a4
   13de8:	06f66363          	bltu	a2,a5,13e4e <_Z17cyclic_shift_leftPhPKhj+0xb2>
   13dec:	14646763          	bltu	s0,t1,13f3a <_Z17cyclic_shift_leftPhPKhj+0x19e>
   13df0:	0017069b          	addiw	a3,a4,1
   13df4:	1682                	slli	a3,a3,0x20
   13df6:	9281                	srli	a3,a3,0x20
   13df8:	014784bb          	addw	s1,a5,s4
   13dfc:	96ae                	add	a3,a3,a1
   13dfe:	893e                	mv	s2,a5
   13e00:	8a7e                	mv	s4,t6
   13e02:	4109073b          	subw	a4,s2,a6
   13e06:	1702                	slli	a4,a4,0x20
   13e08:	9301                	srli	a4,a4,0x20
   13e0a:	0006ca83          	lbu	s5,0(a3) # 4000 <exit-0xc0e8>
   13e0e:	972e                	add	a4,a4,a1
   13e10:	00074703          	lbu	a4,0(a4)
   13e14:	1782                	slli	a5,a5,0x20
   13e16:	9381                	srli	a5,a5,0x20
   13e18:	97aa                	add	a5,a5,a0
   13e1a:	008a9a9b          	slliw	s5,s5,0x8
   13e1e:	0007c983          	lbu	s3,0(a5) # 1000 <exit-0xf0e8>
   13e22:	01576733          	or	a4,a4,s5
   13e26:	0147173b          	sllw	a4,a4,s4
   13e2a:	4087571b          	sraiw	a4,a4,0x8
   13e2e:	00e9c9b3          	xor	s3,s3,a4
   13e32:	01378023          	sb	s3,0(a5)
   13e36:	0019071b          	addiw	a4,s2,1
   13e3a:	0685                	addi	a3,a3,1
   13e3c:	06970a63          	beq	a4,s1,13eb0 <_Z17cyclic_shift_leftPhPKhj+0x114>
   13e40:	06e67c63          	bgeu	a2,a4,13eb8 <_Z17cyclic_shift_leftPhPKhj+0x11c>
   13e44:	012387bb          	addw	a5,t2,s2
   13e48:	8a1a                	mv	s4,t1
   13e4a:	893a                	mv	s2,a4
   13e4c:	bf5d                	j	13e02 <_Z17cyclic_shift_leftPhPKhj+0x66>
   13e4e:	01e787bb          	addw	a5,a5,t5
   13e52:	06646763          	bltu	s0,t1,13ec0 <_Z17cyclic_shift_leftPhPKhj+0x124>
   13e56:	0017091b          	addiw	s2,a4,1
   13e5a:	1902                	slli	s2,s2,0x20
   13e5c:	02095913          	srli	s2,s2,0x20
   13e60:	992e                	add	s2,s2,a1
   13e62:	014784bb          	addw	s1,a5,s4
   13e66:	40f709bb          	subw	s3,a4,a5
   13e6a:	00f9873b          	addw	a4,s3,a5
   13e6e:	1702                	slli	a4,a4,0x20
   13e70:	9301                	srli	a4,a4,0x20
   13e72:	972e                	add	a4,a4,a1
   13e74:	86be                	mv	a3,a5
   13e76:	00f67463          	bgeu	a2,a5,13e7e <_Z17cyclic_shift_leftPhPKhj+0xe2>
   13e7a:	00ff06bb          	addw	a3,t5,a5
   13e7e:	00094a83          	lbu	s5,0(s2)
   13e82:	00074703          	lbu	a4,0(a4)
   13e86:	1682                	slli	a3,a3,0x20
   13e88:	9281                	srli	a3,a3,0x20
   13e8a:	96aa                	add	a3,a3,a0
   13e8c:	008a9a9b          	slliw	s5,s5,0x8
   13e90:	0006ca03          	lbu	s4,0(a3)
   13e94:	01576733          	or	a4,a4,s5
   13e98:	0067173b          	sllw	a4,a4,t1
   13e9c:	4087571b          	sraiw	a4,a4,0x8
   13ea0:	00ea4733          	xor	a4,s4,a4
   13ea4:	00e68023          	sb	a4,0(a3)
   13ea8:	2785                	addiw	a5,a5,1
   13eaa:	0905                	addi	s2,s2,1
   13eac:	fa979fe3          	bne	a5,s1,13e6a <_Z17cyclic_shift_leftPhPKhj+0xce>
   13eb0:	07d88763          	beq	a7,t4,13f1e <_Z17cyclic_shift_leftPhPKhj+0x182>
   13eb4:	8746                	mv	a4,a7
   13eb6:	bf31                	j	13dd2 <_Z17cyclic_shift_leftPhPKhj+0x36>
   13eb8:	8a7e                	mv	s4,t6
   13eba:	87ba                	mv	a5,a4
   13ebc:	893a                	mv	s2,a4
   13ebe:	b791                	j	13e02 <_Z17cyclic_shift_leftPhPKhj+0x66>
   13ec0:	02071993          	slli	s3,a4,0x20
   13ec4:	0209d993          	srli	s3,s3,0x20
   13ec8:	377d                	addiw	a4,a4,-1
   13eca:	99ae                	add	s3,s3,a1
   13ecc:	014784bb          	addw	s1,a5,s4
   13ed0:	40f7093b          	subw	s2,a4,a5
   13ed4:	00f9073b          	addw	a4,s2,a5
   13ed8:	1702                	slli	a4,a4,0x20
   13eda:	9301                	srli	a4,a4,0x20
   13edc:	972e                	add	a4,a4,a1
   13ede:	86be                	mv	a3,a5
   13ee0:	00f67463          	bgeu	a2,a5,13ee8 <_Z17cyclic_shift_leftPhPKhj+0x14c>
   13ee4:	00ff06bb          	addw	a3,t5,a5
   13ee8:	0009ca83          	lbu	s5,0(s3)
   13eec:	00074703          	lbu	a4,0(a4)
   13ef0:	1682                	slli	a3,a3,0x20
   13ef2:	9281                	srli	a3,a3,0x20
   13ef4:	96aa                	add	a3,a3,a0
   13ef6:	008a9a9b          	slliw	s5,s5,0x8
   13efa:	0006ca03          	lbu	s4,0(a3)
   13efe:	01576733          	or	a4,a4,s5
   13f02:	01c7173b          	sllw	a4,a4,t3
   13f06:	4087571b          	sraiw	a4,a4,0x8
   13f0a:	00ea4733          	xor	a4,s4,a4
   13f0e:	00e68023          	sb	a4,0(a3)
   13f12:	2785                	addiw	a5,a5,1
   13f14:	0985                	addi	s3,s3,1
   13f16:	fa979fe3          	bne	a5,s1,13ed4 <_Z17cyclic_shift_leftPhPKhj+0x138>
   13f1a:	f9d89de3          	bne	a7,t4,13eb4 <_Z17cyclic_shift_leftPhPKhj+0x118>
   13f1e:	9516                	add	a0,a0,t0
   13f20:	8a054783          	lbu	a5,-1888(a0)
   13f24:	8bfd                	andi	a5,a5,31
   13f26:	8af50023          	sb	a5,-1888(a0)
   13f2a:	7422                	ld	s0,40(sp)
   13f2c:	7482                	ld	s1,32(sp)
   13f2e:	6962                	ld	s2,24(sp)
   13f30:	69c2                	ld	s3,16(sp)
   13f32:	6a22                	ld	s4,8(sp)
   13f34:	6a82                	ld	s5,0(sp)
   13f36:	6145                	addi	sp,sp,48
   13f38:	8082                	ret
   13f3a:	014784bb          	addw	s1,a5,s4
   13f3e:	89be                	mv	s3,a5
   13f40:	8a7e                	mv	s4,t6
   13f42:	4681                	li	a3,0
   13f44:	4109873b          	subw	a4,s3,a6
   13f48:	9f35                	addw	a4,a4,a3
   13f4a:	0017091b          	addiw	s2,a4,1
   13f4e:	1902                	slli	s2,s2,0x20
   13f50:	02071693          	slli	a3,a4,0x20
   13f54:	02095913          	srli	s2,s2,0x20
   13f58:	992e                	add	s2,s2,a1
   13f5a:	9281                	srli	a3,a3,0x20
   13f5c:	00094703          	lbu	a4,0(s2)
   13f60:	96ae                	add	a3,a3,a1
   13f62:	0006c903          	lbu	s2,0(a3)
   13f66:	1782                	slli	a5,a5,0x20
   13f68:	9381                	srli	a5,a5,0x20
   13f6a:	97aa                	add	a5,a5,a0
   13f6c:	0087171b          	slliw	a4,a4,0x8
   13f70:	0007c683          	lbu	a3,0(a5)
   13f74:	01276733          	or	a4,a4,s2
   13f78:	0147173b          	sllw	a4,a4,s4
   13f7c:	4087571b          	sraiw	a4,a4,0x8
   13f80:	8eb9                	xor	a3,a3,a4
   13f82:	00d78023          	sb	a3,0(a5)
   13f86:	0019871b          	addiw	a4,s3,1
   13f8a:	f29703e3          	beq	a4,s1,13eb0 <_Z17cyclic_shift_leftPhPKhj+0x114>
